ARM GAS  /tmp/ccUwd8WC.s 			page 1


   1              		.cpu cortex-m33
   2              		.arch armv8-m.main
   3              		.fpu fpv4-sp-d16
   4              		.arch_extension dsp
   5              		.eabi_attribute 27, 1
   6              		.eabi_attribute 28, 1
   7              		.eabi_attribute 20, 1
   8              		.eabi_attribute 21, 1
   9              		.eabi_attribute 23, 3
  10              		.eabi_attribute 24, 1
  11              		.eabi_attribute 25, 1
  12              		.eabi_attribute 26, 1
  13              		.eabi_attribute 30, 1
  14              		.eabi_attribute 34, 1
  15              		.eabi_attribute 18, 4
  16              		.file	"stm32l5xx_hal_pwr_ex.c"
  17              		.text
  18              	.Ltext0:
  19              		.cfi_sections	.debug_frame
  20              		.file 1 "../../Drivers/STM32L5xx_HAL_Driver/Src/stm32l5xx_hal_pwr_ex.c"
  21              		.section	.text.HAL_PWREx_GetVoltageRange,"ax",%progbits
  22              		.align	1
  23              		.global	HAL_PWREx_GetVoltageRange
  24              		.syntax unified
  25              		.thumb
  26              		.thumb_func
  28              	HAL_PWREx_GetVoltageRange:
  29              	.LFB152:
   1:../../Drivers/STM32L5xx_HAL_Driver/Src/stm32l5xx_hal_pwr_ex.c **** /**
   2:../../Drivers/STM32L5xx_HAL_Driver/Src/stm32l5xx_hal_pwr_ex.c ****   ******************************************************************************
   3:../../Drivers/STM32L5xx_HAL_Driver/Src/stm32l5xx_hal_pwr_ex.c ****   * @file    stm32l5xx_hal_pwr_ex.c
   4:../../Drivers/STM32L5xx_HAL_Driver/Src/stm32l5xx_hal_pwr_ex.c ****   * @author  MCD Application Team
   5:../../Drivers/STM32L5xx_HAL_Driver/Src/stm32l5xx_hal_pwr_ex.c ****   * @brief   Extended PWR HAL module driver.
   6:../../Drivers/STM32L5xx_HAL_Driver/Src/stm32l5xx_hal_pwr_ex.c ****   *          This file provides firmware functions to manage the following
   7:../../Drivers/STM32L5xx_HAL_Driver/Src/stm32l5xx_hal_pwr_ex.c ****   *          functionalities of the Power Controller (PWR) peripheral:
   8:../../Drivers/STM32L5xx_HAL_Driver/Src/stm32l5xx_hal_pwr_ex.c ****   *           + Extended Initialization and de-initialization functions
   9:../../Drivers/STM32L5xx_HAL_Driver/Src/stm32l5xx_hal_pwr_ex.c ****   *           + Extended Peripheral Control functions
  10:../../Drivers/STM32L5xx_HAL_Driver/Src/stm32l5xx_hal_pwr_ex.c ****   *
  11:../../Drivers/STM32L5xx_HAL_Driver/Src/stm32l5xx_hal_pwr_ex.c ****   ******************************************************************************
  12:../../Drivers/STM32L5xx_HAL_Driver/Src/stm32l5xx_hal_pwr_ex.c ****   * @attention
  13:../../Drivers/STM32L5xx_HAL_Driver/Src/stm32l5xx_hal_pwr_ex.c ****   *
  14:../../Drivers/STM32L5xx_HAL_Driver/Src/stm32l5xx_hal_pwr_ex.c ****   * Copyright (c) 2019 STMicroelectronics.
  15:../../Drivers/STM32L5xx_HAL_Driver/Src/stm32l5xx_hal_pwr_ex.c ****   * All rights reserved.
  16:../../Drivers/STM32L5xx_HAL_Driver/Src/stm32l5xx_hal_pwr_ex.c ****   *
  17:../../Drivers/STM32L5xx_HAL_Driver/Src/stm32l5xx_hal_pwr_ex.c ****   * This software is licensed under terms that can be found in the LICENSE file in
  18:../../Drivers/STM32L5xx_HAL_Driver/Src/stm32l5xx_hal_pwr_ex.c ****   * the root directory of this software component.
  19:../../Drivers/STM32L5xx_HAL_Driver/Src/stm32l5xx_hal_pwr_ex.c ****   * If no LICENSE file comes with this software, it is provided AS-IS.
  20:../../Drivers/STM32L5xx_HAL_Driver/Src/stm32l5xx_hal_pwr_ex.c ****   ******************************************************************************
  21:../../Drivers/STM32L5xx_HAL_Driver/Src/stm32l5xx_hal_pwr_ex.c ****   */
  22:../../Drivers/STM32L5xx_HAL_Driver/Src/stm32l5xx_hal_pwr_ex.c **** 
  23:../../Drivers/STM32L5xx_HAL_Driver/Src/stm32l5xx_hal_pwr_ex.c **** /* Includes ------------------------------------------------------------------*/
  24:../../Drivers/STM32L5xx_HAL_Driver/Src/stm32l5xx_hal_pwr_ex.c **** #include "stm32l5xx_hal.h"
  25:../../Drivers/STM32L5xx_HAL_Driver/Src/stm32l5xx_hal_pwr_ex.c **** 
  26:../../Drivers/STM32L5xx_HAL_Driver/Src/stm32l5xx_hal_pwr_ex.c **** /** @addtogroup STM32L5xx_HAL_Driver
  27:../../Drivers/STM32L5xx_HAL_Driver/Src/stm32l5xx_hal_pwr_ex.c ****   * @{
  28:../../Drivers/STM32L5xx_HAL_Driver/Src/stm32l5xx_hal_pwr_ex.c ****   */
  29:../../Drivers/STM32L5xx_HAL_Driver/Src/stm32l5xx_hal_pwr_ex.c **** 
ARM GAS  /tmp/ccUwd8WC.s 			page 2


  30:../../Drivers/STM32L5xx_HAL_Driver/Src/stm32l5xx_hal_pwr_ex.c **** /** @defgroup PWREx PWREx
  31:../../Drivers/STM32L5xx_HAL_Driver/Src/stm32l5xx_hal_pwr_ex.c ****   * @brief PWR Extended HAL module driver
  32:../../Drivers/STM32L5xx_HAL_Driver/Src/stm32l5xx_hal_pwr_ex.c ****   * @{
  33:../../Drivers/STM32L5xx_HAL_Driver/Src/stm32l5xx_hal_pwr_ex.c ****   */
  34:../../Drivers/STM32L5xx_HAL_Driver/Src/stm32l5xx_hal_pwr_ex.c **** 
  35:../../Drivers/STM32L5xx_HAL_Driver/Src/stm32l5xx_hal_pwr_ex.c **** #ifdef HAL_PWR_MODULE_ENABLED
  36:../../Drivers/STM32L5xx_HAL_Driver/Src/stm32l5xx_hal_pwr_ex.c **** 
  37:../../Drivers/STM32L5xx_HAL_Driver/Src/stm32l5xx_hal_pwr_ex.c **** /* Private typedef -----------------------------------------------------------*/
  38:../../Drivers/STM32L5xx_HAL_Driver/Src/stm32l5xx_hal_pwr_ex.c **** /* Private define ------------------------------------------------------------*/
  39:../../Drivers/STM32L5xx_HAL_Driver/Src/stm32l5xx_hal_pwr_ex.c **** 
  40:../../Drivers/STM32L5xx_HAL_Driver/Src/stm32l5xx_hal_pwr_ex.c **** /** @defgroup PWR_Extended_Private_Defines PWR Extended Private Defines
  41:../../Drivers/STM32L5xx_HAL_Driver/Src/stm32l5xx_hal_pwr_ex.c ****   * @{
  42:../../Drivers/STM32L5xx_HAL_Driver/Src/stm32l5xx_hal_pwr_ex.c ****   */
  43:../../Drivers/STM32L5xx_HAL_Driver/Src/stm32l5xx_hal_pwr_ex.c **** 
  44:../../Drivers/STM32L5xx_HAL_Driver/Src/stm32l5xx_hal_pwr_ex.c **** #define PWR_PORTH_AVAILABLE_PINS  ((uint32_t)0x0000000B)  /* PH0/PH1/PH3 */
  45:../../Drivers/STM32L5xx_HAL_Driver/Src/stm32l5xx_hal_pwr_ex.c **** 
  46:../../Drivers/STM32L5xx_HAL_Driver/Src/stm32l5xx_hal_pwr_ex.c **** /** @defgroup PWREx_PVM_Mode_Mask PWR PVM Mode Mask
  47:../../Drivers/STM32L5xx_HAL_Driver/Src/stm32l5xx_hal_pwr_ex.c ****   * @{
  48:../../Drivers/STM32L5xx_HAL_Driver/Src/stm32l5xx_hal_pwr_ex.c ****   */
  49:../../Drivers/STM32L5xx_HAL_Driver/Src/stm32l5xx_hal_pwr_ex.c **** #define PVM_MODE_IT               ((uint32_t)0x00010000)  /*!< Mask for interruption yielded by PVM
  50:../../Drivers/STM32L5xx_HAL_Driver/Src/stm32l5xx_hal_pwr_ex.c **** #define PVM_MODE_EVT              ((uint32_t)0x00020000)  /*!< Mask for event yielded by PVM thresh
  51:../../Drivers/STM32L5xx_HAL_Driver/Src/stm32l5xx_hal_pwr_ex.c **** #define PVM_RISING_EDGE           ((uint32_t)0x00000001)  /*!< Mask for rising edge set as PVM trig
  52:../../Drivers/STM32L5xx_HAL_Driver/Src/stm32l5xx_hal_pwr_ex.c **** #define PVM_FALLING_EDGE          ((uint32_t)0x00000002)  /*!< Mask for falling edge set as PVM tri
  53:../../Drivers/STM32L5xx_HAL_Driver/Src/stm32l5xx_hal_pwr_ex.c **** /**
  54:../../Drivers/STM32L5xx_HAL_Driver/Src/stm32l5xx_hal_pwr_ex.c ****   * @}
  55:../../Drivers/STM32L5xx_HAL_Driver/Src/stm32l5xx_hal_pwr_ex.c ****   */
  56:../../Drivers/STM32L5xx_HAL_Driver/Src/stm32l5xx_hal_pwr_ex.c **** 
  57:../../Drivers/STM32L5xx_HAL_Driver/Src/stm32l5xx_hal_pwr_ex.c **** /** @defgroup PWREx_TimeOut_Value PWR Extended Flag Setting Time Out Value
  58:../../Drivers/STM32L5xx_HAL_Driver/Src/stm32l5xx_hal_pwr_ex.c ****   * @{
  59:../../Drivers/STM32L5xx_HAL_Driver/Src/stm32l5xx_hal_pwr_ex.c ****   */
  60:../../Drivers/STM32L5xx_HAL_Driver/Src/stm32l5xx_hal_pwr_ex.c **** #define PWR_REGLP_SETTING_DELAY_VALUE            300UL   /*!< Time out value for REGLPF flag settin
  61:../../Drivers/STM32L5xx_HAL_Driver/Src/stm32l5xx_hal_pwr_ex.c **** 
  62:../../Drivers/STM32L5xx_HAL_Driver/Src/stm32l5xx_hal_pwr_ex.c **** #define PWR_VOSF_SETTING_DELAY_VALUE              50UL   /*!< Time out value for VOSF flag setting 
  63:../../Drivers/STM32L5xx_HAL_Driver/Src/stm32l5xx_hal_pwr_ex.c **** 
  64:../../Drivers/STM32L5xx_HAL_Driver/Src/stm32l5xx_hal_pwr_ex.c **** #define PWR_MODE_CHANGE_DELAY_VALUE             1000UL   /*!< Time out for step down converter oper
  65:../../Drivers/STM32L5xx_HAL_Driver/Src/stm32l5xx_hal_pwr_ex.c **** 
  66:../../Drivers/STM32L5xx_HAL_Driver/Src/stm32l5xx_hal_pwr_ex.c **** /**
  67:../../Drivers/STM32L5xx_HAL_Driver/Src/stm32l5xx_hal_pwr_ex.c ****   * @}
  68:../../Drivers/STM32L5xx_HAL_Driver/Src/stm32l5xx_hal_pwr_ex.c ****   */
  69:../../Drivers/STM32L5xx_HAL_Driver/Src/stm32l5xx_hal_pwr_ex.c **** 
  70:../../Drivers/STM32L5xx_HAL_Driver/Src/stm32l5xx_hal_pwr_ex.c **** /**
  71:../../Drivers/STM32L5xx_HAL_Driver/Src/stm32l5xx_hal_pwr_ex.c ****   * @}
  72:../../Drivers/STM32L5xx_HAL_Driver/Src/stm32l5xx_hal_pwr_ex.c ****   */
  73:../../Drivers/STM32L5xx_HAL_Driver/Src/stm32l5xx_hal_pwr_ex.c **** 
  74:../../Drivers/STM32L5xx_HAL_Driver/Src/stm32l5xx_hal_pwr_ex.c **** /* Private macro -------------------------------------------------------------*/
  75:../../Drivers/STM32L5xx_HAL_Driver/Src/stm32l5xx_hal_pwr_ex.c **** /* Private variables ---------------------------------------------------------*/
  76:../../Drivers/STM32L5xx_HAL_Driver/Src/stm32l5xx_hal_pwr_ex.c **** /* Private function prototypes -----------------------------------------------*/
  77:../../Drivers/STM32L5xx_HAL_Driver/Src/stm32l5xx_hal_pwr_ex.c **** /* Exported functions --------------------------------------------------------*/
  78:../../Drivers/STM32L5xx_HAL_Driver/Src/stm32l5xx_hal_pwr_ex.c **** 
  79:../../Drivers/STM32L5xx_HAL_Driver/Src/stm32l5xx_hal_pwr_ex.c **** /** @defgroup PWREx_Exported_Functions PWR Extended Exported Functions
  80:../../Drivers/STM32L5xx_HAL_Driver/Src/stm32l5xx_hal_pwr_ex.c ****   * @{
  81:../../Drivers/STM32L5xx_HAL_Driver/Src/stm32l5xx_hal_pwr_ex.c ****   */
  82:../../Drivers/STM32L5xx_HAL_Driver/Src/stm32l5xx_hal_pwr_ex.c **** 
  83:../../Drivers/STM32L5xx_HAL_Driver/Src/stm32l5xx_hal_pwr_ex.c **** /** @defgroup PWREx_Exported_Functions_Group1 Extended Peripheral Control functions
  84:../../Drivers/STM32L5xx_HAL_Driver/Src/stm32l5xx_hal_pwr_ex.c ****   *  @brief   Extended Peripheral Control functions
  85:../../Drivers/STM32L5xx_HAL_Driver/Src/stm32l5xx_hal_pwr_ex.c ****   *
  86:../../Drivers/STM32L5xx_HAL_Driver/Src/stm32l5xx_hal_pwr_ex.c **** @verbatim
ARM GAS  /tmp/ccUwd8WC.s 			page 3


  87:../../Drivers/STM32L5xx_HAL_Driver/Src/stm32l5xx_hal_pwr_ex.c ****  ===============================================================================
  88:../../Drivers/STM32L5xx_HAL_Driver/Src/stm32l5xx_hal_pwr_ex.c ****               ##### Extended Peripheral Initialization and de-initialization functions #####
  89:../../Drivers/STM32L5xx_HAL_Driver/Src/stm32l5xx_hal_pwr_ex.c ****  ===============================================================================
  90:../../Drivers/STM32L5xx_HAL_Driver/Src/stm32l5xx_hal_pwr_ex.c ****     [..]
  91:../../Drivers/STM32L5xx_HAL_Driver/Src/stm32l5xx_hal_pwr_ex.c **** 
  92:../../Drivers/STM32L5xx_HAL_Driver/Src/stm32l5xx_hal_pwr_ex.c **** @endverbatim
  93:../../Drivers/STM32L5xx_HAL_Driver/Src/stm32l5xx_hal_pwr_ex.c ****   * @{
  94:../../Drivers/STM32L5xx_HAL_Driver/Src/stm32l5xx_hal_pwr_ex.c ****   */
  95:../../Drivers/STM32L5xx_HAL_Driver/Src/stm32l5xx_hal_pwr_ex.c **** 
  96:../../Drivers/STM32L5xx_HAL_Driver/Src/stm32l5xx_hal_pwr_ex.c **** 
  97:../../Drivers/STM32L5xx_HAL_Driver/Src/stm32l5xx_hal_pwr_ex.c **** /**
  98:../../Drivers/STM32L5xx_HAL_Driver/Src/stm32l5xx_hal_pwr_ex.c ****   * @brief Return Voltage Scaling Range.
  99:../../Drivers/STM32L5xx_HAL_Driver/Src/stm32l5xx_hal_pwr_ex.c ****   * @retval VOS bit field (PWR_REGULATOR_VOLTAGE_SCALE0, PWR_REGULATOR_VOLTAGE_SCALE1 or PWR_REGULA
 100:../../Drivers/STM32L5xx_HAL_Driver/Src/stm32l5xx_hal_pwr_ex.c ****   */
 101:../../Drivers/STM32L5xx_HAL_Driver/Src/stm32l5xx_hal_pwr_ex.c **** uint32_t HAL_PWREx_GetVoltageRange(void)
 102:../../Drivers/STM32L5xx_HAL_Driver/Src/stm32l5xx_hal_pwr_ex.c **** {
  30              		.loc 1 102 1 view -0
  31              		.cfi_startproc
  32              		@ args = 0, pretend = 0, frame = 0
  33              		@ frame_needed = 0, uses_anonymous_args = 0
  34              		@ link register save eliminated.
 103:../../Drivers/STM32L5xx_HAL_Driver/Src/stm32l5xx_hal_pwr_ex.c ****   return (PWR->CR1 & PWR_CR1_VOS);
  35              		.loc 1 103 3 view .LVU1
  36              		.loc 1 103 14 is_stmt 0 view .LVU2
  37 0000 024B     		ldr	r3, .L2
  38 0002 1868     		ldr	r0, [r3]
 104:../../Drivers/STM32L5xx_HAL_Driver/Src/stm32l5xx_hal_pwr_ex.c **** }
  39              		.loc 1 104 1 view .LVU3
  40 0004 00F4C060 		and	r0, r0, #1536
  41 0008 7047     		bx	lr
  42              	.L3:
  43 000a 00BF     		.align	2
  44              	.L2:
  45 000c 00700040 		.word	1073770496
  46              		.cfi_endproc
  47              	.LFE152:
  49              		.section	.text.HAL_PWREx_EnableBatteryCharging,"ax",%progbits
  50              		.align	1
  51              		.global	HAL_PWREx_EnableBatteryCharging
  52              		.syntax unified
  53              		.thumb
  54              		.thumb_func
  56              	HAL_PWREx_EnableBatteryCharging:
  57              	.LVL0:
  58              	.LFB154:
 105:../../Drivers/STM32L5xx_HAL_Driver/Src/stm32l5xx_hal_pwr_ex.c **** 
 106:../../Drivers/STM32L5xx_HAL_Driver/Src/stm32l5xx_hal_pwr_ex.c **** /**
 107:../../Drivers/STM32L5xx_HAL_Driver/Src/stm32l5xx_hal_pwr_ex.c ****   * @brief Configure the main internal regulator output voltage.
 108:../../Drivers/STM32L5xx_HAL_Driver/Src/stm32l5xx_hal_pwr_ex.c ****   * @param  VoltageScaling specifies the regulator output voltage to achieve
 109:../../Drivers/STM32L5xx_HAL_Driver/Src/stm32l5xx_hal_pwr_ex.c ****   *         a tradeoff between performance and power consumption.
 110:../../Drivers/STM32L5xx_HAL_Driver/Src/stm32l5xx_hal_pwr_ex.c ****   *          This parameter can be one of the following values:
 111:../../Drivers/STM32L5xx_HAL_Driver/Src/stm32l5xx_hal_pwr_ex.c ****   *            @arg @ref PWR_REGULATOR_VOLTAGE_SCALE0 Regulator voltage output range 0 mode,
 112:../../Drivers/STM32L5xx_HAL_Driver/Src/stm32l5xx_hal_pwr_ex.c ****   *                                                typical output voltage at 1.28 V,
 113:../../Drivers/STM32L5xx_HAL_Driver/Src/stm32l5xx_hal_pwr_ex.c ****   *                                                system frequency up to 100 MHz.
 114:../../Drivers/STM32L5xx_HAL_Driver/Src/stm32l5xx_hal_pwr_ex.c ****   *            @arg @ref PWR_REGULATOR_VOLTAGE_SCALE1 Regulator voltage output range 1 mode,
 115:../../Drivers/STM32L5xx_HAL_Driver/Src/stm32l5xx_hal_pwr_ex.c ****   *                                                typical output voltage at 1.2 V,
 116:../../Drivers/STM32L5xx_HAL_Driver/Src/stm32l5xx_hal_pwr_ex.c ****   *                                                system frequency up to 80 MHz.
ARM GAS  /tmp/ccUwd8WC.s 			page 4


 117:../../Drivers/STM32L5xx_HAL_Driver/Src/stm32l5xx_hal_pwr_ex.c ****   *            @arg @ref PWR_REGULATOR_VOLTAGE_SCALE2 Regulator voltage output range 2 mode,
 118:../../Drivers/STM32L5xx_HAL_Driver/Src/stm32l5xx_hal_pwr_ex.c ****   *                                                typical output voltage at 1.0 V,
 119:../../Drivers/STM32L5xx_HAL_Driver/Src/stm32l5xx_hal_pwr_ex.c ****   *                                                system frequency up to 26 MHz.
 120:../../Drivers/STM32L5xx_HAL_Driver/Src/stm32l5xx_hal_pwr_ex.c ****   * @note  When moving from Range 1 to Range 2, the system frequency must be decreased to
 121:../../Drivers/STM32L5xx_HAL_Driver/Src/stm32l5xx_hal_pwr_ex.c ****   *        a value below 26 MHz before calling HAL_PWREx_ControlVoltageScaling() API.
 122:../../Drivers/STM32L5xx_HAL_Driver/Src/stm32l5xx_hal_pwr_ex.c ****   *        When moving from Range 2 to Range 1, the system frequency can be increased to
 123:../../Drivers/STM32L5xx_HAL_Driver/Src/stm32l5xx_hal_pwr_ex.c ****   *        a value up to 80 MHz after calling HAL_PWREx_ControlVoltageScaling() API.
 124:../../Drivers/STM32L5xx_HAL_Driver/Src/stm32l5xx_hal_pwr_ex.c ****   * @note  When moving from one Range to another , the API waits for VOSF flag to be
 125:../../Drivers/STM32L5xx_HAL_Driver/Src/stm32l5xx_hal_pwr_ex.c ****   *        cleared before returning the status. If the flag is not cleared within limited time dura
 126:../../Drivers/STM32L5xx_HAL_Driver/Src/stm32l5xx_hal_pwr_ex.c ****   *        HAL_TIMEOUT status is reported.
 127:../../Drivers/STM32L5xx_HAL_Driver/Src/stm32l5xx_hal_pwr_ex.c ****   * @note  The VOS shall NOT be changed in LP Mode of if LP mode is asked.
 128:../../Drivers/STM32L5xx_HAL_Driver/Src/stm32l5xx_hal_pwr_ex.c ****   * @note  The function shall not be called in Low-power run mode (meaningless and misleading).
 129:../../Drivers/STM32L5xx_HAL_Driver/Src/stm32l5xx_hal_pwr_ex.c ****   * @retval HAL Status
 130:../../Drivers/STM32L5xx_HAL_Driver/Src/stm32l5xx_hal_pwr_ex.c ****   */
 131:../../Drivers/STM32L5xx_HAL_Driver/Src/stm32l5xx_hal_pwr_ex.c **** HAL_StatusTypeDef HAL_PWREx_ControlVoltageScaling(uint32_t VoltageScaling)
 132:../../Drivers/STM32L5xx_HAL_Driver/Src/stm32l5xx_hal_pwr_ex.c **** {
 133:../../Drivers/STM32L5xx_HAL_Driver/Src/stm32l5xx_hal_pwr_ex.c ****   uint32_t wait_loop_index;
 134:../../Drivers/STM32L5xx_HAL_Driver/Src/stm32l5xx_hal_pwr_ex.c **** 
 135:../../Drivers/STM32L5xx_HAL_Driver/Src/stm32l5xx_hal_pwr_ex.c ****   assert_param(IS_PWR_VOLTAGE_SCALING_RANGE(VoltageScaling));
 136:../../Drivers/STM32L5xx_HAL_Driver/Src/stm32l5xx_hal_pwr_ex.c **** 
 137:../../Drivers/STM32L5xx_HAL_Driver/Src/stm32l5xx_hal_pwr_ex.c ****   uint32_t vos_old = READ_BIT(PWR->CR1, PWR_CR1_VOS);
 138:../../Drivers/STM32L5xx_HAL_Driver/Src/stm32l5xx_hal_pwr_ex.c **** 
 139:../../Drivers/STM32L5xx_HAL_Driver/Src/stm32l5xx_hal_pwr_ex.c ****   /* VOS shall not be changed in LP Mode            */
 140:../../Drivers/STM32L5xx_HAL_Driver/Src/stm32l5xx_hal_pwr_ex.c ****   /* or if LP Mode is asked but not yet established */
 141:../../Drivers/STM32L5xx_HAL_Driver/Src/stm32l5xx_hal_pwr_ex.c ****   if (HAL_PWREx_SMPS_GetEffectiveMode() == PWR_SMPS_LOW_POWER)
 142:../../Drivers/STM32L5xx_HAL_Driver/Src/stm32l5xx_hal_pwr_ex.c ****   {
 143:../../Drivers/STM32L5xx_HAL_Driver/Src/stm32l5xx_hal_pwr_ex.c ****     return HAL_ERROR;
 144:../../Drivers/STM32L5xx_HAL_Driver/Src/stm32l5xx_hal_pwr_ex.c ****   }
 145:../../Drivers/STM32L5xx_HAL_Driver/Src/stm32l5xx_hal_pwr_ex.c ****   if (READ_BIT(PWR->CR4, PWR_CR4_SMPSLPEN) == PWR_CR4_SMPSLPEN)
 146:../../Drivers/STM32L5xx_HAL_Driver/Src/stm32l5xx_hal_pwr_ex.c ****   {
 147:../../Drivers/STM32L5xx_HAL_Driver/Src/stm32l5xx_hal_pwr_ex.c ****     return HAL_ERROR;
 148:../../Drivers/STM32L5xx_HAL_Driver/Src/stm32l5xx_hal_pwr_ex.c ****   }
 149:../../Drivers/STM32L5xx_HAL_Driver/Src/stm32l5xx_hal_pwr_ex.c **** 
 150:../../Drivers/STM32L5xx_HAL_Driver/Src/stm32l5xx_hal_pwr_ex.c ****   /* No change, nothing to do */
 151:../../Drivers/STM32L5xx_HAL_Driver/Src/stm32l5xx_hal_pwr_ex.c ****   if (vos_old == VoltageScaling)
 152:../../Drivers/STM32L5xx_HAL_Driver/Src/stm32l5xx_hal_pwr_ex.c ****   {
 153:../../Drivers/STM32L5xx_HAL_Driver/Src/stm32l5xx_hal_pwr_ex.c ****     return HAL_OK;
 154:../../Drivers/STM32L5xx_HAL_Driver/Src/stm32l5xx_hal_pwr_ex.c ****   }
 155:../../Drivers/STM32L5xx_HAL_Driver/Src/stm32l5xx_hal_pwr_ex.c **** 
 156:../../Drivers/STM32L5xx_HAL_Driver/Src/stm32l5xx_hal_pwr_ex.c ****   MODIFY_REG(PWR->CR1, PWR_CR1_VOS, VoltageScaling);
 157:../../Drivers/STM32L5xx_HAL_Driver/Src/stm32l5xx_hal_pwr_ex.c **** 
 158:../../Drivers/STM32L5xx_HAL_Driver/Src/stm32l5xx_hal_pwr_ex.c ****   /* Wait until VOSF is cleared */
 159:../../Drivers/STM32L5xx_HAL_Driver/Src/stm32l5xx_hal_pwr_ex.c ****   /* and at least one iteration loop */
 160:../../Drivers/STM32L5xx_HAL_Driver/Src/stm32l5xx_hal_pwr_ex.c ****   wait_loop_index = ((PWR_VOSF_SETTING_DELAY_VALUE * (SystemCoreClock / 100000U)) / 10U) + 1U;
 161:../../Drivers/STM32L5xx_HAL_Driver/Src/stm32l5xx_hal_pwr_ex.c **** 
 162:../../Drivers/STM32L5xx_HAL_Driver/Src/stm32l5xx_hal_pwr_ex.c ****   while ((HAL_IS_BIT_SET(PWR->SR2, PWR_SR2_VOSF)) && (wait_loop_index != 0U))
 163:../../Drivers/STM32L5xx_HAL_Driver/Src/stm32l5xx_hal_pwr_ex.c ****   {
 164:../../Drivers/STM32L5xx_HAL_Driver/Src/stm32l5xx_hal_pwr_ex.c ****     wait_loop_index--;
 165:../../Drivers/STM32L5xx_HAL_Driver/Src/stm32l5xx_hal_pwr_ex.c ****   }
 166:../../Drivers/STM32L5xx_HAL_Driver/Src/stm32l5xx_hal_pwr_ex.c **** 
 167:../../Drivers/STM32L5xx_HAL_Driver/Src/stm32l5xx_hal_pwr_ex.c ****   if (HAL_IS_BIT_SET(PWR->SR2, PWR_SR2_VOSF))
 168:../../Drivers/STM32L5xx_HAL_Driver/Src/stm32l5xx_hal_pwr_ex.c ****   {
 169:../../Drivers/STM32L5xx_HAL_Driver/Src/stm32l5xx_hal_pwr_ex.c ****     return HAL_TIMEOUT;
 170:../../Drivers/STM32L5xx_HAL_Driver/Src/stm32l5xx_hal_pwr_ex.c ****   }
 171:../../Drivers/STM32L5xx_HAL_Driver/Src/stm32l5xx_hal_pwr_ex.c **** 
 172:../../Drivers/STM32L5xx_HAL_Driver/Src/stm32l5xx_hal_pwr_ex.c ****   return HAL_OK;
 173:../../Drivers/STM32L5xx_HAL_Driver/Src/stm32l5xx_hal_pwr_ex.c **** }
ARM GAS  /tmp/ccUwd8WC.s 			page 5


 174:../../Drivers/STM32L5xx_HAL_Driver/Src/stm32l5xx_hal_pwr_ex.c **** 
 175:../../Drivers/STM32L5xx_HAL_Driver/Src/stm32l5xx_hal_pwr_ex.c **** /**
 176:../../Drivers/STM32L5xx_HAL_Driver/Src/stm32l5xx_hal_pwr_ex.c ****   * @brief Enable battery charging.
 177:../../Drivers/STM32L5xx_HAL_Driver/Src/stm32l5xx_hal_pwr_ex.c ****   *        When VDD is present, charge the external battery on VBAT through an internal resistor.
 178:../../Drivers/STM32L5xx_HAL_Driver/Src/stm32l5xx_hal_pwr_ex.c ****   * @param  ResistorSelection specifies the resistor impedance.
 179:../../Drivers/STM32L5xx_HAL_Driver/Src/stm32l5xx_hal_pwr_ex.c ****   *          This parameter can be one of the following values:
 180:../../Drivers/STM32L5xx_HAL_Driver/Src/stm32l5xx_hal_pwr_ex.c ****   *            @arg @ref PWR_BATTERY_CHARGING_RESISTOR_5     5 kOhms resistor
 181:../../Drivers/STM32L5xx_HAL_Driver/Src/stm32l5xx_hal_pwr_ex.c ****   *            @arg @ref PWR_BATTERY_CHARGING_RESISTOR_1_5 1.5 kOhms resistor
 182:../../Drivers/STM32L5xx_HAL_Driver/Src/stm32l5xx_hal_pwr_ex.c ****   * @retval None
 183:../../Drivers/STM32L5xx_HAL_Driver/Src/stm32l5xx_hal_pwr_ex.c ****   */
 184:../../Drivers/STM32L5xx_HAL_Driver/Src/stm32l5xx_hal_pwr_ex.c **** void HAL_PWREx_EnableBatteryCharging(uint32_t ResistorSelection)
 185:../../Drivers/STM32L5xx_HAL_Driver/Src/stm32l5xx_hal_pwr_ex.c **** {
  59              		.loc 1 185 1 is_stmt 1 view -0
  60              		.cfi_startproc
  61              		@ args = 0, pretend = 0, frame = 0
  62              		@ frame_needed = 0, uses_anonymous_args = 0
  63              		@ link register save eliminated.
 186:../../Drivers/STM32L5xx_HAL_Driver/Src/stm32l5xx_hal_pwr_ex.c ****   assert_param(IS_PWR_BATTERY_RESISTOR_SELECT(ResistorSelection));
  64              		.loc 1 186 3 view .LVU5
 187:../../Drivers/STM32L5xx_HAL_Driver/Src/stm32l5xx_hal_pwr_ex.c **** 
 188:../../Drivers/STM32L5xx_HAL_Driver/Src/stm32l5xx_hal_pwr_ex.c ****   /* Specify resistor selection */
 189:../../Drivers/STM32L5xx_HAL_Driver/Src/stm32l5xx_hal_pwr_ex.c ****   MODIFY_REG(PWR->CR4, PWR_CR4_VBRS, ResistorSelection);
  65              		.loc 1 189 3 view .LVU6
  66 0000 054A     		ldr	r2, .L5
  67 0002 D368     		ldr	r3, [r2, #12]
  68 0004 23F40073 		bic	r3, r3, #512
  69 0008 0343     		orrs	r3, r3, r0
  70 000a D360     		str	r3, [r2, #12]
 190:../../Drivers/STM32L5xx_HAL_Driver/Src/stm32l5xx_hal_pwr_ex.c **** 
 191:../../Drivers/STM32L5xx_HAL_Driver/Src/stm32l5xx_hal_pwr_ex.c ****   /* Enable battery charging */
 192:../../Drivers/STM32L5xx_HAL_Driver/Src/stm32l5xx_hal_pwr_ex.c ****   SET_BIT(PWR->CR4, PWR_CR4_VBE);
  71              		.loc 1 192 3 view .LVU7
  72 000c D368     		ldr	r3, [r2, #12]
  73 000e 43F48073 		orr	r3, r3, #256
  74 0012 D360     		str	r3, [r2, #12]
 193:../../Drivers/STM32L5xx_HAL_Driver/Src/stm32l5xx_hal_pwr_ex.c **** }
  75              		.loc 1 193 1 is_stmt 0 view .LVU8
  76 0014 7047     		bx	lr
  77              	.L6:
  78 0016 00BF     		.align	2
  79              	.L5:
  80 0018 00700040 		.word	1073770496
  81              		.cfi_endproc
  82              	.LFE154:
  84              		.section	.text.HAL_PWREx_DisableBatteryCharging,"ax",%progbits
  85              		.align	1
  86              		.global	HAL_PWREx_DisableBatteryCharging
  87              		.syntax unified
  88              		.thumb
  89              		.thumb_func
  91              	HAL_PWREx_DisableBatteryCharging:
  92              	.LFB155:
 194:../../Drivers/STM32L5xx_HAL_Driver/Src/stm32l5xx_hal_pwr_ex.c **** 
 195:../../Drivers/STM32L5xx_HAL_Driver/Src/stm32l5xx_hal_pwr_ex.c **** 
 196:../../Drivers/STM32L5xx_HAL_Driver/Src/stm32l5xx_hal_pwr_ex.c **** /**
 197:../../Drivers/STM32L5xx_HAL_Driver/Src/stm32l5xx_hal_pwr_ex.c ****   * @brief Disable battery charging.
 198:../../Drivers/STM32L5xx_HAL_Driver/Src/stm32l5xx_hal_pwr_ex.c ****   * @retval None
ARM GAS  /tmp/ccUwd8WC.s 			page 6


 199:../../Drivers/STM32L5xx_HAL_Driver/Src/stm32l5xx_hal_pwr_ex.c ****   */
 200:../../Drivers/STM32L5xx_HAL_Driver/Src/stm32l5xx_hal_pwr_ex.c **** void HAL_PWREx_DisableBatteryCharging(void)
 201:../../Drivers/STM32L5xx_HAL_Driver/Src/stm32l5xx_hal_pwr_ex.c **** {
  93              		.loc 1 201 1 is_stmt 1 view -0
  94              		.cfi_startproc
  95              		@ args = 0, pretend = 0, frame = 0
  96              		@ frame_needed = 0, uses_anonymous_args = 0
  97              		@ link register save eliminated.
 202:../../Drivers/STM32L5xx_HAL_Driver/Src/stm32l5xx_hal_pwr_ex.c ****   CLEAR_BIT(PWR->CR4, PWR_CR4_VBE);
  98              		.loc 1 202 3 view .LVU10
  99 0000 024A     		ldr	r2, .L8
 100 0002 D368     		ldr	r3, [r2, #12]
 101 0004 23F48073 		bic	r3, r3, #256
 102 0008 D360     		str	r3, [r2, #12]
 203:../../Drivers/STM32L5xx_HAL_Driver/Src/stm32l5xx_hal_pwr_ex.c **** }
 103              		.loc 1 203 1 is_stmt 0 view .LVU11
 104 000a 7047     		bx	lr
 105              	.L9:
 106              		.align	2
 107              	.L8:
 108 000c 00700040 		.word	1073770496
 109              		.cfi_endproc
 110              	.LFE155:
 112              		.section	.text.HAL_PWREx_EnableVddUSB,"ax",%progbits
 113              		.align	1
 114              		.global	HAL_PWREx_EnableVddUSB
 115              		.syntax unified
 116              		.thumb
 117              		.thumb_func
 119              	HAL_PWREx_EnableVddUSB:
 120              	.LFB156:
 204:../../Drivers/STM32L5xx_HAL_Driver/Src/stm32l5xx_hal_pwr_ex.c **** 
 205:../../Drivers/STM32L5xx_HAL_Driver/Src/stm32l5xx_hal_pwr_ex.c **** 
 206:../../Drivers/STM32L5xx_HAL_Driver/Src/stm32l5xx_hal_pwr_ex.c **** #if defined(PWR_CR2_USV)
 207:../../Drivers/STM32L5xx_HAL_Driver/Src/stm32l5xx_hal_pwr_ex.c **** /**
 208:../../Drivers/STM32L5xx_HAL_Driver/Src/stm32l5xx_hal_pwr_ex.c ****   * @brief Enable VDDUSB supply.
 209:../../Drivers/STM32L5xx_HAL_Driver/Src/stm32l5xx_hal_pwr_ex.c ****   * @note  Remove VDDUSB electrical and logical isolation, once VDDUSB supply is present.
 210:../../Drivers/STM32L5xx_HAL_Driver/Src/stm32l5xx_hal_pwr_ex.c ****   * @retval None
 211:../../Drivers/STM32L5xx_HAL_Driver/Src/stm32l5xx_hal_pwr_ex.c ****   */
 212:../../Drivers/STM32L5xx_HAL_Driver/Src/stm32l5xx_hal_pwr_ex.c **** void HAL_PWREx_EnableVddUSB(void)
 213:../../Drivers/STM32L5xx_HAL_Driver/Src/stm32l5xx_hal_pwr_ex.c **** {
 121              		.loc 1 213 1 is_stmt 1 view -0
 122              		.cfi_startproc
 123              		@ args = 0, pretend = 0, frame = 0
 124              		@ frame_needed = 0, uses_anonymous_args = 0
 125              		@ link register save eliminated.
 214:../../Drivers/STM32L5xx_HAL_Driver/Src/stm32l5xx_hal_pwr_ex.c ****   SET_BIT(PWR->CR2, PWR_CR2_USV);
 126              		.loc 1 214 3 view .LVU13
 127 0000 024A     		ldr	r2, .L11
 128 0002 5368     		ldr	r3, [r2, #4]
 129 0004 43F48063 		orr	r3, r3, #1024
 130 0008 5360     		str	r3, [r2, #4]
 215:../../Drivers/STM32L5xx_HAL_Driver/Src/stm32l5xx_hal_pwr_ex.c **** }
 131              		.loc 1 215 1 is_stmt 0 view .LVU14
 132 000a 7047     		bx	lr
 133              	.L12:
 134              		.align	2
ARM GAS  /tmp/ccUwd8WC.s 			page 7


 135              	.L11:
 136 000c 00700040 		.word	1073770496
 137              		.cfi_endproc
 138              	.LFE156:
 140              		.section	.text.HAL_PWREx_DisableVddUSB,"ax",%progbits
 141              		.align	1
 142              		.global	HAL_PWREx_DisableVddUSB
 143              		.syntax unified
 144              		.thumb
 145              		.thumb_func
 147              	HAL_PWREx_DisableVddUSB:
 148              	.LFB157:
 216:../../Drivers/STM32L5xx_HAL_Driver/Src/stm32l5xx_hal_pwr_ex.c **** 
 217:../../Drivers/STM32L5xx_HAL_Driver/Src/stm32l5xx_hal_pwr_ex.c **** 
 218:../../Drivers/STM32L5xx_HAL_Driver/Src/stm32l5xx_hal_pwr_ex.c **** /**
 219:../../Drivers/STM32L5xx_HAL_Driver/Src/stm32l5xx_hal_pwr_ex.c ****   * @brief Disable VDDUSB supply.
 220:../../Drivers/STM32L5xx_HAL_Driver/Src/stm32l5xx_hal_pwr_ex.c ****   * @retval None
 221:../../Drivers/STM32L5xx_HAL_Driver/Src/stm32l5xx_hal_pwr_ex.c ****   */
 222:../../Drivers/STM32L5xx_HAL_Driver/Src/stm32l5xx_hal_pwr_ex.c **** void HAL_PWREx_DisableVddUSB(void)
 223:../../Drivers/STM32L5xx_HAL_Driver/Src/stm32l5xx_hal_pwr_ex.c **** {
 149              		.loc 1 223 1 is_stmt 1 view -0
 150              		.cfi_startproc
 151              		@ args = 0, pretend = 0, frame = 0
 152              		@ frame_needed = 0, uses_anonymous_args = 0
 153              		@ link register save eliminated.
 224:../../Drivers/STM32L5xx_HAL_Driver/Src/stm32l5xx_hal_pwr_ex.c ****   CLEAR_BIT(PWR->CR2, PWR_CR2_USV);
 154              		.loc 1 224 3 view .LVU16
 155 0000 024A     		ldr	r2, .L14
 156 0002 5368     		ldr	r3, [r2, #4]
 157 0004 23F48063 		bic	r3, r3, #1024
 158 0008 5360     		str	r3, [r2, #4]
 225:../../Drivers/STM32L5xx_HAL_Driver/Src/stm32l5xx_hal_pwr_ex.c **** }
 159              		.loc 1 225 1 is_stmt 0 view .LVU17
 160 000a 7047     		bx	lr
 161              	.L15:
 162              		.align	2
 163              	.L14:
 164 000c 00700040 		.word	1073770496
 165              		.cfi_endproc
 166              	.LFE157:
 168              		.section	.text.HAL_PWREx_EnableVddIO2,"ax",%progbits
 169              		.align	1
 170              		.global	HAL_PWREx_EnableVddIO2
 171              		.syntax unified
 172              		.thumb
 173              		.thumb_func
 175              	HAL_PWREx_EnableVddIO2:
 176              	.LFB158:
 226:../../Drivers/STM32L5xx_HAL_Driver/Src/stm32l5xx_hal_pwr_ex.c **** #endif /* PWR_CR2_USV */
 227:../../Drivers/STM32L5xx_HAL_Driver/Src/stm32l5xx_hal_pwr_ex.c **** 
 228:../../Drivers/STM32L5xx_HAL_Driver/Src/stm32l5xx_hal_pwr_ex.c **** /**
 229:../../Drivers/STM32L5xx_HAL_Driver/Src/stm32l5xx_hal_pwr_ex.c ****   * @brief Enable VDDIO2 supply.
 230:../../Drivers/STM32L5xx_HAL_Driver/Src/stm32l5xx_hal_pwr_ex.c ****   * @note  Remove VDDIO2 electrical and logical isolation, once VDDIO2 supply is present.
 231:../../Drivers/STM32L5xx_HAL_Driver/Src/stm32l5xx_hal_pwr_ex.c ****   * @retval None
 232:../../Drivers/STM32L5xx_HAL_Driver/Src/stm32l5xx_hal_pwr_ex.c ****   */
 233:../../Drivers/STM32L5xx_HAL_Driver/Src/stm32l5xx_hal_pwr_ex.c **** void HAL_PWREx_EnableVddIO2(void)
 234:../../Drivers/STM32L5xx_HAL_Driver/Src/stm32l5xx_hal_pwr_ex.c **** {
ARM GAS  /tmp/ccUwd8WC.s 			page 8


 177              		.loc 1 234 1 is_stmt 1 view -0
 178              		.cfi_startproc
 179              		@ args = 0, pretend = 0, frame = 0
 180              		@ frame_needed = 0, uses_anonymous_args = 0
 181              		@ link register save eliminated.
 235:../../Drivers/STM32L5xx_HAL_Driver/Src/stm32l5xx_hal_pwr_ex.c ****   SET_BIT(PWR->CR2, PWR_CR2_IOSV);
 182              		.loc 1 235 3 view .LVU19
 183 0000 024A     		ldr	r2, .L17
 184 0002 5368     		ldr	r3, [r2, #4]
 185 0004 43F40073 		orr	r3, r3, #512
 186 0008 5360     		str	r3, [r2, #4]
 236:../../Drivers/STM32L5xx_HAL_Driver/Src/stm32l5xx_hal_pwr_ex.c **** }
 187              		.loc 1 236 1 is_stmt 0 view .LVU20
 188 000a 7047     		bx	lr
 189              	.L18:
 190              		.align	2
 191              	.L17:
 192 000c 00700040 		.word	1073770496
 193              		.cfi_endproc
 194              	.LFE158:
 196              		.section	.text.HAL_PWREx_DisableVddIO2,"ax",%progbits
 197              		.align	1
 198              		.global	HAL_PWREx_DisableVddIO2
 199              		.syntax unified
 200              		.thumb
 201              		.thumb_func
 203              	HAL_PWREx_DisableVddIO2:
 204              	.LFB159:
 237:../../Drivers/STM32L5xx_HAL_Driver/Src/stm32l5xx_hal_pwr_ex.c **** 
 238:../../Drivers/STM32L5xx_HAL_Driver/Src/stm32l5xx_hal_pwr_ex.c **** /**
 239:../../Drivers/STM32L5xx_HAL_Driver/Src/stm32l5xx_hal_pwr_ex.c ****   * @brief Disable VDDIO2 supply.
 240:../../Drivers/STM32L5xx_HAL_Driver/Src/stm32l5xx_hal_pwr_ex.c ****   * @retval None
 241:../../Drivers/STM32L5xx_HAL_Driver/Src/stm32l5xx_hal_pwr_ex.c ****   */
 242:../../Drivers/STM32L5xx_HAL_Driver/Src/stm32l5xx_hal_pwr_ex.c **** void HAL_PWREx_DisableVddIO2(void)
 243:../../Drivers/STM32L5xx_HAL_Driver/Src/stm32l5xx_hal_pwr_ex.c **** {
 205              		.loc 1 243 1 is_stmt 1 view -0
 206              		.cfi_startproc
 207              		@ args = 0, pretend = 0, frame = 0
 208              		@ frame_needed = 0, uses_anonymous_args = 0
 209              		@ link register save eliminated.
 244:../../Drivers/STM32L5xx_HAL_Driver/Src/stm32l5xx_hal_pwr_ex.c ****   CLEAR_BIT(PWR->CR2, PWR_CR2_IOSV);
 210              		.loc 1 244 3 view .LVU22
 211 0000 024A     		ldr	r2, .L20
 212 0002 5368     		ldr	r3, [r2, #4]
 213 0004 23F40073 		bic	r3, r3, #512
 214 0008 5360     		str	r3, [r2, #4]
 245:../../Drivers/STM32L5xx_HAL_Driver/Src/stm32l5xx_hal_pwr_ex.c **** }
 215              		.loc 1 245 1 is_stmt 0 view .LVU23
 216 000a 7047     		bx	lr
 217              	.L21:
 218              		.align	2
 219              	.L20:
 220 000c 00700040 		.word	1073770496
 221              		.cfi_endproc
 222              	.LFE159:
 224              		.section	.text.HAL_PWREx_EnableGPIOPullUp,"ax",%progbits
 225              		.align	1
ARM GAS  /tmp/ccUwd8WC.s 			page 9


 226              		.global	HAL_PWREx_EnableGPIOPullUp
 227              		.syntax unified
 228              		.thumb
 229              		.thumb_func
 231              	HAL_PWREx_EnableGPIOPullUp:
 232              	.LVL1:
 233              	.LFB160:
 246:../../Drivers/STM32L5xx_HAL_Driver/Src/stm32l5xx_hal_pwr_ex.c **** 
 247:../../Drivers/STM32L5xx_HAL_Driver/Src/stm32l5xx_hal_pwr_ex.c **** /**
 248:../../Drivers/STM32L5xx_HAL_Driver/Src/stm32l5xx_hal_pwr_ex.c ****   * @brief Enable GPIO pull-up state in Standby and Shutdown modes.
 249:../../Drivers/STM32L5xx_HAL_Driver/Src/stm32l5xx_hal_pwr_ex.c ****   * @note  Set the relevant PUy bits of PWR_PUCRx register to configure the I/O in
 250:../../Drivers/STM32L5xx_HAL_Driver/Src/stm32l5xx_hal_pwr_ex.c ****   *        pull-up state in Standby and Shutdown modes.
 251:../../Drivers/STM32L5xx_HAL_Driver/Src/stm32l5xx_hal_pwr_ex.c ****   * @note  This state is effective in Standby and Shutdown modes only if APC bit
 252:../../Drivers/STM32L5xx_HAL_Driver/Src/stm32l5xx_hal_pwr_ex.c ****   *        is set through HAL_PWREx_EnablePullUpPullDownConfig() API.
 253:../../Drivers/STM32L5xx_HAL_Driver/Src/stm32l5xx_hal_pwr_ex.c ****   * @note  The configuration is lost when exiting the Shutdown mode due to the
 254:../../Drivers/STM32L5xx_HAL_Driver/Src/stm32l5xx_hal_pwr_ex.c ****   *        power-on reset, maintained when exiting the Standby mode.
 255:../../Drivers/STM32L5xx_HAL_Driver/Src/stm32l5xx_hal_pwr_ex.c ****   * @note  To avoid any conflict at Standby and Shutdown modes exits, the corresponding
 256:../../Drivers/STM32L5xx_HAL_Driver/Src/stm32l5xx_hal_pwr_ex.c ****   *        PDy bit of PWR_PDCRx register is cleared unless it is reserved.
 257:../../Drivers/STM32L5xx_HAL_Driver/Src/stm32l5xx_hal_pwr_ex.c ****   * @note  Even if a PUy bit to set is reserved, the other PUy bits entered as input
 258:../../Drivers/STM32L5xx_HAL_Driver/Src/stm32l5xx_hal_pwr_ex.c ****   *        parameter at the same time are set.
 259:../../Drivers/STM32L5xx_HAL_Driver/Src/stm32l5xx_hal_pwr_ex.c ****   * @param  GPIO specifies the IO port. This parameter can be PWR_GPIO_A, ..., PWR_GPIO_H
 260:../../Drivers/STM32L5xx_HAL_Driver/Src/stm32l5xx_hal_pwr_ex.c ****   *         (or PWR_GPIO_I depending on the devices) to select the GPIO peripheral.
 261:../../Drivers/STM32L5xx_HAL_Driver/Src/stm32l5xx_hal_pwr_ex.c ****   * @param  GPIONumber specifies the I/O pins numbers.
 262:../../Drivers/STM32L5xx_HAL_Driver/Src/stm32l5xx_hal_pwr_ex.c ****   *         This parameter can be one of the following values:
 263:../../Drivers/STM32L5xx_HAL_Driver/Src/stm32l5xx_hal_pwr_ex.c ****   *         PWR_GPIO_BIT_0, ..., PWR_GPIO_BIT_15 (except for the port where less
 264:../../Drivers/STM32L5xx_HAL_Driver/Src/stm32l5xx_hal_pwr_ex.c ****   *         I/O pins are available) or the logical OR of several of them to set
 265:../../Drivers/STM32L5xx_HAL_Driver/Src/stm32l5xx_hal_pwr_ex.c ****   *         several bits for a given port in a single API call.
 266:../../Drivers/STM32L5xx_HAL_Driver/Src/stm32l5xx_hal_pwr_ex.c ****   * @retval HAL Status
 267:../../Drivers/STM32L5xx_HAL_Driver/Src/stm32l5xx_hal_pwr_ex.c ****   */
 268:../../Drivers/STM32L5xx_HAL_Driver/Src/stm32l5xx_hal_pwr_ex.c **** HAL_StatusTypeDef HAL_PWREx_EnableGPIOPullUp(uint32_t GPIO, uint32_t GPIONumber)
 269:../../Drivers/STM32L5xx_HAL_Driver/Src/stm32l5xx_hal_pwr_ex.c **** {
 234              		.loc 1 269 1 is_stmt 1 view -0
 235              		.cfi_startproc
 236              		@ args = 0, pretend = 0, frame = 0
 237              		@ frame_needed = 0, uses_anonymous_args = 0
 238              		@ link register save eliminated.
 270:../../Drivers/STM32L5xx_HAL_Driver/Src/stm32l5xx_hal_pwr_ex.c ****   HAL_StatusTypeDef status = HAL_OK;
 239              		.loc 1 270 3 view .LVU25
 271:../../Drivers/STM32L5xx_HAL_Driver/Src/stm32l5xx_hal_pwr_ex.c **** 
 272:../../Drivers/STM32L5xx_HAL_Driver/Src/stm32l5xx_hal_pwr_ex.c ****   assert_param(IS_PWR_GPIO(GPIO));
 240              		.loc 1 272 3 view .LVU26
 273:../../Drivers/STM32L5xx_HAL_Driver/Src/stm32l5xx_hal_pwr_ex.c ****   assert_param(IS_PWR_GPIO_BIT_NUMBER(GPIONumber));
 241              		.loc 1 273 3 view .LVU27
 274:../../Drivers/STM32L5xx_HAL_Driver/Src/stm32l5xx_hal_pwr_ex.c **** 
 275:../../Drivers/STM32L5xx_HAL_Driver/Src/stm32l5xx_hal_pwr_ex.c ****   switch (GPIO)
 242              		.loc 1 275 3 view .LVU28
 243 0000 0728     		cmp	r0, #7
 244 0002 5DD8     		bhi	.L33
 245 0004 DFE800F0 		tbb	[pc, r0]
 246              	.L25:
 247 0008 04       		.byte	(.L32-.L25)/2
 248 0009 12       		.byte	(.L31-.L25)/2
 249 000a 1E       		.byte	(.L30-.L25)/2
 250 000b 28       		.byte	(.L29-.L25)/2
 251 000c 32       		.byte	(.L28-.L25)/2
 252 000d 3C       		.byte	(.L27-.L25)/2
 253 000e 46       		.byte	(.L26-.L25)/2
ARM GAS  /tmp/ccUwd8WC.s 			page 10


 254 000f 50       		.byte	(.L24-.L25)/2
 255              		.p2align 1
 256              	.L32:
 276:../../Drivers/STM32L5xx_HAL_Driver/Src/stm32l5xx_hal_pwr_ex.c ****   {
 277:../../Drivers/STM32L5xx_HAL_Driver/Src/stm32l5xx_hal_pwr_ex.c ****     case PWR_GPIO_A:
 278:../../Drivers/STM32L5xx_HAL_Driver/Src/stm32l5xx_hal_pwr_ex.c ****       SET_BIT(PWR->PUCRA, (GPIONumber & (~(PWR_GPIO_BIT_14))));
 257              		.loc 1 278 7 view .LVU29
 258 0010 2C4B     		ldr	r3, .L34
 259 0012 1A6A     		ldr	r2, [r3, #32]
 260 0014 21F48040 		bic	r0, r1, #16384
 261              	.LVL2:
 262              		.loc 1 278 7 is_stmt 0 view .LVU30
 263 0018 0243     		orrs	r2, r2, r0
 264 001a 1A62     		str	r2, [r3, #32]
 279:../../Drivers/STM32L5xx_HAL_Driver/Src/stm32l5xx_hal_pwr_ex.c ****       CLEAR_BIT(PWR->PDCRA, (GPIONumber & (~(PWR_GPIO_BIT_13 | PWR_GPIO_BIT_15))));
 265              		.loc 1 279 7 is_stmt 1 view .LVU31
 266 001c 5A6A     		ldr	r2, [r3, #36]
 267 001e 21F42041 		bic	r1, r1, #40960
 268              	.LVL3:
 269              		.loc 1 279 7 is_stmt 0 view .LVU32
 270 0022 22EA0102 		bic	r2, r2, r1
 271 0026 5A62     		str	r2, [r3, #36]
 280:../../Drivers/STM32L5xx_HAL_Driver/Src/stm32l5xx_hal_pwr_ex.c ****       break;
 272              		.loc 1 280 7 is_stmt 1 view .LVU33
 270:../../Drivers/STM32L5xx_HAL_Driver/Src/stm32l5xx_hal_pwr_ex.c **** 
 273              		.loc 1 270 21 is_stmt 0 view .LVU34
 274 0028 0020     		movs	r0, #0
 275              		.loc 1 280 7 view .LVU35
 276 002a 7047     		bx	lr
 277              	.LVL4:
 278              	.L31:
 281:../../Drivers/STM32L5xx_HAL_Driver/Src/stm32l5xx_hal_pwr_ex.c ****     case PWR_GPIO_B:
 282:../../Drivers/STM32L5xx_HAL_Driver/Src/stm32l5xx_hal_pwr_ex.c ****       SET_BIT(PWR->PUCRB, GPIONumber);
 279              		.loc 1 282 7 is_stmt 1 view .LVU36
 280 002c 254B     		ldr	r3, .L34
 281 002e 9A6A     		ldr	r2, [r3, #40]
 282 0030 0A43     		orrs	r2, r2, r1
 283 0032 9A62     		str	r2, [r3, #40]
 283:../../Drivers/STM32L5xx_HAL_Driver/Src/stm32l5xx_hal_pwr_ex.c ****       CLEAR_BIT(PWR->PDCRB, (GPIONumber & (~(PWR_GPIO_BIT_4))));
 284              		.loc 1 283 7 view .LVU37
 285 0034 DA6A     		ldr	r2, [r3, #44]
 286 0036 21F01001 		bic	r1, r1, #16
 287              	.LVL5:
 288              		.loc 1 283 7 is_stmt 0 view .LVU38
 289 003a 22EA0102 		bic	r2, r2, r1
 290 003e DA62     		str	r2, [r3, #44]
 284:../../Drivers/STM32L5xx_HAL_Driver/Src/stm32l5xx_hal_pwr_ex.c ****       break;
 291              		.loc 1 284 7 is_stmt 1 view .LVU39
 270:../../Drivers/STM32L5xx_HAL_Driver/Src/stm32l5xx_hal_pwr_ex.c **** 
 292              		.loc 1 270 21 is_stmt 0 view .LVU40
 293 0040 0020     		movs	r0, #0
 294              	.LVL6:
 295              		.loc 1 284 7 view .LVU41
 296 0042 7047     		bx	lr
 297              	.LVL7:
 298              	.L30:
 285:../../Drivers/STM32L5xx_HAL_Driver/Src/stm32l5xx_hal_pwr_ex.c ****     case PWR_GPIO_C:
ARM GAS  /tmp/ccUwd8WC.s 			page 11


 286:../../Drivers/STM32L5xx_HAL_Driver/Src/stm32l5xx_hal_pwr_ex.c ****       SET_BIT(PWR->PUCRC, GPIONumber);
 299              		.loc 1 286 7 is_stmt 1 view .LVU42
 300 0044 1F4B     		ldr	r3, .L34
 301 0046 1A6B     		ldr	r2, [r3, #48]
 302 0048 0A43     		orrs	r2, r2, r1
 303 004a 1A63     		str	r2, [r3, #48]
 287:../../Drivers/STM32L5xx_HAL_Driver/Src/stm32l5xx_hal_pwr_ex.c ****       CLEAR_BIT(PWR->PDCRC, GPIONumber);
 304              		.loc 1 287 7 view .LVU43
 305 004c 5A6B     		ldr	r2, [r3, #52]
 306 004e 22EA0102 		bic	r2, r2, r1
 307 0052 5A63     		str	r2, [r3, #52]
 288:../../Drivers/STM32L5xx_HAL_Driver/Src/stm32l5xx_hal_pwr_ex.c ****       break;
 308              		.loc 1 288 7 view .LVU44
 270:../../Drivers/STM32L5xx_HAL_Driver/Src/stm32l5xx_hal_pwr_ex.c **** 
 309              		.loc 1 270 21 is_stmt 0 view .LVU45
 310 0054 0020     		movs	r0, #0
 311              	.LVL8:
 312              		.loc 1 288 7 view .LVU46
 313 0056 7047     		bx	lr
 314              	.LVL9:
 315              	.L29:
 289:../../Drivers/STM32L5xx_HAL_Driver/Src/stm32l5xx_hal_pwr_ex.c ****     case PWR_GPIO_D:
 290:../../Drivers/STM32L5xx_HAL_Driver/Src/stm32l5xx_hal_pwr_ex.c ****       SET_BIT(PWR->PUCRD, GPIONumber);
 316              		.loc 1 290 7 is_stmt 1 view .LVU47
 317 0058 1A4B     		ldr	r3, .L34
 318 005a 9A6B     		ldr	r2, [r3, #56]
 319 005c 0A43     		orrs	r2, r2, r1
 320 005e 9A63     		str	r2, [r3, #56]
 291:../../Drivers/STM32L5xx_HAL_Driver/Src/stm32l5xx_hal_pwr_ex.c ****       CLEAR_BIT(PWR->PDCRD, GPIONumber);
 321              		.loc 1 291 7 view .LVU48
 322 0060 DA6B     		ldr	r2, [r3, #60]
 323 0062 22EA0102 		bic	r2, r2, r1
 324 0066 DA63     		str	r2, [r3, #60]
 292:../../Drivers/STM32L5xx_HAL_Driver/Src/stm32l5xx_hal_pwr_ex.c ****       break;
 325              		.loc 1 292 7 view .LVU49
 270:../../Drivers/STM32L5xx_HAL_Driver/Src/stm32l5xx_hal_pwr_ex.c **** 
 326              		.loc 1 270 21 is_stmt 0 view .LVU50
 327 0068 0020     		movs	r0, #0
 328              	.LVL10:
 329              		.loc 1 292 7 view .LVU51
 330 006a 7047     		bx	lr
 331              	.LVL11:
 332              	.L28:
 293:../../Drivers/STM32L5xx_HAL_Driver/Src/stm32l5xx_hal_pwr_ex.c ****     case PWR_GPIO_E:
 294:../../Drivers/STM32L5xx_HAL_Driver/Src/stm32l5xx_hal_pwr_ex.c ****       SET_BIT(PWR->PUCRE, GPIONumber);
 333              		.loc 1 294 7 is_stmt 1 view .LVU52
 334 006c 154B     		ldr	r3, .L34
 335 006e 1A6C     		ldr	r2, [r3, #64]
 336 0070 0A43     		orrs	r2, r2, r1
 337 0072 1A64     		str	r2, [r3, #64]
 295:../../Drivers/STM32L5xx_HAL_Driver/Src/stm32l5xx_hal_pwr_ex.c ****       CLEAR_BIT(PWR->PDCRE, GPIONumber);
 338              		.loc 1 295 7 view .LVU53
 339 0074 5A6C     		ldr	r2, [r3, #68]
 340 0076 22EA0102 		bic	r2, r2, r1
 341 007a 5A64     		str	r2, [r3, #68]
 296:../../Drivers/STM32L5xx_HAL_Driver/Src/stm32l5xx_hal_pwr_ex.c ****       break;
 342              		.loc 1 296 7 view .LVU54
ARM GAS  /tmp/ccUwd8WC.s 			page 12


 270:../../Drivers/STM32L5xx_HAL_Driver/Src/stm32l5xx_hal_pwr_ex.c **** 
 343              		.loc 1 270 21 is_stmt 0 view .LVU55
 344 007c 0020     		movs	r0, #0
 345              	.LVL12:
 346              		.loc 1 296 7 view .LVU56
 347 007e 7047     		bx	lr
 348              	.LVL13:
 349              	.L27:
 297:../../Drivers/STM32L5xx_HAL_Driver/Src/stm32l5xx_hal_pwr_ex.c ****     case PWR_GPIO_F:
 298:../../Drivers/STM32L5xx_HAL_Driver/Src/stm32l5xx_hal_pwr_ex.c ****       SET_BIT(PWR->PUCRF, GPIONumber);
 350              		.loc 1 298 7 is_stmt 1 view .LVU57
 351 0080 104B     		ldr	r3, .L34
 352 0082 9A6C     		ldr	r2, [r3, #72]
 353 0084 0A43     		orrs	r2, r2, r1
 354 0086 9A64     		str	r2, [r3, #72]
 299:../../Drivers/STM32L5xx_HAL_Driver/Src/stm32l5xx_hal_pwr_ex.c ****       CLEAR_BIT(PWR->PDCRF, GPIONumber);
 355              		.loc 1 299 7 view .LVU58
 356 0088 DA6C     		ldr	r2, [r3, #76]
 357 008a 22EA0102 		bic	r2, r2, r1
 358 008e DA64     		str	r2, [r3, #76]
 300:../../Drivers/STM32L5xx_HAL_Driver/Src/stm32l5xx_hal_pwr_ex.c ****       break;
 359              		.loc 1 300 7 view .LVU59
 270:../../Drivers/STM32L5xx_HAL_Driver/Src/stm32l5xx_hal_pwr_ex.c **** 
 360              		.loc 1 270 21 is_stmt 0 view .LVU60
 361 0090 0020     		movs	r0, #0
 362              	.LVL14:
 363              		.loc 1 300 7 view .LVU61
 364 0092 7047     		bx	lr
 365              	.LVL15:
 366              	.L26:
 301:../../Drivers/STM32L5xx_HAL_Driver/Src/stm32l5xx_hal_pwr_ex.c ****     case PWR_GPIO_G:
 302:../../Drivers/STM32L5xx_HAL_Driver/Src/stm32l5xx_hal_pwr_ex.c ****       SET_BIT(PWR->PUCRG, GPIONumber);
 367              		.loc 1 302 7 is_stmt 1 view .LVU62
 368 0094 0B4B     		ldr	r3, .L34
 369 0096 1A6D     		ldr	r2, [r3, #80]
 370 0098 0A43     		orrs	r2, r2, r1
 371 009a 1A65     		str	r2, [r3, #80]
 303:../../Drivers/STM32L5xx_HAL_Driver/Src/stm32l5xx_hal_pwr_ex.c ****       CLEAR_BIT(PWR->PDCRG, GPIONumber);
 372              		.loc 1 303 7 view .LVU63
 373 009c 5A6D     		ldr	r2, [r3, #84]
 374 009e 22EA0102 		bic	r2, r2, r1
 375 00a2 5A65     		str	r2, [r3, #84]
 304:../../Drivers/STM32L5xx_HAL_Driver/Src/stm32l5xx_hal_pwr_ex.c ****       break;
 376              		.loc 1 304 7 view .LVU64
 270:../../Drivers/STM32L5xx_HAL_Driver/Src/stm32l5xx_hal_pwr_ex.c **** 
 377              		.loc 1 270 21 is_stmt 0 view .LVU65
 378 00a4 0020     		movs	r0, #0
 379              	.LVL16:
 380              		.loc 1 304 7 view .LVU66
 381 00a6 7047     		bx	lr
 382              	.LVL17:
 383              	.L24:
 305:../../Drivers/STM32L5xx_HAL_Driver/Src/stm32l5xx_hal_pwr_ex.c ****     case PWR_GPIO_H:
 306:../../Drivers/STM32L5xx_HAL_Driver/Src/stm32l5xx_hal_pwr_ex.c ****       SET_BIT(PWR->PUCRH, (GPIONumber & PWR_PORTH_AVAILABLE_PINS));
 384              		.loc 1 306 7 is_stmt 1 view .LVU67
 385 00a8 064B     		ldr	r3, .L34
 386 00aa 9A6D     		ldr	r2, [r3, #88]
ARM GAS  /tmp/ccUwd8WC.s 			page 13


 387 00ac 01F00B01 		and	r1, r1, #11
 388              	.LVL18:
 389              		.loc 1 306 7 is_stmt 0 view .LVU68
 390 00b0 0A43     		orrs	r2, r2, r1
 391 00b2 9A65     		str	r2, [r3, #88]
 307:../../Drivers/STM32L5xx_HAL_Driver/Src/stm32l5xx_hal_pwr_ex.c ****       CLEAR_BIT(PWR->PDCRH, (GPIONumber & PWR_PORTH_AVAILABLE_PINS));
 392              		.loc 1 307 7 is_stmt 1 view .LVU69
 393 00b4 DA6D     		ldr	r2, [r3, #92]
 394 00b6 22EA0102 		bic	r2, r2, r1
 395 00ba DA65     		str	r2, [r3, #92]
 308:../../Drivers/STM32L5xx_HAL_Driver/Src/stm32l5xx_hal_pwr_ex.c ****       break;
 396              		.loc 1 308 7 view .LVU70
 270:../../Drivers/STM32L5xx_HAL_Driver/Src/stm32l5xx_hal_pwr_ex.c **** 
 397              		.loc 1 270 21 is_stmt 0 view .LVU71
 398 00bc 0020     		movs	r0, #0
 399              	.LVL19:
 400              		.loc 1 308 7 view .LVU72
 401 00be 7047     		bx	lr
 402              	.LVL20:
 403              	.L33:
 275:../../Drivers/STM32L5xx_HAL_Driver/Src/stm32l5xx_hal_pwr_ex.c ****   {
 404              		.loc 1 275 3 view .LVU73
 405 00c0 0120     		movs	r0, #1
 406              	.LVL21:
 309:../../Drivers/STM32L5xx_HAL_Driver/Src/stm32l5xx_hal_pwr_ex.c ****     default:
 310:../../Drivers/STM32L5xx_HAL_Driver/Src/stm32l5xx_hal_pwr_ex.c ****       status = HAL_ERROR;
 311:../../Drivers/STM32L5xx_HAL_Driver/Src/stm32l5xx_hal_pwr_ex.c ****       break;
 312:../../Drivers/STM32L5xx_HAL_Driver/Src/stm32l5xx_hal_pwr_ex.c ****   }
 313:../../Drivers/STM32L5xx_HAL_Driver/Src/stm32l5xx_hal_pwr_ex.c **** 
 314:../../Drivers/STM32L5xx_HAL_Driver/Src/stm32l5xx_hal_pwr_ex.c ****   return status;
 407              		.loc 1 314 3 is_stmt 1 view .LVU74
 315:../../Drivers/STM32L5xx_HAL_Driver/Src/stm32l5xx_hal_pwr_ex.c **** }
 408              		.loc 1 315 1 is_stmt 0 view .LVU75
 409 00c2 7047     		bx	lr
 410              	.L35:
 411              		.align	2
 412              	.L34:
 413 00c4 00700040 		.word	1073770496
 414              		.cfi_endproc
 415              	.LFE160:
 417              		.section	.text.HAL_PWREx_DisableGPIOPullUp,"ax",%progbits
 418              		.align	1
 419              		.global	HAL_PWREx_DisableGPIOPullUp
 420              		.syntax unified
 421              		.thumb
 422              		.thumb_func
 424              	HAL_PWREx_DisableGPIOPullUp:
 425              	.LVL22:
 426              	.LFB161:
 316:../../Drivers/STM32L5xx_HAL_Driver/Src/stm32l5xx_hal_pwr_ex.c **** 
 317:../../Drivers/STM32L5xx_HAL_Driver/Src/stm32l5xx_hal_pwr_ex.c **** 
 318:../../Drivers/STM32L5xx_HAL_Driver/Src/stm32l5xx_hal_pwr_ex.c **** /**
 319:../../Drivers/STM32L5xx_HAL_Driver/Src/stm32l5xx_hal_pwr_ex.c ****   * @brief Disable GPIO pull-up state in Standby mode and Shutdown modes.
 320:../../Drivers/STM32L5xx_HAL_Driver/Src/stm32l5xx_hal_pwr_ex.c ****   * @note  Reset the relevant PUy bits of PWR_PUCRx register used to configure the I/O
 321:../../Drivers/STM32L5xx_HAL_Driver/Src/stm32l5xx_hal_pwr_ex.c ****   *        in pull-up state in Standby and Shutdown modes.
 322:../../Drivers/STM32L5xx_HAL_Driver/Src/stm32l5xx_hal_pwr_ex.c ****   * @note  Even if a PUy bit to reset is reserved, the other PUy bits entered as input
 323:../../Drivers/STM32L5xx_HAL_Driver/Src/stm32l5xx_hal_pwr_ex.c ****   *        parameter at the same time are reset.
ARM GAS  /tmp/ccUwd8WC.s 			page 14


 324:../../Drivers/STM32L5xx_HAL_Driver/Src/stm32l5xx_hal_pwr_ex.c ****   * @param  GPIO specifies the IO port. This parameter can be PWR_GPIO_A, ..., PWR_GPIO_H
 325:../../Drivers/STM32L5xx_HAL_Driver/Src/stm32l5xx_hal_pwr_ex.c ****   *          (or PWR_GPIO_I depending on the devices) to select the GPIO peripheral.
 326:../../Drivers/STM32L5xx_HAL_Driver/Src/stm32l5xx_hal_pwr_ex.c ****   * @param  GPIONumber specifies the I/O pins numbers.
 327:../../Drivers/STM32L5xx_HAL_Driver/Src/stm32l5xx_hal_pwr_ex.c ****   *         This parameter can be one of the following values:
 328:../../Drivers/STM32L5xx_HAL_Driver/Src/stm32l5xx_hal_pwr_ex.c ****   *         PWR_GPIO_BIT_0, ..., PWR_GPIO_BIT_15 (except for the port where less
 329:../../Drivers/STM32L5xx_HAL_Driver/Src/stm32l5xx_hal_pwr_ex.c ****   *         I/O pins are available) or the logical OR of several of them to reset
 330:../../Drivers/STM32L5xx_HAL_Driver/Src/stm32l5xx_hal_pwr_ex.c ****   *         several bits for a given port in a single API call.
 331:../../Drivers/STM32L5xx_HAL_Driver/Src/stm32l5xx_hal_pwr_ex.c ****   * @retval HAL Status
 332:../../Drivers/STM32L5xx_HAL_Driver/Src/stm32l5xx_hal_pwr_ex.c ****   */
 333:../../Drivers/STM32L5xx_HAL_Driver/Src/stm32l5xx_hal_pwr_ex.c **** HAL_StatusTypeDef HAL_PWREx_DisableGPIOPullUp(uint32_t GPIO, uint32_t GPIONumber)
 334:../../Drivers/STM32L5xx_HAL_Driver/Src/stm32l5xx_hal_pwr_ex.c **** {
 427              		.loc 1 334 1 is_stmt 1 view -0
 428              		.cfi_startproc
 429              		@ args = 0, pretend = 0, frame = 0
 430              		@ frame_needed = 0, uses_anonymous_args = 0
 431              		@ link register save eliminated.
 335:../../Drivers/STM32L5xx_HAL_Driver/Src/stm32l5xx_hal_pwr_ex.c ****   HAL_StatusTypeDef status = HAL_OK;
 432              		.loc 1 335 3 view .LVU77
 336:../../Drivers/STM32L5xx_HAL_Driver/Src/stm32l5xx_hal_pwr_ex.c **** 
 337:../../Drivers/STM32L5xx_HAL_Driver/Src/stm32l5xx_hal_pwr_ex.c ****   assert_param(IS_PWR_GPIO(GPIO));
 433              		.loc 1 337 3 view .LVU78
 338:../../Drivers/STM32L5xx_HAL_Driver/Src/stm32l5xx_hal_pwr_ex.c ****   assert_param(IS_PWR_GPIO_BIT_NUMBER(GPIONumber));
 434              		.loc 1 338 3 view .LVU79
 339:../../Drivers/STM32L5xx_HAL_Driver/Src/stm32l5xx_hal_pwr_ex.c **** 
 340:../../Drivers/STM32L5xx_HAL_Driver/Src/stm32l5xx_hal_pwr_ex.c ****   switch (GPIO)
 435              		.loc 1 340 3 view .LVU80
 436 0000 0728     		cmp	r0, #7
 437 0002 41D8     		bhi	.L47
 438 0004 DFE800F0 		tbb	[pc, r0]
 439              	.L39:
 440 0008 04       		.byte	(.L46-.L39)/2
 441 0009 0D       		.byte	(.L45-.L39)/2
 442 000a 14       		.byte	(.L44-.L39)/2
 443 000b 1B       		.byte	(.L43-.L39)/2
 444 000c 22       		.byte	(.L42-.L39)/2
 445 000d 29       		.byte	(.L41-.L39)/2
 446 000e 30       		.byte	(.L40-.L39)/2
 447 000f 37       		.byte	(.L38-.L39)/2
 448              		.p2align 1
 449              	.L46:
 341:../../Drivers/STM32L5xx_HAL_Driver/Src/stm32l5xx_hal_pwr_ex.c ****   {
 342:../../Drivers/STM32L5xx_HAL_Driver/Src/stm32l5xx_hal_pwr_ex.c ****     case PWR_GPIO_A:
 343:../../Drivers/STM32L5xx_HAL_Driver/Src/stm32l5xx_hal_pwr_ex.c ****       CLEAR_BIT(PWR->PUCRA, (GPIONumber & (~(PWR_GPIO_BIT_14))));
 450              		.loc 1 343 7 view .LVU81
 451 0010 1E4A     		ldr	r2, .L48
 452 0012 136A     		ldr	r3, [r2, #32]
 453 0014 21F48041 		bic	r1, r1, #16384
 454              	.LVL23:
 455              		.loc 1 343 7 is_stmt 0 view .LVU82
 456 0018 23EA0101 		bic	r1, r3, r1
 457 001c 1162     		str	r1, [r2, #32]
 344:../../Drivers/STM32L5xx_HAL_Driver/Src/stm32l5xx_hal_pwr_ex.c ****       break;
 458              		.loc 1 344 7 is_stmt 1 view .LVU83
 335:../../Drivers/STM32L5xx_HAL_Driver/Src/stm32l5xx_hal_pwr_ex.c **** 
 459              		.loc 1 335 21 is_stmt 0 view .LVU84
 460 001e 0020     		movs	r0, #0
 461              	.LVL24:
ARM GAS  /tmp/ccUwd8WC.s 			page 15


 462              		.loc 1 344 7 view .LVU85
 463 0020 7047     		bx	lr
 464              	.LVL25:
 465              	.L45:
 345:../../Drivers/STM32L5xx_HAL_Driver/Src/stm32l5xx_hal_pwr_ex.c ****     case PWR_GPIO_B:
 346:../../Drivers/STM32L5xx_HAL_Driver/Src/stm32l5xx_hal_pwr_ex.c ****       CLEAR_BIT(PWR->PUCRB, GPIONumber);
 466              		.loc 1 346 7 is_stmt 1 view .LVU86
 467 0022 1A4A     		ldr	r2, .L48
 468 0024 936A     		ldr	r3, [r2, #40]
 469 0026 23EA0103 		bic	r3, r3, r1
 470 002a 9362     		str	r3, [r2, #40]
 347:../../Drivers/STM32L5xx_HAL_Driver/Src/stm32l5xx_hal_pwr_ex.c ****       break;
 471              		.loc 1 347 7 view .LVU87
 335:../../Drivers/STM32L5xx_HAL_Driver/Src/stm32l5xx_hal_pwr_ex.c **** 
 472              		.loc 1 335 21 is_stmt 0 view .LVU88
 473 002c 0020     		movs	r0, #0
 474              	.LVL26:
 475              		.loc 1 347 7 view .LVU89
 476 002e 7047     		bx	lr
 477              	.LVL27:
 478              	.L44:
 348:../../Drivers/STM32L5xx_HAL_Driver/Src/stm32l5xx_hal_pwr_ex.c ****     case PWR_GPIO_C:
 349:../../Drivers/STM32L5xx_HAL_Driver/Src/stm32l5xx_hal_pwr_ex.c ****       CLEAR_BIT(PWR->PUCRC, GPIONumber);
 479              		.loc 1 349 7 is_stmt 1 view .LVU90
 480 0030 164A     		ldr	r2, .L48
 481 0032 136B     		ldr	r3, [r2, #48]
 482 0034 23EA0103 		bic	r3, r3, r1
 483 0038 1363     		str	r3, [r2, #48]
 350:../../Drivers/STM32L5xx_HAL_Driver/Src/stm32l5xx_hal_pwr_ex.c ****       break;
 484              		.loc 1 350 7 view .LVU91
 335:../../Drivers/STM32L5xx_HAL_Driver/Src/stm32l5xx_hal_pwr_ex.c **** 
 485              		.loc 1 335 21 is_stmt 0 view .LVU92
 486 003a 0020     		movs	r0, #0
 487              	.LVL28:
 488              		.loc 1 350 7 view .LVU93
 489 003c 7047     		bx	lr
 490              	.LVL29:
 491              	.L43:
 351:../../Drivers/STM32L5xx_HAL_Driver/Src/stm32l5xx_hal_pwr_ex.c ****     case PWR_GPIO_D:
 352:../../Drivers/STM32L5xx_HAL_Driver/Src/stm32l5xx_hal_pwr_ex.c ****       CLEAR_BIT(PWR->PUCRD, GPIONumber);
 492              		.loc 1 352 7 is_stmt 1 view .LVU94
 493 003e 134A     		ldr	r2, .L48
 494 0040 936B     		ldr	r3, [r2, #56]
 495 0042 23EA0103 		bic	r3, r3, r1
 496 0046 9363     		str	r3, [r2, #56]
 353:../../Drivers/STM32L5xx_HAL_Driver/Src/stm32l5xx_hal_pwr_ex.c ****       break;
 497              		.loc 1 353 7 view .LVU95
 335:../../Drivers/STM32L5xx_HAL_Driver/Src/stm32l5xx_hal_pwr_ex.c **** 
 498              		.loc 1 335 21 is_stmt 0 view .LVU96
 499 0048 0020     		movs	r0, #0
 500              	.LVL30:
 501              		.loc 1 353 7 view .LVU97
 502 004a 7047     		bx	lr
 503              	.LVL31:
 504              	.L42:
 354:../../Drivers/STM32L5xx_HAL_Driver/Src/stm32l5xx_hal_pwr_ex.c ****     case PWR_GPIO_E:
 355:../../Drivers/STM32L5xx_HAL_Driver/Src/stm32l5xx_hal_pwr_ex.c ****       CLEAR_BIT(PWR->PUCRE, GPIONumber);
ARM GAS  /tmp/ccUwd8WC.s 			page 16


 505              		.loc 1 355 7 is_stmt 1 view .LVU98
 506 004c 0F4A     		ldr	r2, .L48
 507 004e 136C     		ldr	r3, [r2, #64]
 508 0050 23EA0103 		bic	r3, r3, r1
 509 0054 1364     		str	r3, [r2, #64]
 356:../../Drivers/STM32L5xx_HAL_Driver/Src/stm32l5xx_hal_pwr_ex.c ****       break;
 510              		.loc 1 356 7 view .LVU99
 335:../../Drivers/STM32L5xx_HAL_Driver/Src/stm32l5xx_hal_pwr_ex.c **** 
 511              		.loc 1 335 21 is_stmt 0 view .LVU100
 512 0056 0020     		movs	r0, #0
 513              	.LVL32:
 514              		.loc 1 356 7 view .LVU101
 515 0058 7047     		bx	lr
 516              	.LVL33:
 517              	.L41:
 357:../../Drivers/STM32L5xx_HAL_Driver/Src/stm32l5xx_hal_pwr_ex.c ****     case PWR_GPIO_F:
 358:../../Drivers/STM32L5xx_HAL_Driver/Src/stm32l5xx_hal_pwr_ex.c ****       CLEAR_BIT(PWR->PUCRF, GPIONumber);
 518              		.loc 1 358 7 is_stmt 1 view .LVU102
 519 005a 0C4A     		ldr	r2, .L48
 520 005c 936C     		ldr	r3, [r2, #72]
 521 005e 23EA0103 		bic	r3, r3, r1
 522 0062 9364     		str	r3, [r2, #72]
 359:../../Drivers/STM32L5xx_HAL_Driver/Src/stm32l5xx_hal_pwr_ex.c ****       break;
 523              		.loc 1 359 7 view .LVU103
 335:../../Drivers/STM32L5xx_HAL_Driver/Src/stm32l5xx_hal_pwr_ex.c **** 
 524              		.loc 1 335 21 is_stmt 0 view .LVU104
 525 0064 0020     		movs	r0, #0
 526              	.LVL34:
 527              		.loc 1 359 7 view .LVU105
 528 0066 7047     		bx	lr
 529              	.LVL35:
 530              	.L40:
 360:../../Drivers/STM32L5xx_HAL_Driver/Src/stm32l5xx_hal_pwr_ex.c ****     case PWR_GPIO_G:
 361:../../Drivers/STM32L5xx_HAL_Driver/Src/stm32l5xx_hal_pwr_ex.c ****       CLEAR_BIT(PWR->PUCRG, GPIONumber);
 531              		.loc 1 361 7 is_stmt 1 view .LVU106
 532 0068 084A     		ldr	r2, .L48
 533 006a 136D     		ldr	r3, [r2, #80]
 534 006c 23EA0103 		bic	r3, r3, r1
 535 0070 1365     		str	r3, [r2, #80]
 362:../../Drivers/STM32L5xx_HAL_Driver/Src/stm32l5xx_hal_pwr_ex.c ****       break;
 536              		.loc 1 362 7 view .LVU107
 335:../../Drivers/STM32L5xx_HAL_Driver/Src/stm32l5xx_hal_pwr_ex.c **** 
 537              		.loc 1 335 21 is_stmt 0 view .LVU108
 538 0072 0020     		movs	r0, #0
 539              	.LVL36:
 540              		.loc 1 362 7 view .LVU109
 541 0074 7047     		bx	lr
 542              	.LVL37:
 543              	.L38:
 363:../../Drivers/STM32L5xx_HAL_Driver/Src/stm32l5xx_hal_pwr_ex.c ****     case PWR_GPIO_H:
 364:../../Drivers/STM32L5xx_HAL_Driver/Src/stm32l5xx_hal_pwr_ex.c ****       CLEAR_BIT(PWR->PUCRH, (GPIONumber & PWR_PORTH_AVAILABLE_PINS));
 544              		.loc 1 364 7 is_stmt 1 view .LVU110
 545 0076 054A     		ldr	r2, .L48
 546 0078 936D     		ldr	r3, [r2, #88]
 547 007a 01F00B01 		and	r1, r1, #11
 548              	.LVL38:
 549              		.loc 1 364 7 is_stmt 0 view .LVU111
ARM GAS  /tmp/ccUwd8WC.s 			page 17


 550 007e 23EA0103 		bic	r3, r3, r1
 551 0082 9365     		str	r3, [r2, #88]
 365:../../Drivers/STM32L5xx_HAL_Driver/Src/stm32l5xx_hal_pwr_ex.c ****       break;
 552              		.loc 1 365 7 is_stmt 1 view .LVU112
 335:../../Drivers/STM32L5xx_HAL_Driver/Src/stm32l5xx_hal_pwr_ex.c **** 
 553              		.loc 1 335 21 is_stmt 0 view .LVU113
 554 0084 0020     		movs	r0, #0
 555              	.LVL39:
 556              		.loc 1 365 7 view .LVU114
 557 0086 7047     		bx	lr
 558              	.LVL40:
 559              	.L47:
 340:../../Drivers/STM32L5xx_HAL_Driver/Src/stm32l5xx_hal_pwr_ex.c ****   {
 560              		.loc 1 340 3 view .LVU115
 561 0088 0120     		movs	r0, #1
 562              	.LVL41:
 366:../../Drivers/STM32L5xx_HAL_Driver/Src/stm32l5xx_hal_pwr_ex.c ****     default:
 367:../../Drivers/STM32L5xx_HAL_Driver/Src/stm32l5xx_hal_pwr_ex.c ****        status = HAL_ERROR;
 368:../../Drivers/STM32L5xx_HAL_Driver/Src/stm32l5xx_hal_pwr_ex.c ****        break;
 369:../../Drivers/STM32L5xx_HAL_Driver/Src/stm32l5xx_hal_pwr_ex.c ****   }
 370:../../Drivers/STM32L5xx_HAL_Driver/Src/stm32l5xx_hal_pwr_ex.c **** 
 371:../../Drivers/STM32L5xx_HAL_Driver/Src/stm32l5xx_hal_pwr_ex.c ****   return status;
 563              		.loc 1 371 3 is_stmt 1 view .LVU116
 372:../../Drivers/STM32L5xx_HAL_Driver/Src/stm32l5xx_hal_pwr_ex.c **** }
 564              		.loc 1 372 1 is_stmt 0 view .LVU117
 565 008a 7047     		bx	lr
 566              	.L49:
 567              		.align	2
 568              	.L48:
 569 008c 00700040 		.word	1073770496
 570              		.cfi_endproc
 571              	.LFE161:
 573              		.section	.text.HAL_PWREx_EnableGPIOPullDown,"ax",%progbits
 574              		.align	1
 575              		.global	HAL_PWREx_EnableGPIOPullDown
 576              		.syntax unified
 577              		.thumb
 578              		.thumb_func
 580              	HAL_PWREx_EnableGPIOPullDown:
 581              	.LVL42:
 582              	.LFB162:
 373:../../Drivers/STM32L5xx_HAL_Driver/Src/stm32l5xx_hal_pwr_ex.c **** 
 374:../../Drivers/STM32L5xx_HAL_Driver/Src/stm32l5xx_hal_pwr_ex.c **** 
 375:../../Drivers/STM32L5xx_HAL_Driver/Src/stm32l5xx_hal_pwr_ex.c **** 
 376:../../Drivers/STM32L5xx_HAL_Driver/Src/stm32l5xx_hal_pwr_ex.c **** /**
 377:../../Drivers/STM32L5xx_HAL_Driver/Src/stm32l5xx_hal_pwr_ex.c ****   * @brief Enable GPIO pull-down state in Standby and Shutdown modes.
 378:../../Drivers/STM32L5xx_HAL_Driver/Src/stm32l5xx_hal_pwr_ex.c ****   * @note  Set the relevant PDy bits of PWR_PDCRx register to configure the I/O in
 379:../../Drivers/STM32L5xx_HAL_Driver/Src/stm32l5xx_hal_pwr_ex.c ****   *        pull-down state in Standby and Shutdown modes.
 380:../../Drivers/STM32L5xx_HAL_Driver/Src/stm32l5xx_hal_pwr_ex.c ****   * @note  This state is effective in Standby and Shutdown modes only if APC bit
 381:../../Drivers/STM32L5xx_HAL_Driver/Src/stm32l5xx_hal_pwr_ex.c ****   *        is set through HAL_PWREx_EnablePullUpPullDownConfig() API.
 382:../../Drivers/STM32L5xx_HAL_Driver/Src/stm32l5xx_hal_pwr_ex.c ****   * @note  The configuration is lost when exiting the Shutdown mode due to the
 383:../../Drivers/STM32L5xx_HAL_Driver/Src/stm32l5xx_hal_pwr_ex.c ****   *        power-on reset, maintained when exiting the Standby mode.
 384:../../Drivers/STM32L5xx_HAL_Driver/Src/stm32l5xx_hal_pwr_ex.c ****   * @note  To avoid any conflict at Standby and Shutdown modes exits, the corresponding
 385:../../Drivers/STM32L5xx_HAL_Driver/Src/stm32l5xx_hal_pwr_ex.c ****   *        PUy bit of PWR_PUCRx register is cleared unless it is reserved.
 386:../../Drivers/STM32L5xx_HAL_Driver/Src/stm32l5xx_hal_pwr_ex.c ****   * @note  Even if a PDy bit to set is reserved, the other PDy bits entered as input
 387:../../Drivers/STM32L5xx_HAL_Driver/Src/stm32l5xx_hal_pwr_ex.c ****   *        parameter at the same time are set.
 388:../../Drivers/STM32L5xx_HAL_Driver/Src/stm32l5xx_hal_pwr_ex.c ****   * @param  GPIO specifies the IO port. This parameter can be PWR_GPIO_A..PWR_GPIO_H
ARM GAS  /tmp/ccUwd8WC.s 			page 18


 389:../../Drivers/STM32L5xx_HAL_Driver/Src/stm32l5xx_hal_pwr_ex.c ****   *         (or PWR_GPIO_I depending on the devices) to select the GPIO peripheral.
 390:../../Drivers/STM32L5xx_HAL_Driver/Src/stm32l5xx_hal_pwr_ex.c ****   * @param  GPIONumber specifies the I/O pins numbers.
 391:../../Drivers/STM32L5xx_HAL_Driver/Src/stm32l5xx_hal_pwr_ex.c ****   *         This parameter can be one of the following values:
 392:../../Drivers/STM32L5xx_HAL_Driver/Src/stm32l5xx_hal_pwr_ex.c ****   *         PWR_GPIO_BIT_0, ..., PWR_GPIO_BIT_15 (except for the port where less
 393:../../Drivers/STM32L5xx_HAL_Driver/Src/stm32l5xx_hal_pwr_ex.c ****   *         I/O pins are available) or the logical OR of several of them to set
 394:../../Drivers/STM32L5xx_HAL_Driver/Src/stm32l5xx_hal_pwr_ex.c ****   *         several bits for a given port in a single API call.
 395:../../Drivers/STM32L5xx_HAL_Driver/Src/stm32l5xx_hal_pwr_ex.c ****   * @retval HAL Status
 396:../../Drivers/STM32L5xx_HAL_Driver/Src/stm32l5xx_hal_pwr_ex.c ****   */
 397:../../Drivers/STM32L5xx_HAL_Driver/Src/stm32l5xx_hal_pwr_ex.c **** HAL_StatusTypeDef HAL_PWREx_EnableGPIOPullDown(uint32_t GPIO, uint32_t GPIONumber)
 398:../../Drivers/STM32L5xx_HAL_Driver/Src/stm32l5xx_hal_pwr_ex.c **** {
 583              		.loc 1 398 1 is_stmt 1 view -0
 584              		.cfi_startproc
 585              		@ args = 0, pretend = 0, frame = 0
 586              		@ frame_needed = 0, uses_anonymous_args = 0
 587              		@ link register save eliminated.
 399:../../Drivers/STM32L5xx_HAL_Driver/Src/stm32l5xx_hal_pwr_ex.c ****   HAL_StatusTypeDef status = HAL_OK;
 588              		.loc 1 399 3 view .LVU119
 400:../../Drivers/STM32L5xx_HAL_Driver/Src/stm32l5xx_hal_pwr_ex.c **** 
 401:../../Drivers/STM32L5xx_HAL_Driver/Src/stm32l5xx_hal_pwr_ex.c ****   assert_param(IS_PWR_GPIO(GPIO));
 589              		.loc 1 401 3 view .LVU120
 402:../../Drivers/STM32L5xx_HAL_Driver/Src/stm32l5xx_hal_pwr_ex.c ****   assert_param(IS_PWR_GPIO_BIT_NUMBER(GPIONumber));
 590              		.loc 1 402 3 view .LVU121
 403:../../Drivers/STM32L5xx_HAL_Driver/Src/stm32l5xx_hal_pwr_ex.c **** 
 404:../../Drivers/STM32L5xx_HAL_Driver/Src/stm32l5xx_hal_pwr_ex.c ****   switch (GPIO)
 591              		.loc 1 404 3 view .LVU122
 592 0000 0728     		cmp	r0, #7
 593 0002 5DD8     		bhi	.L61
 594 0004 DFE800F0 		tbb	[pc, r0]
 595              	.L53:
 596 0008 04       		.byte	(.L60-.L53)/2
 597 0009 12       		.byte	(.L59-.L53)/2
 598 000a 1E       		.byte	(.L58-.L53)/2
 599 000b 28       		.byte	(.L57-.L53)/2
 600 000c 32       		.byte	(.L56-.L53)/2
 601 000d 3C       		.byte	(.L55-.L53)/2
 602 000e 46       		.byte	(.L54-.L53)/2
 603 000f 50       		.byte	(.L52-.L53)/2
 604              		.p2align 1
 605              	.L60:
 405:../../Drivers/STM32L5xx_HAL_Driver/Src/stm32l5xx_hal_pwr_ex.c ****   {
 406:../../Drivers/STM32L5xx_HAL_Driver/Src/stm32l5xx_hal_pwr_ex.c ****     case PWR_GPIO_A:
 407:../../Drivers/STM32L5xx_HAL_Driver/Src/stm32l5xx_hal_pwr_ex.c ****       SET_BIT(PWR->PDCRA, (GPIONumber & (~(PWR_GPIO_BIT_13 | PWR_GPIO_BIT_15))));
 606              		.loc 1 407 7 view .LVU123
 607 0010 2C4B     		ldr	r3, .L62
 608 0012 5A6A     		ldr	r2, [r3, #36]
 609 0014 21F42040 		bic	r0, r1, #40960
 610              	.LVL43:
 611              		.loc 1 407 7 is_stmt 0 view .LVU124
 612 0018 0243     		orrs	r2, r2, r0
 613 001a 5A62     		str	r2, [r3, #36]
 408:../../Drivers/STM32L5xx_HAL_Driver/Src/stm32l5xx_hal_pwr_ex.c ****       CLEAR_BIT(PWR->PUCRA, (GPIONumber & (~(PWR_GPIO_BIT_14))));
 614              		.loc 1 408 7 is_stmt 1 view .LVU125
 615 001c 1A6A     		ldr	r2, [r3, #32]
 616 001e 21F48041 		bic	r1, r1, #16384
 617              	.LVL44:
 618              		.loc 1 408 7 is_stmt 0 view .LVU126
 619 0022 22EA0102 		bic	r2, r2, r1
ARM GAS  /tmp/ccUwd8WC.s 			page 19


 620 0026 1A62     		str	r2, [r3, #32]
 409:../../Drivers/STM32L5xx_HAL_Driver/Src/stm32l5xx_hal_pwr_ex.c ****       break;
 621              		.loc 1 409 7 is_stmt 1 view .LVU127
 399:../../Drivers/STM32L5xx_HAL_Driver/Src/stm32l5xx_hal_pwr_ex.c **** 
 622              		.loc 1 399 21 is_stmt 0 view .LVU128
 623 0028 0020     		movs	r0, #0
 624              		.loc 1 409 7 view .LVU129
 625 002a 7047     		bx	lr
 626              	.LVL45:
 627              	.L59:
 410:../../Drivers/STM32L5xx_HAL_Driver/Src/stm32l5xx_hal_pwr_ex.c ****     case PWR_GPIO_B:
 411:../../Drivers/STM32L5xx_HAL_Driver/Src/stm32l5xx_hal_pwr_ex.c ****       SET_BIT(PWR->PDCRB, (GPIONumber & (~(PWR_GPIO_BIT_4))));
 628              		.loc 1 411 7 is_stmt 1 view .LVU130
 629 002c 254B     		ldr	r3, .L62
 630 002e DA6A     		ldr	r2, [r3, #44]
 631 0030 21F01000 		bic	r0, r1, #16
 632              	.LVL46:
 633              		.loc 1 411 7 is_stmt 0 view .LVU131
 634 0034 0243     		orrs	r2, r2, r0
 635 0036 DA62     		str	r2, [r3, #44]
 412:../../Drivers/STM32L5xx_HAL_Driver/Src/stm32l5xx_hal_pwr_ex.c ****       CLEAR_BIT(PWR->PUCRB, GPIONumber);
 636              		.loc 1 412 7 is_stmt 1 view .LVU132
 637 0038 9A6A     		ldr	r2, [r3, #40]
 638 003a 22EA0102 		bic	r2, r2, r1
 639 003e 9A62     		str	r2, [r3, #40]
 413:../../Drivers/STM32L5xx_HAL_Driver/Src/stm32l5xx_hal_pwr_ex.c ****       break;
 640              		.loc 1 413 7 view .LVU133
 399:../../Drivers/STM32L5xx_HAL_Driver/Src/stm32l5xx_hal_pwr_ex.c **** 
 641              		.loc 1 399 21 is_stmt 0 view .LVU134
 642 0040 0020     		movs	r0, #0
 643              		.loc 1 413 7 view .LVU135
 644 0042 7047     		bx	lr
 645              	.LVL47:
 646              	.L58:
 414:../../Drivers/STM32L5xx_HAL_Driver/Src/stm32l5xx_hal_pwr_ex.c ****     case PWR_GPIO_C:
 415:../../Drivers/STM32L5xx_HAL_Driver/Src/stm32l5xx_hal_pwr_ex.c ****       SET_BIT(PWR->PDCRC, GPIONumber);
 647              		.loc 1 415 7 is_stmt 1 view .LVU136
 648 0044 1F4B     		ldr	r3, .L62
 649 0046 5A6B     		ldr	r2, [r3, #52]
 650 0048 0A43     		orrs	r2, r2, r1
 651 004a 5A63     		str	r2, [r3, #52]
 416:../../Drivers/STM32L5xx_HAL_Driver/Src/stm32l5xx_hal_pwr_ex.c ****       CLEAR_BIT(PWR->PUCRC, GPIONumber);
 652              		.loc 1 416 7 view .LVU137
 653 004c 1A6B     		ldr	r2, [r3, #48]
 654 004e 22EA0102 		bic	r2, r2, r1
 655 0052 1A63     		str	r2, [r3, #48]
 417:../../Drivers/STM32L5xx_HAL_Driver/Src/stm32l5xx_hal_pwr_ex.c ****       break;
 656              		.loc 1 417 7 view .LVU138
 399:../../Drivers/STM32L5xx_HAL_Driver/Src/stm32l5xx_hal_pwr_ex.c **** 
 657              		.loc 1 399 21 is_stmt 0 view .LVU139
 658 0054 0020     		movs	r0, #0
 659              	.LVL48:
 660              		.loc 1 417 7 view .LVU140
 661 0056 7047     		bx	lr
 662              	.LVL49:
 663              	.L57:
 418:../../Drivers/STM32L5xx_HAL_Driver/Src/stm32l5xx_hal_pwr_ex.c ****     case PWR_GPIO_D:
ARM GAS  /tmp/ccUwd8WC.s 			page 20


 419:../../Drivers/STM32L5xx_HAL_Driver/Src/stm32l5xx_hal_pwr_ex.c ****       SET_BIT(PWR->PDCRD, GPIONumber);
 664              		.loc 1 419 7 is_stmt 1 view .LVU141
 665 0058 1A4B     		ldr	r3, .L62
 666 005a DA6B     		ldr	r2, [r3, #60]
 667 005c 0A43     		orrs	r2, r2, r1
 668 005e DA63     		str	r2, [r3, #60]
 420:../../Drivers/STM32L5xx_HAL_Driver/Src/stm32l5xx_hal_pwr_ex.c ****       CLEAR_BIT(PWR->PUCRD, GPIONumber);
 669              		.loc 1 420 7 view .LVU142
 670 0060 9A6B     		ldr	r2, [r3, #56]
 671 0062 22EA0102 		bic	r2, r2, r1
 672 0066 9A63     		str	r2, [r3, #56]
 421:../../Drivers/STM32L5xx_HAL_Driver/Src/stm32l5xx_hal_pwr_ex.c ****       break;
 673              		.loc 1 421 7 view .LVU143
 399:../../Drivers/STM32L5xx_HAL_Driver/Src/stm32l5xx_hal_pwr_ex.c **** 
 674              		.loc 1 399 21 is_stmt 0 view .LVU144
 675 0068 0020     		movs	r0, #0
 676              	.LVL50:
 677              		.loc 1 421 7 view .LVU145
 678 006a 7047     		bx	lr
 679              	.LVL51:
 680              	.L56:
 422:../../Drivers/STM32L5xx_HAL_Driver/Src/stm32l5xx_hal_pwr_ex.c ****     case PWR_GPIO_E:
 423:../../Drivers/STM32L5xx_HAL_Driver/Src/stm32l5xx_hal_pwr_ex.c ****       SET_BIT(PWR->PDCRE, GPIONumber);
 681              		.loc 1 423 7 is_stmt 1 view .LVU146
 682 006c 154B     		ldr	r3, .L62
 683 006e 5A6C     		ldr	r2, [r3, #68]
 684 0070 0A43     		orrs	r2, r2, r1
 685 0072 5A64     		str	r2, [r3, #68]
 424:../../Drivers/STM32L5xx_HAL_Driver/Src/stm32l5xx_hal_pwr_ex.c ****       CLEAR_BIT(PWR->PUCRE, GPIONumber);
 686              		.loc 1 424 7 view .LVU147
 687 0074 1A6C     		ldr	r2, [r3, #64]
 688 0076 22EA0102 		bic	r2, r2, r1
 689 007a 1A64     		str	r2, [r3, #64]
 425:../../Drivers/STM32L5xx_HAL_Driver/Src/stm32l5xx_hal_pwr_ex.c ****       break;
 690              		.loc 1 425 7 view .LVU148
 399:../../Drivers/STM32L5xx_HAL_Driver/Src/stm32l5xx_hal_pwr_ex.c **** 
 691              		.loc 1 399 21 is_stmt 0 view .LVU149
 692 007c 0020     		movs	r0, #0
 693              	.LVL52:
 694              		.loc 1 425 7 view .LVU150
 695 007e 7047     		bx	lr
 696              	.LVL53:
 697              	.L55:
 426:../../Drivers/STM32L5xx_HAL_Driver/Src/stm32l5xx_hal_pwr_ex.c ****     case PWR_GPIO_F:
 427:../../Drivers/STM32L5xx_HAL_Driver/Src/stm32l5xx_hal_pwr_ex.c ****       SET_BIT(PWR->PDCRF, GPIONumber);
 698              		.loc 1 427 7 is_stmt 1 view .LVU151
 699 0080 104B     		ldr	r3, .L62
 700 0082 DA6C     		ldr	r2, [r3, #76]
 701 0084 0A43     		orrs	r2, r2, r1
 702 0086 DA64     		str	r2, [r3, #76]
 428:../../Drivers/STM32L5xx_HAL_Driver/Src/stm32l5xx_hal_pwr_ex.c ****       CLEAR_BIT(PWR->PUCRF, GPIONumber);
 703              		.loc 1 428 7 view .LVU152
 704 0088 9A6C     		ldr	r2, [r3, #72]
 705 008a 22EA0102 		bic	r2, r2, r1
 706 008e 9A64     		str	r2, [r3, #72]
 429:../../Drivers/STM32L5xx_HAL_Driver/Src/stm32l5xx_hal_pwr_ex.c ****       break;
 707              		.loc 1 429 7 view .LVU153
ARM GAS  /tmp/ccUwd8WC.s 			page 21


 399:../../Drivers/STM32L5xx_HAL_Driver/Src/stm32l5xx_hal_pwr_ex.c **** 
 708              		.loc 1 399 21 is_stmt 0 view .LVU154
 709 0090 0020     		movs	r0, #0
 710              	.LVL54:
 711              		.loc 1 429 7 view .LVU155
 712 0092 7047     		bx	lr
 713              	.LVL55:
 714              	.L54:
 430:../../Drivers/STM32L5xx_HAL_Driver/Src/stm32l5xx_hal_pwr_ex.c ****     case PWR_GPIO_G:
 431:../../Drivers/STM32L5xx_HAL_Driver/Src/stm32l5xx_hal_pwr_ex.c ****       SET_BIT(PWR->PDCRG, GPIONumber);
 715              		.loc 1 431 7 is_stmt 1 view .LVU156
 716 0094 0B4B     		ldr	r3, .L62
 717 0096 5A6D     		ldr	r2, [r3, #84]
 718 0098 0A43     		orrs	r2, r2, r1
 719 009a 5A65     		str	r2, [r3, #84]
 432:../../Drivers/STM32L5xx_HAL_Driver/Src/stm32l5xx_hal_pwr_ex.c ****       CLEAR_BIT(PWR->PUCRG, GPIONumber);
 720              		.loc 1 432 7 view .LVU157
 721 009c 1A6D     		ldr	r2, [r3, #80]
 722 009e 22EA0102 		bic	r2, r2, r1
 723 00a2 1A65     		str	r2, [r3, #80]
 433:../../Drivers/STM32L5xx_HAL_Driver/Src/stm32l5xx_hal_pwr_ex.c ****       break;
 724              		.loc 1 433 7 view .LVU158
 399:../../Drivers/STM32L5xx_HAL_Driver/Src/stm32l5xx_hal_pwr_ex.c **** 
 725              		.loc 1 399 21 is_stmt 0 view .LVU159
 726 00a4 0020     		movs	r0, #0
 727              	.LVL56:
 728              		.loc 1 433 7 view .LVU160
 729 00a6 7047     		bx	lr
 730              	.LVL57:
 731              	.L52:
 434:../../Drivers/STM32L5xx_HAL_Driver/Src/stm32l5xx_hal_pwr_ex.c ****     case PWR_GPIO_H:
 435:../../Drivers/STM32L5xx_HAL_Driver/Src/stm32l5xx_hal_pwr_ex.c ****       SET_BIT(PWR->PDCRH, (GPIONumber & PWR_PORTH_AVAILABLE_PINS));
 732              		.loc 1 435 7 is_stmt 1 view .LVU161
 733 00a8 064B     		ldr	r3, .L62
 734 00aa DA6D     		ldr	r2, [r3, #92]
 735 00ac 01F00B01 		and	r1, r1, #11
 736              	.LVL58:
 737              		.loc 1 435 7 is_stmt 0 view .LVU162
 738 00b0 0A43     		orrs	r2, r2, r1
 739 00b2 DA65     		str	r2, [r3, #92]
 436:../../Drivers/STM32L5xx_HAL_Driver/Src/stm32l5xx_hal_pwr_ex.c ****       CLEAR_BIT(PWR->PUCRH, (GPIONumber & PWR_PORTH_AVAILABLE_PINS));
 740              		.loc 1 436 7 is_stmt 1 view .LVU163
 741 00b4 9A6D     		ldr	r2, [r3, #88]
 742 00b6 22EA0102 		bic	r2, r2, r1
 743 00ba 9A65     		str	r2, [r3, #88]
 437:../../Drivers/STM32L5xx_HAL_Driver/Src/stm32l5xx_hal_pwr_ex.c ****       break;
 744              		.loc 1 437 7 view .LVU164
 399:../../Drivers/STM32L5xx_HAL_Driver/Src/stm32l5xx_hal_pwr_ex.c **** 
 745              		.loc 1 399 21 is_stmt 0 view .LVU165
 746 00bc 0020     		movs	r0, #0
 747              	.LVL59:
 748              		.loc 1 437 7 view .LVU166
 749 00be 7047     		bx	lr
 750              	.LVL60:
 751              	.L61:
 404:../../Drivers/STM32L5xx_HAL_Driver/Src/stm32l5xx_hal_pwr_ex.c ****   {
 752              		.loc 1 404 3 view .LVU167
ARM GAS  /tmp/ccUwd8WC.s 			page 22


 753 00c0 0120     		movs	r0, #1
 754              	.LVL61:
 438:../../Drivers/STM32L5xx_HAL_Driver/Src/stm32l5xx_hal_pwr_ex.c ****     default:
 439:../../Drivers/STM32L5xx_HAL_Driver/Src/stm32l5xx_hal_pwr_ex.c ****       status = HAL_ERROR;
 440:../../Drivers/STM32L5xx_HAL_Driver/Src/stm32l5xx_hal_pwr_ex.c ****       break;
 441:../../Drivers/STM32L5xx_HAL_Driver/Src/stm32l5xx_hal_pwr_ex.c ****   }
 442:../../Drivers/STM32L5xx_HAL_Driver/Src/stm32l5xx_hal_pwr_ex.c **** 
 443:../../Drivers/STM32L5xx_HAL_Driver/Src/stm32l5xx_hal_pwr_ex.c ****   return status;
 755              		.loc 1 443 3 is_stmt 1 view .LVU168
 444:../../Drivers/STM32L5xx_HAL_Driver/Src/stm32l5xx_hal_pwr_ex.c **** }
 756              		.loc 1 444 1 is_stmt 0 view .LVU169
 757 00c2 7047     		bx	lr
 758              	.L63:
 759              		.align	2
 760              	.L62:
 761 00c4 00700040 		.word	1073770496
 762              		.cfi_endproc
 763              	.LFE162:
 765              		.section	.text.HAL_PWREx_DisableGPIOPullDown,"ax",%progbits
 766              		.align	1
 767              		.global	HAL_PWREx_DisableGPIOPullDown
 768              		.syntax unified
 769              		.thumb
 770              		.thumb_func
 772              	HAL_PWREx_DisableGPIOPullDown:
 773              	.LVL62:
 774              	.LFB163:
 445:../../Drivers/STM32L5xx_HAL_Driver/Src/stm32l5xx_hal_pwr_ex.c **** 
 446:../../Drivers/STM32L5xx_HAL_Driver/Src/stm32l5xx_hal_pwr_ex.c **** 
 447:../../Drivers/STM32L5xx_HAL_Driver/Src/stm32l5xx_hal_pwr_ex.c **** /**
 448:../../Drivers/STM32L5xx_HAL_Driver/Src/stm32l5xx_hal_pwr_ex.c ****   * @brief Disable GPIO pull-down state in Standby and Shutdown modes.
 449:../../Drivers/STM32L5xx_HAL_Driver/Src/stm32l5xx_hal_pwr_ex.c ****   * @note  Reset the relevant PDy bits of PWR_PDCRx register used to configure the I/O
 450:../../Drivers/STM32L5xx_HAL_Driver/Src/stm32l5xx_hal_pwr_ex.c ****   *        in pull-down state in Standby and Shutdown modes.
 451:../../Drivers/STM32L5xx_HAL_Driver/Src/stm32l5xx_hal_pwr_ex.c ****   * @note  Even if a PDy bit to reset is reserved, the other PDy bits entered as input
 452:../../Drivers/STM32L5xx_HAL_Driver/Src/stm32l5xx_hal_pwr_ex.c ****   *        parameter at the same time are reset.
 453:../../Drivers/STM32L5xx_HAL_Driver/Src/stm32l5xx_hal_pwr_ex.c ****   * @param  GPIO specifies the IO port. This parameter can be PWR_GPIO_A..PWR_GPIO_H
 454:../../Drivers/STM32L5xx_HAL_Driver/Src/stm32l5xx_hal_pwr_ex.c ****   *         (or PWR_GPIO_I depending on the devices) to select the GPIO peripheral.
 455:../../Drivers/STM32L5xx_HAL_Driver/Src/stm32l5xx_hal_pwr_ex.c ****   * @param  GPIONumber specifies the I/O pins numbers.
 456:../../Drivers/STM32L5xx_HAL_Driver/Src/stm32l5xx_hal_pwr_ex.c ****   *         This parameter can be one of the following values:
 457:../../Drivers/STM32L5xx_HAL_Driver/Src/stm32l5xx_hal_pwr_ex.c ****   *         PWR_GPIO_BIT_0, ..., PWR_GPIO_BIT_15 (except for the port where less
 458:../../Drivers/STM32L5xx_HAL_Driver/Src/stm32l5xx_hal_pwr_ex.c ****   *         I/O pins are available) or the logical OR of several of them to reset
 459:../../Drivers/STM32L5xx_HAL_Driver/Src/stm32l5xx_hal_pwr_ex.c ****   *         several bits for a given port in a single API call.
 460:../../Drivers/STM32L5xx_HAL_Driver/Src/stm32l5xx_hal_pwr_ex.c ****   * @retval HAL Status
 461:../../Drivers/STM32L5xx_HAL_Driver/Src/stm32l5xx_hal_pwr_ex.c ****   */
 462:../../Drivers/STM32L5xx_HAL_Driver/Src/stm32l5xx_hal_pwr_ex.c **** HAL_StatusTypeDef HAL_PWREx_DisableGPIOPullDown(uint32_t GPIO, uint32_t GPIONumber)
 463:../../Drivers/STM32L5xx_HAL_Driver/Src/stm32l5xx_hal_pwr_ex.c **** {
 775              		.loc 1 463 1 is_stmt 1 view -0
 776              		.cfi_startproc
 777              		@ args = 0, pretend = 0, frame = 0
 778              		@ frame_needed = 0, uses_anonymous_args = 0
 779              		@ link register save eliminated.
 464:../../Drivers/STM32L5xx_HAL_Driver/Src/stm32l5xx_hal_pwr_ex.c ****   HAL_StatusTypeDef status = HAL_OK;
 780              		.loc 1 464 3 view .LVU171
 465:../../Drivers/STM32L5xx_HAL_Driver/Src/stm32l5xx_hal_pwr_ex.c **** 
 466:../../Drivers/STM32L5xx_HAL_Driver/Src/stm32l5xx_hal_pwr_ex.c ****   assert_param(IS_PWR_GPIO(GPIO));
 781              		.loc 1 466 3 view .LVU172
 467:../../Drivers/STM32L5xx_HAL_Driver/Src/stm32l5xx_hal_pwr_ex.c ****   assert_param(IS_PWR_GPIO_BIT_NUMBER(GPIONumber));
ARM GAS  /tmp/ccUwd8WC.s 			page 23


 782              		.loc 1 467 3 view .LVU173
 468:../../Drivers/STM32L5xx_HAL_Driver/Src/stm32l5xx_hal_pwr_ex.c **** 
 469:../../Drivers/STM32L5xx_HAL_Driver/Src/stm32l5xx_hal_pwr_ex.c ****   switch (GPIO)
 783              		.loc 1 469 3 view .LVU174
 784 0000 0728     		cmp	r0, #7
 785 0002 43D8     		bhi	.L75
 786 0004 DFE800F0 		tbb	[pc, r0]
 787              	.L67:
 788 0008 04       		.byte	(.L74-.L67)/2
 789 0009 0D       		.byte	(.L73-.L67)/2
 790 000a 16       		.byte	(.L72-.L67)/2
 791 000b 1D       		.byte	(.L71-.L67)/2
 792 000c 24       		.byte	(.L70-.L67)/2
 793 000d 2B       		.byte	(.L69-.L67)/2
 794 000e 32       		.byte	(.L68-.L67)/2
 795 000f 39       		.byte	(.L66-.L67)/2
 796              		.p2align 1
 797              	.L74:
 470:../../Drivers/STM32L5xx_HAL_Driver/Src/stm32l5xx_hal_pwr_ex.c ****   {
 471:../../Drivers/STM32L5xx_HAL_Driver/Src/stm32l5xx_hal_pwr_ex.c ****     case PWR_GPIO_A:
 472:../../Drivers/STM32L5xx_HAL_Driver/Src/stm32l5xx_hal_pwr_ex.c ****       CLEAR_BIT(PWR->PDCRA, (GPIONumber & (~(PWR_GPIO_BIT_13 | PWR_GPIO_BIT_15))));
 798              		.loc 1 472 7 view .LVU175
 799 0010 1F4A     		ldr	r2, .L76
 800 0012 536A     		ldr	r3, [r2, #36]
 801 0014 21F42041 		bic	r1, r1, #40960
 802              	.LVL63:
 803              		.loc 1 472 7 is_stmt 0 view .LVU176
 804 0018 23EA0101 		bic	r1, r3, r1
 805 001c 5162     		str	r1, [r2, #36]
 473:../../Drivers/STM32L5xx_HAL_Driver/Src/stm32l5xx_hal_pwr_ex.c ****       break;
 806              		.loc 1 473 7 is_stmt 1 view .LVU177
 464:../../Drivers/STM32L5xx_HAL_Driver/Src/stm32l5xx_hal_pwr_ex.c **** 
 807              		.loc 1 464 21 is_stmt 0 view .LVU178
 808 001e 0020     		movs	r0, #0
 809              	.LVL64:
 810              		.loc 1 473 7 view .LVU179
 811 0020 7047     		bx	lr
 812              	.LVL65:
 813              	.L73:
 474:../../Drivers/STM32L5xx_HAL_Driver/Src/stm32l5xx_hal_pwr_ex.c ****     case PWR_GPIO_B:
 475:../../Drivers/STM32L5xx_HAL_Driver/Src/stm32l5xx_hal_pwr_ex.c ****       CLEAR_BIT(PWR->PDCRB, (GPIONumber & (~(PWR_GPIO_BIT_4))));
 814              		.loc 1 475 7 is_stmt 1 view .LVU180
 815 0022 1B4A     		ldr	r2, .L76
 816 0024 D36A     		ldr	r3, [r2, #44]
 817 0026 21F01001 		bic	r1, r1, #16
 818              	.LVL66:
 819              		.loc 1 475 7 is_stmt 0 view .LVU181
 820 002a 23EA0101 		bic	r1, r3, r1
 821 002e D162     		str	r1, [r2, #44]
 476:../../Drivers/STM32L5xx_HAL_Driver/Src/stm32l5xx_hal_pwr_ex.c ****       break;
 822              		.loc 1 476 7 is_stmt 1 view .LVU182
 464:../../Drivers/STM32L5xx_HAL_Driver/Src/stm32l5xx_hal_pwr_ex.c **** 
 823              		.loc 1 464 21 is_stmt 0 view .LVU183
 824 0030 0020     		movs	r0, #0
 825              	.LVL67:
 826              		.loc 1 476 7 view .LVU184
 827 0032 7047     		bx	lr
ARM GAS  /tmp/ccUwd8WC.s 			page 24


 828              	.LVL68:
 829              	.L72:
 477:../../Drivers/STM32L5xx_HAL_Driver/Src/stm32l5xx_hal_pwr_ex.c ****     case PWR_GPIO_C:
 478:../../Drivers/STM32L5xx_HAL_Driver/Src/stm32l5xx_hal_pwr_ex.c ****       CLEAR_BIT(PWR->PDCRC, GPIONumber);
 830              		.loc 1 478 7 is_stmt 1 view .LVU185
 831 0034 164A     		ldr	r2, .L76
 832 0036 536B     		ldr	r3, [r2, #52]
 833 0038 23EA0103 		bic	r3, r3, r1
 834 003c 5363     		str	r3, [r2, #52]
 479:../../Drivers/STM32L5xx_HAL_Driver/Src/stm32l5xx_hal_pwr_ex.c ****       break;
 835              		.loc 1 479 7 view .LVU186
 464:../../Drivers/STM32L5xx_HAL_Driver/Src/stm32l5xx_hal_pwr_ex.c **** 
 836              		.loc 1 464 21 is_stmt 0 view .LVU187
 837 003e 0020     		movs	r0, #0
 838              	.LVL69:
 839              		.loc 1 479 7 view .LVU188
 840 0040 7047     		bx	lr
 841              	.LVL70:
 842              	.L71:
 480:../../Drivers/STM32L5xx_HAL_Driver/Src/stm32l5xx_hal_pwr_ex.c ****     case PWR_GPIO_D:
 481:../../Drivers/STM32L5xx_HAL_Driver/Src/stm32l5xx_hal_pwr_ex.c ****       CLEAR_BIT(PWR->PDCRD, GPIONumber);
 843              		.loc 1 481 7 is_stmt 1 view .LVU189
 844 0042 134A     		ldr	r2, .L76
 845 0044 D36B     		ldr	r3, [r2, #60]
 846 0046 23EA0103 		bic	r3, r3, r1
 847 004a D363     		str	r3, [r2, #60]
 482:../../Drivers/STM32L5xx_HAL_Driver/Src/stm32l5xx_hal_pwr_ex.c ****       break;
 848              		.loc 1 482 7 view .LVU190
 464:../../Drivers/STM32L5xx_HAL_Driver/Src/stm32l5xx_hal_pwr_ex.c **** 
 849              		.loc 1 464 21 is_stmt 0 view .LVU191
 850 004c 0020     		movs	r0, #0
 851              	.LVL71:
 852              		.loc 1 482 7 view .LVU192
 853 004e 7047     		bx	lr
 854              	.LVL72:
 855              	.L70:
 483:../../Drivers/STM32L5xx_HAL_Driver/Src/stm32l5xx_hal_pwr_ex.c ****     case PWR_GPIO_E:
 484:../../Drivers/STM32L5xx_HAL_Driver/Src/stm32l5xx_hal_pwr_ex.c ****       CLEAR_BIT(PWR->PDCRE, GPIONumber);
 856              		.loc 1 484 7 is_stmt 1 view .LVU193
 857 0050 0F4A     		ldr	r2, .L76
 858 0052 536C     		ldr	r3, [r2, #68]
 859 0054 23EA0103 		bic	r3, r3, r1
 860 0058 5364     		str	r3, [r2, #68]
 485:../../Drivers/STM32L5xx_HAL_Driver/Src/stm32l5xx_hal_pwr_ex.c ****       break;
 861              		.loc 1 485 7 view .LVU194
 464:../../Drivers/STM32L5xx_HAL_Driver/Src/stm32l5xx_hal_pwr_ex.c **** 
 862              		.loc 1 464 21 is_stmt 0 view .LVU195
 863 005a 0020     		movs	r0, #0
 864              	.LVL73:
 865              		.loc 1 485 7 view .LVU196
 866 005c 7047     		bx	lr
 867              	.LVL74:
 868              	.L69:
 486:../../Drivers/STM32L5xx_HAL_Driver/Src/stm32l5xx_hal_pwr_ex.c ****     case PWR_GPIO_F:
 487:../../Drivers/STM32L5xx_HAL_Driver/Src/stm32l5xx_hal_pwr_ex.c ****       CLEAR_BIT(PWR->PDCRF, GPIONumber);
 869              		.loc 1 487 7 is_stmt 1 view .LVU197
 870 005e 0C4A     		ldr	r2, .L76
ARM GAS  /tmp/ccUwd8WC.s 			page 25


 871 0060 D36C     		ldr	r3, [r2, #76]
 872 0062 23EA0103 		bic	r3, r3, r1
 873 0066 D364     		str	r3, [r2, #76]
 488:../../Drivers/STM32L5xx_HAL_Driver/Src/stm32l5xx_hal_pwr_ex.c ****       break;
 874              		.loc 1 488 7 view .LVU198
 464:../../Drivers/STM32L5xx_HAL_Driver/Src/stm32l5xx_hal_pwr_ex.c **** 
 875              		.loc 1 464 21 is_stmt 0 view .LVU199
 876 0068 0020     		movs	r0, #0
 877              	.LVL75:
 878              		.loc 1 488 7 view .LVU200
 879 006a 7047     		bx	lr
 880              	.LVL76:
 881              	.L68:
 489:../../Drivers/STM32L5xx_HAL_Driver/Src/stm32l5xx_hal_pwr_ex.c ****     case PWR_GPIO_G:
 490:../../Drivers/STM32L5xx_HAL_Driver/Src/stm32l5xx_hal_pwr_ex.c ****       CLEAR_BIT(PWR->PDCRG, GPIONumber);
 882              		.loc 1 490 7 is_stmt 1 view .LVU201
 883 006c 084A     		ldr	r2, .L76
 884 006e 536D     		ldr	r3, [r2, #84]
 885 0070 23EA0103 		bic	r3, r3, r1
 886 0074 5365     		str	r3, [r2, #84]
 491:../../Drivers/STM32L5xx_HAL_Driver/Src/stm32l5xx_hal_pwr_ex.c ****       break;
 887              		.loc 1 491 7 view .LVU202
 464:../../Drivers/STM32L5xx_HAL_Driver/Src/stm32l5xx_hal_pwr_ex.c **** 
 888              		.loc 1 464 21 is_stmt 0 view .LVU203
 889 0076 0020     		movs	r0, #0
 890              	.LVL77:
 891              		.loc 1 491 7 view .LVU204
 892 0078 7047     		bx	lr
 893              	.LVL78:
 894              	.L66:
 492:../../Drivers/STM32L5xx_HAL_Driver/Src/stm32l5xx_hal_pwr_ex.c ****     case PWR_GPIO_H:
 493:../../Drivers/STM32L5xx_HAL_Driver/Src/stm32l5xx_hal_pwr_ex.c ****       CLEAR_BIT(PWR->PDCRH, (GPIONumber & PWR_PORTH_AVAILABLE_PINS));
 895              		.loc 1 493 7 is_stmt 1 view .LVU205
 896 007a 054A     		ldr	r2, .L76
 897 007c D36D     		ldr	r3, [r2, #92]
 898 007e 01F00B01 		and	r1, r1, #11
 899              	.LVL79:
 900              		.loc 1 493 7 is_stmt 0 view .LVU206
 901 0082 23EA0103 		bic	r3, r3, r1
 902 0086 D365     		str	r3, [r2, #92]
 494:../../Drivers/STM32L5xx_HAL_Driver/Src/stm32l5xx_hal_pwr_ex.c ****       break;
 903              		.loc 1 494 7 is_stmt 1 view .LVU207
 464:../../Drivers/STM32L5xx_HAL_Driver/Src/stm32l5xx_hal_pwr_ex.c **** 
 904              		.loc 1 464 21 is_stmt 0 view .LVU208
 905 0088 0020     		movs	r0, #0
 906              	.LVL80:
 907              		.loc 1 494 7 view .LVU209
 908 008a 7047     		bx	lr
 909              	.LVL81:
 910              	.L75:
 469:../../Drivers/STM32L5xx_HAL_Driver/Src/stm32l5xx_hal_pwr_ex.c ****   {
 911              		.loc 1 469 3 view .LVU210
 912 008c 0120     		movs	r0, #1
 913              	.LVL82:
 495:../../Drivers/STM32L5xx_HAL_Driver/Src/stm32l5xx_hal_pwr_ex.c ****     default:
 496:../../Drivers/STM32L5xx_HAL_Driver/Src/stm32l5xx_hal_pwr_ex.c ****       status = HAL_ERROR;
 497:../../Drivers/STM32L5xx_HAL_Driver/Src/stm32l5xx_hal_pwr_ex.c ****       break;
ARM GAS  /tmp/ccUwd8WC.s 			page 26


 498:../../Drivers/STM32L5xx_HAL_Driver/Src/stm32l5xx_hal_pwr_ex.c ****   }
 499:../../Drivers/STM32L5xx_HAL_Driver/Src/stm32l5xx_hal_pwr_ex.c **** 
 500:../../Drivers/STM32L5xx_HAL_Driver/Src/stm32l5xx_hal_pwr_ex.c ****   return status;
 914              		.loc 1 500 3 is_stmt 1 view .LVU211
 501:../../Drivers/STM32L5xx_HAL_Driver/Src/stm32l5xx_hal_pwr_ex.c **** }
 915              		.loc 1 501 1 is_stmt 0 view .LVU212
 916 008e 7047     		bx	lr
 917              	.L77:
 918              		.align	2
 919              	.L76:
 920 0090 00700040 		.word	1073770496
 921              		.cfi_endproc
 922              	.LFE163:
 924              		.section	.text.HAL_PWREx_EnablePullUpPullDownConfig,"ax",%progbits
 925              		.align	1
 926              		.global	HAL_PWREx_EnablePullUpPullDownConfig
 927              		.syntax unified
 928              		.thumb
 929              		.thumb_func
 931              	HAL_PWREx_EnablePullUpPullDownConfig:
 932              	.LFB164:
 502:../../Drivers/STM32L5xx_HAL_Driver/Src/stm32l5xx_hal_pwr_ex.c **** 
 503:../../Drivers/STM32L5xx_HAL_Driver/Src/stm32l5xx_hal_pwr_ex.c **** 
 504:../../Drivers/STM32L5xx_HAL_Driver/Src/stm32l5xx_hal_pwr_ex.c **** 
 505:../../Drivers/STM32L5xx_HAL_Driver/Src/stm32l5xx_hal_pwr_ex.c **** /**
 506:../../Drivers/STM32L5xx_HAL_Driver/Src/stm32l5xx_hal_pwr_ex.c ****   * @brief Enable pull-up and pull-down configuration.
 507:../../Drivers/STM32L5xx_HAL_Driver/Src/stm32l5xx_hal_pwr_ex.c ****   * @note  When APC bit is set, the I/O pull-up and pull-down configurations defined in
 508:../../Drivers/STM32L5xx_HAL_Driver/Src/stm32l5xx_hal_pwr_ex.c ****   *        PWR_PUCRx and PWR_PDCRx registers are applied in Standby and Shutdown modes.
 509:../../Drivers/STM32L5xx_HAL_Driver/Src/stm32l5xx_hal_pwr_ex.c ****   * @note  Pull-up set by PUy bit of PWR_PUCRx register is not activated if the corresponding
 510:../../Drivers/STM32L5xx_HAL_Driver/Src/stm32l5xx_hal_pwr_ex.c ****   *        PDy bit of PWR_PDCRx register is also set (pull-down configuration priority is higher).
 511:../../Drivers/STM32L5xx_HAL_Driver/Src/stm32l5xx_hal_pwr_ex.c ****   *        HAL_PWREx_EnableGPIOPullUp() and HAL_PWREx_EnableGPIOPullDown() API's ensure there
 512:../../Drivers/STM32L5xx_HAL_Driver/Src/stm32l5xx_hal_pwr_ex.c ****   *        is no conflict when setting PUy or PDy bit.
 513:../../Drivers/STM32L5xx_HAL_Driver/Src/stm32l5xx_hal_pwr_ex.c ****   * @retval None
 514:../../Drivers/STM32L5xx_HAL_Driver/Src/stm32l5xx_hal_pwr_ex.c ****   */
 515:../../Drivers/STM32L5xx_HAL_Driver/Src/stm32l5xx_hal_pwr_ex.c **** void HAL_PWREx_EnablePullUpPullDownConfig(void)
 516:../../Drivers/STM32L5xx_HAL_Driver/Src/stm32l5xx_hal_pwr_ex.c **** {
 933              		.loc 1 516 1 is_stmt 1 view -0
 934              		.cfi_startproc
 935              		@ args = 0, pretend = 0, frame = 0
 936              		@ frame_needed = 0, uses_anonymous_args = 0
 937              		@ link register save eliminated.
 517:../../Drivers/STM32L5xx_HAL_Driver/Src/stm32l5xx_hal_pwr_ex.c ****   SET_BIT(PWR->CR3, PWR_CR3_APC);
 938              		.loc 1 517 3 view .LVU214
 939 0000 024A     		ldr	r2, .L79
 940 0002 9368     		ldr	r3, [r2, #8]
 941 0004 43F48063 		orr	r3, r3, #1024
 942 0008 9360     		str	r3, [r2, #8]
 518:../../Drivers/STM32L5xx_HAL_Driver/Src/stm32l5xx_hal_pwr_ex.c **** }
 943              		.loc 1 518 1 is_stmt 0 view .LVU215
 944 000a 7047     		bx	lr
 945              	.L80:
 946              		.align	2
 947              	.L79:
 948 000c 00700040 		.word	1073770496
 949              		.cfi_endproc
 950              	.LFE164:
 952              		.section	.text.HAL_PWREx_DisablePullUpPullDownConfig,"ax",%progbits
ARM GAS  /tmp/ccUwd8WC.s 			page 27


 953              		.align	1
 954              		.global	HAL_PWREx_DisablePullUpPullDownConfig
 955              		.syntax unified
 956              		.thumb
 957              		.thumb_func
 959              	HAL_PWREx_DisablePullUpPullDownConfig:
 960              	.LFB165:
 519:../../Drivers/STM32L5xx_HAL_Driver/Src/stm32l5xx_hal_pwr_ex.c **** 
 520:../../Drivers/STM32L5xx_HAL_Driver/Src/stm32l5xx_hal_pwr_ex.c **** 
 521:../../Drivers/STM32L5xx_HAL_Driver/Src/stm32l5xx_hal_pwr_ex.c **** /**
 522:../../Drivers/STM32L5xx_HAL_Driver/Src/stm32l5xx_hal_pwr_ex.c ****   * @brief Disable pull-up and pull-down configuration.
 523:../../Drivers/STM32L5xx_HAL_Driver/Src/stm32l5xx_hal_pwr_ex.c ****   * @note  When APC bit is cleared, the I/O pull-up and pull-down configurations defined in
 524:../../Drivers/STM32L5xx_HAL_Driver/Src/stm32l5xx_hal_pwr_ex.c ****   *        PWR_PUCRx and PWR_PDCRx registers are not applied in Standby and Shutdown modes.
 525:../../Drivers/STM32L5xx_HAL_Driver/Src/stm32l5xx_hal_pwr_ex.c ****   * @retval None
 526:../../Drivers/STM32L5xx_HAL_Driver/Src/stm32l5xx_hal_pwr_ex.c ****   */
 527:../../Drivers/STM32L5xx_HAL_Driver/Src/stm32l5xx_hal_pwr_ex.c **** void HAL_PWREx_DisablePullUpPullDownConfig(void)
 528:../../Drivers/STM32L5xx_HAL_Driver/Src/stm32l5xx_hal_pwr_ex.c **** {
 961              		.loc 1 528 1 is_stmt 1 view -0
 962              		.cfi_startproc
 963              		@ args = 0, pretend = 0, frame = 0
 964              		@ frame_needed = 0, uses_anonymous_args = 0
 965              		@ link register save eliminated.
 529:../../Drivers/STM32L5xx_HAL_Driver/Src/stm32l5xx_hal_pwr_ex.c ****   CLEAR_BIT(PWR->CR3, PWR_CR3_APC);
 966              		.loc 1 529 3 view .LVU217
 967 0000 024A     		ldr	r2, .L82
 968 0002 9368     		ldr	r3, [r2, #8]
 969 0004 23F48063 		bic	r3, r3, #1024
 970 0008 9360     		str	r3, [r2, #8]
 530:../../Drivers/STM32L5xx_HAL_Driver/Src/stm32l5xx_hal_pwr_ex.c **** }
 971              		.loc 1 530 1 is_stmt 0 view .LVU218
 972 000a 7047     		bx	lr
 973              	.L83:
 974              		.align	2
 975              	.L82:
 976 000c 00700040 		.word	1073770496
 977              		.cfi_endproc
 978              	.LFE165:
 980              		.section	.text.HAL_PWREx_ConfigSRAM2ContentRetention,"ax",%progbits
 981              		.align	1
 982              		.global	HAL_PWREx_ConfigSRAM2ContentRetention
 983              		.syntax unified
 984              		.thumb
 985              		.thumb_func
 987              	HAL_PWREx_ConfigSRAM2ContentRetention:
 988              	.LVL83:
 989              	.LFB166:
 531:../../Drivers/STM32L5xx_HAL_Driver/Src/stm32l5xx_hal_pwr_ex.c **** 
 532:../../Drivers/STM32L5xx_HAL_Driver/Src/stm32l5xx_hal_pwr_ex.c **** 
 533:../../Drivers/STM32L5xx_HAL_Driver/Src/stm32l5xx_hal_pwr_ex.c **** /**
 534:../../Drivers/STM32L5xx_HAL_Driver/Src/stm32l5xx_hal_pwr_ex.c ****   * @brief Configure SRAM2 content retention in Standby mode.
 535:../../Drivers/STM32L5xx_HAL_Driver/Src/stm32l5xx_hal_pwr_ex.c ****   * @param  SRAM2ContentRetention  This parameter can be one of the following values:
 536:../../Drivers/STM32L5xx_HAL_Driver/Src/stm32l5xx_hal_pwr_ex.c ****   *         @arg @ref PWR_NO_SRAM2_RETENTION
 537:../../Drivers/STM32L5xx_HAL_Driver/Src/stm32l5xx_hal_pwr_ex.c ****   *         @arg @ref PWR_FULL_SRAM2_RETENTION
 538:../../Drivers/STM32L5xx_HAL_Driver/Src/stm32l5xx_hal_pwr_ex.c ****   *         @arg @ref PWR_4KBYTES_SRAM2_RETENTION
 539:../../Drivers/STM32L5xx_HAL_Driver/Src/stm32l5xx_hal_pwr_ex.c ****   * @note  This feature is secured by SMLPM bit when system implements security (TZEN=1).
 540:../../Drivers/STM32L5xx_HAL_Driver/Src/stm32l5xx_hal_pwr_ex.c ****   * @retval HAL Status
 541:../../Drivers/STM32L5xx_HAL_Driver/Src/stm32l5xx_hal_pwr_ex.c ****   */
ARM GAS  /tmp/ccUwd8WC.s 			page 28


 542:../../Drivers/STM32L5xx_HAL_Driver/Src/stm32l5xx_hal_pwr_ex.c **** HAL_StatusTypeDef HAL_PWREx_ConfigSRAM2ContentRetention(uint32_t SRAM2ContentRetention)
 543:../../Drivers/STM32L5xx_HAL_Driver/Src/stm32l5xx_hal_pwr_ex.c **** {
 990              		.loc 1 543 1 is_stmt 1 view -0
 991              		.cfi_startproc
 992              		@ args = 0, pretend = 0, frame = 0
 993              		@ frame_needed = 0, uses_anonymous_args = 0
 994              		@ link register save eliminated.
 544:../../Drivers/STM32L5xx_HAL_Driver/Src/stm32l5xx_hal_pwr_ex.c ****   /* Check the parameters */
 545:../../Drivers/STM32L5xx_HAL_Driver/Src/stm32l5xx_hal_pwr_ex.c ****   assert_param(IS_PWR_SRAM2CONTENT_RETENTION(SRAM2ContentRetention));
 995              		.loc 1 545 3 view .LVU220
 546:../../Drivers/STM32L5xx_HAL_Driver/Src/stm32l5xx_hal_pwr_ex.c **** 
 547:../../Drivers/STM32L5xx_HAL_Driver/Src/stm32l5xx_hal_pwr_ex.c ****   /* Set RRS bits */
 548:../../Drivers/STM32L5xx_HAL_Driver/Src/stm32l5xx_hal_pwr_ex.c ****   MODIFY_REG(PWR->CR3, PWR_CR3_RRS, SRAM2ContentRetention);
 996              		.loc 1 548 3 view .LVU221
 997 0000 034A     		ldr	r2, .L85
 998 0002 9368     		ldr	r3, [r2, #8]
 999 0004 23F44073 		bic	r3, r3, #768
 1000 0008 0343     		orrs	r3, r3, r0
 1001 000a 9360     		str	r3, [r2, #8]
 549:../../Drivers/STM32L5xx_HAL_Driver/Src/stm32l5xx_hal_pwr_ex.c **** 
 550:../../Drivers/STM32L5xx_HAL_Driver/Src/stm32l5xx_hal_pwr_ex.c ****   return HAL_OK;
 1002              		.loc 1 550 3 view .LVU222
 551:../../Drivers/STM32L5xx_HAL_Driver/Src/stm32l5xx_hal_pwr_ex.c **** }
 1003              		.loc 1 551 1 is_stmt 0 view .LVU223
 1004 000c 0020     		movs	r0, #0
 1005              	.LVL84:
 1006              		.loc 1 551 1 view .LVU224
 1007 000e 7047     		bx	lr
 1008              	.L86:
 1009              		.align	2
 1010              	.L85:
 1011 0010 00700040 		.word	1073770496
 1012              		.cfi_endproc
 1013              	.LFE166:
 1015              		.section	.text.HAL_PWREx_EnableSRAM2ContentRetention,"ax",%progbits
 1016              		.align	1
 1017              		.global	HAL_PWREx_EnableSRAM2ContentRetention
 1018              		.syntax unified
 1019              		.thumb
 1020              		.thumb_func
 1022              	HAL_PWREx_EnableSRAM2ContentRetention:
 1023              	.LFB167:
 552:../../Drivers/STM32L5xx_HAL_Driver/Src/stm32l5xx_hal_pwr_ex.c **** 
 553:../../Drivers/STM32L5xx_HAL_Driver/Src/stm32l5xx_hal_pwr_ex.c **** 
 554:../../Drivers/STM32L5xx_HAL_Driver/Src/stm32l5xx_hal_pwr_ex.c **** /**
 555:../../Drivers/STM32L5xx_HAL_Driver/Src/stm32l5xx_hal_pwr_ex.c ****   * @brief Enable SRAM2 content retention in Standby mode.
 556:../../Drivers/STM32L5xx_HAL_Driver/Src/stm32l5xx_hal_pwr_ex.c ****   * @note  When RRS bit is set, SRAM2 is powered by the low-power regulator in
 557:../../Drivers/STM32L5xx_HAL_Driver/Src/stm32l5xx_hal_pwr_ex.c ****   *         Standby mode and its content is kept.
 558:../../Drivers/STM32L5xx_HAL_Driver/Src/stm32l5xx_hal_pwr_ex.c ****   * @retval None
 559:../../Drivers/STM32L5xx_HAL_Driver/Src/stm32l5xx_hal_pwr_ex.c ****   */
 560:../../Drivers/STM32L5xx_HAL_Driver/Src/stm32l5xx_hal_pwr_ex.c **** void HAL_PWREx_EnableSRAM2ContentRetention(void)
 561:../../Drivers/STM32L5xx_HAL_Driver/Src/stm32l5xx_hal_pwr_ex.c **** {
 1024              		.loc 1 561 1 is_stmt 1 view -0
 1025              		.cfi_startproc
 1026              		@ args = 0, pretend = 0, frame = 0
 1027              		@ frame_needed = 0, uses_anonymous_args = 0
 1028 0000 08B5     		push	{r3, lr}
ARM GAS  /tmp/ccUwd8WC.s 			page 29


 1029              	.LCFI0:
 1030              		.cfi_def_cfa_offset 8
 1031              		.cfi_offset 3, -8
 1032              		.cfi_offset 14, -4
 562:../../Drivers/STM32L5xx_HAL_Driver/Src/stm32l5xx_hal_pwr_ex.c ****   (void) HAL_PWREx_ConfigSRAM2ContentRetention(PWR_FULL_SRAM2_RETENTION);
 1033              		.loc 1 562 3 view .LVU226
 1034              		.loc 1 562 10 is_stmt 0 view .LVU227
 1035 0002 4FF48070 		mov	r0, #256
 1036 0006 FFF7FEFF 		bl	HAL_PWREx_ConfigSRAM2ContentRetention
 1037              	.LVL85:
 563:../../Drivers/STM32L5xx_HAL_Driver/Src/stm32l5xx_hal_pwr_ex.c **** }
 1038              		.loc 1 563 1 view .LVU228
 1039 000a 08BD     		pop	{r3, pc}
 1040              		.cfi_endproc
 1041              	.LFE167:
 1043              		.section	.text.HAL_PWREx_DisableSRAM2ContentRetention,"ax",%progbits
 1044              		.align	1
 1045              		.global	HAL_PWREx_DisableSRAM2ContentRetention
 1046              		.syntax unified
 1047              		.thumb
 1048              		.thumb_func
 1050              	HAL_PWREx_DisableSRAM2ContentRetention:
 1051              	.LFB168:
 564:../../Drivers/STM32L5xx_HAL_Driver/Src/stm32l5xx_hal_pwr_ex.c **** 
 565:../../Drivers/STM32L5xx_HAL_Driver/Src/stm32l5xx_hal_pwr_ex.c **** 
 566:../../Drivers/STM32L5xx_HAL_Driver/Src/stm32l5xx_hal_pwr_ex.c **** /**
 567:../../Drivers/STM32L5xx_HAL_Driver/Src/stm32l5xx_hal_pwr_ex.c ****   * @brief Disable SRAM2 content retention in Standby mode.
 568:../../Drivers/STM32L5xx_HAL_Driver/Src/stm32l5xx_hal_pwr_ex.c ****   * @note  When RRS bit is reset, SRAM2 is powered off in Standby mode
 569:../../Drivers/STM32L5xx_HAL_Driver/Src/stm32l5xx_hal_pwr_ex.c ****   *        and its content is lost.
 570:../../Drivers/STM32L5xx_HAL_Driver/Src/stm32l5xx_hal_pwr_ex.c ****   * @retval None
 571:../../Drivers/STM32L5xx_HAL_Driver/Src/stm32l5xx_hal_pwr_ex.c ****   */
 572:../../Drivers/STM32L5xx_HAL_Driver/Src/stm32l5xx_hal_pwr_ex.c **** void HAL_PWREx_DisableSRAM2ContentRetention(void)
 573:../../Drivers/STM32L5xx_HAL_Driver/Src/stm32l5xx_hal_pwr_ex.c **** {
 1052              		.loc 1 573 1 is_stmt 1 view -0
 1053              		.cfi_startproc
 1054              		@ args = 0, pretend = 0, frame = 0
 1055              		@ frame_needed = 0, uses_anonymous_args = 0
 1056 0000 08B5     		push	{r3, lr}
 1057              	.LCFI1:
 1058              		.cfi_def_cfa_offset 8
 1059              		.cfi_offset 3, -8
 1060              		.cfi_offset 14, -4
 574:../../Drivers/STM32L5xx_HAL_Driver/Src/stm32l5xx_hal_pwr_ex.c ****   (void) HAL_PWREx_ConfigSRAM2ContentRetention(PWR_NO_SRAM2_RETENTION);
 1061              		.loc 1 574 3 view .LVU230
 1062              		.loc 1 574 10 is_stmt 0 view .LVU231
 1063 0002 0020     		movs	r0, #0
 1064 0004 FFF7FEFF 		bl	HAL_PWREx_ConfigSRAM2ContentRetention
 1065              	.LVL86:
 575:../../Drivers/STM32L5xx_HAL_Driver/Src/stm32l5xx_hal_pwr_ex.c **** }
 1066              		.loc 1 575 1 view .LVU232
 1067 0008 08BD     		pop	{r3, pc}
 1068              		.cfi_endproc
 1069              	.LFE168:
 1071              		.section	.text.HAL_PWREx_EnablePVM1,"ax",%progbits
 1072              		.align	1
 1073              		.global	HAL_PWREx_EnablePVM1
 1074              		.syntax unified
ARM GAS  /tmp/ccUwd8WC.s 			page 30


 1075              		.thumb
 1076              		.thumb_func
 1078              	HAL_PWREx_EnablePVM1:
 1079              	.LFB169:
 576:../../Drivers/STM32L5xx_HAL_Driver/Src/stm32l5xx_hal_pwr_ex.c **** 
 577:../../Drivers/STM32L5xx_HAL_Driver/Src/stm32l5xx_hal_pwr_ex.c **** 
 578:../../Drivers/STM32L5xx_HAL_Driver/Src/stm32l5xx_hal_pwr_ex.c **** /**
 579:../../Drivers/STM32L5xx_HAL_Driver/Src/stm32l5xx_hal_pwr_ex.c ****   * @brief Enable the Power Voltage Monitoring 1: VDDUSB versus 1.2 V.
 580:../../Drivers/STM32L5xx_HAL_Driver/Src/stm32l5xx_hal_pwr_ex.c ****   * @retval None
 581:../../Drivers/STM32L5xx_HAL_Driver/Src/stm32l5xx_hal_pwr_ex.c ****   */
 582:../../Drivers/STM32L5xx_HAL_Driver/Src/stm32l5xx_hal_pwr_ex.c **** void HAL_PWREx_EnablePVM1(void)
 583:../../Drivers/STM32L5xx_HAL_Driver/Src/stm32l5xx_hal_pwr_ex.c **** {
 1080              		.loc 1 583 1 is_stmt 1 view -0
 1081              		.cfi_startproc
 1082              		@ args = 0, pretend = 0, frame = 0
 1083              		@ frame_needed = 0, uses_anonymous_args = 0
 1084              		@ link register save eliminated.
 584:../../Drivers/STM32L5xx_HAL_Driver/Src/stm32l5xx_hal_pwr_ex.c ****   SET_BIT(PWR->CR2, PWR_PVM_1);
 1085              		.loc 1 584 3 view .LVU234
 1086 0000 024A     		ldr	r2, .L92
 1087 0002 5368     		ldr	r3, [r2, #4]
 1088 0004 43F01003 		orr	r3, r3, #16
 1089 0008 5360     		str	r3, [r2, #4]
 585:../../Drivers/STM32L5xx_HAL_Driver/Src/stm32l5xx_hal_pwr_ex.c **** }
 1090              		.loc 1 585 1 is_stmt 0 view .LVU235
 1091 000a 7047     		bx	lr
 1092              	.L93:
 1093              		.align	2
 1094              	.L92:
 1095 000c 00700040 		.word	1073770496
 1096              		.cfi_endproc
 1097              	.LFE169:
 1099              		.section	.text.HAL_PWREx_DisablePVM1,"ax",%progbits
 1100              		.align	1
 1101              		.global	HAL_PWREx_DisablePVM1
 1102              		.syntax unified
 1103              		.thumb
 1104              		.thumb_func
 1106              	HAL_PWREx_DisablePVM1:
 1107              	.LFB170:
 586:../../Drivers/STM32L5xx_HAL_Driver/Src/stm32l5xx_hal_pwr_ex.c **** 
 587:../../Drivers/STM32L5xx_HAL_Driver/Src/stm32l5xx_hal_pwr_ex.c **** /**
 588:../../Drivers/STM32L5xx_HAL_Driver/Src/stm32l5xx_hal_pwr_ex.c ****   * @brief Disable the Power Voltage Monitoring 1: VDDUSB versus 1.2 V.
 589:../../Drivers/STM32L5xx_HAL_Driver/Src/stm32l5xx_hal_pwr_ex.c ****   * @retval None
 590:../../Drivers/STM32L5xx_HAL_Driver/Src/stm32l5xx_hal_pwr_ex.c ****   */
 591:../../Drivers/STM32L5xx_HAL_Driver/Src/stm32l5xx_hal_pwr_ex.c **** void HAL_PWREx_DisablePVM1(void)
 592:../../Drivers/STM32L5xx_HAL_Driver/Src/stm32l5xx_hal_pwr_ex.c **** {
 1108              		.loc 1 592 1 is_stmt 1 view -0
 1109              		.cfi_startproc
 1110              		@ args = 0, pretend = 0, frame = 0
 1111              		@ frame_needed = 0, uses_anonymous_args = 0
 1112              		@ link register save eliminated.
 593:../../Drivers/STM32L5xx_HAL_Driver/Src/stm32l5xx_hal_pwr_ex.c ****   CLEAR_BIT(PWR->CR2, PWR_PVM_1);
 1113              		.loc 1 593 3 view .LVU237
 1114 0000 024A     		ldr	r2, .L95
 1115 0002 5368     		ldr	r3, [r2, #4]
 1116 0004 23F01003 		bic	r3, r3, #16
ARM GAS  /tmp/ccUwd8WC.s 			page 31


 1117 0008 5360     		str	r3, [r2, #4]
 594:../../Drivers/STM32L5xx_HAL_Driver/Src/stm32l5xx_hal_pwr_ex.c **** }
 1118              		.loc 1 594 1 is_stmt 0 view .LVU238
 1119 000a 7047     		bx	lr
 1120              	.L96:
 1121              		.align	2
 1122              	.L95:
 1123 000c 00700040 		.word	1073770496
 1124              		.cfi_endproc
 1125              	.LFE170:
 1127              		.section	.text.HAL_PWREx_EnablePVM2,"ax",%progbits
 1128              		.align	1
 1129              		.global	HAL_PWREx_EnablePVM2
 1130              		.syntax unified
 1131              		.thumb
 1132              		.thumb_func
 1134              	HAL_PWREx_EnablePVM2:
 1135              	.LFB171:
 595:../../Drivers/STM32L5xx_HAL_Driver/Src/stm32l5xx_hal_pwr_ex.c **** 
 596:../../Drivers/STM32L5xx_HAL_Driver/Src/stm32l5xx_hal_pwr_ex.c **** /**
 597:../../Drivers/STM32L5xx_HAL_Driver/Src/stm32l5xx_hal_pwr_ex.c ****   * @brief Enable the Power Voltage Monitoring 2: VDDIO2 versus 0.9 V.
 598:../../Drivers/STM32L5xx_HAL_Driver/Src/stm32l5xx_hal_pwr_ex.c ****   * @retval None
 599:../../Drivers/STM32L5xx_HAL_Driver/Src/stm32l5xx_hal_pwr_ex.c ****   */
 600:../../Drivers/STM32L5xx_HAL_Driver/Src/stm32l5xx_hal_pwr_ex.c **** void HAL_PWREx_EnablePVM2(void)
 601:../../Drivers/STM32L5xx_HAL_Driver/Src/stm32l5xx_hal_pwr_ex.c **** {
 1136              		.loc 1 601 1 is_stmt 1 view -0
 1137              		.cfi_startproc
 1138              		@ args = 0, pretend = 0, frame = 0
 1139              		@ frame_needed = 0, uses_anonymous_args = 0
 1140              		@ link register save eliminated.
 602:../../Drivers/STM32L5xx_HAL_Driver/Src/stm32l5xx_hal_pwr_ex.c ****   SET_BIT(PWR->CR2, PWR_PVM_2);
 1141              		.loc 1 602 3 view .LVU240
 1142 0000 024A     		ldr	r2, .L98
 1143 0002 5368     		ldr	r3, [r2, #4]
 1144 0004 43F02003 		orr	r3, r3, #32
 1145 0008 5360     		str	r3, [r2, #4]
 603:../../Drivers/STM32L5xx_HAL_Driver/Src/stm32l5xx_hal_pwr_ex.c **** }
 1146              		.loc 1 603 1 is_stmt 0 view .LVU241
 1147 000a 7047     		bx	lr
 1148              	.L99:
 1149              		.align	2
 1150              	.L98:
 1151 000c 00700040 		.word	1073770496
 1152              		.cfi_endproc
 1153              	.LFE171:
 1155              		.section	.text.HAL_PWREx_DisablePVM2,"ax",%progbits
 1156              		.align	1
 1157              		.global	HAL_PWREx_DisablePVM2
 1158              		.syntax unified
 1159              		.thumb
 1160              		.thumb_func
 1162              	HAL_PWREx_DisablePVM2:
 1163              	.LFB172:
 604:../../Drivers/STM32L5xx_HAL_Driver/Src/stm32l5xx_hal_pwr_ex.c **** 
 605:../../Drivers/STM32L5xx_HAL_Driver/Src/stm32l5xx_hal_pwr_ex.c **** /**
 606:../../Drivers/STM32L5xx_HAL_Driver/Src/stm32l5xx_hal_pwr_ex.c ****   * @brief Disable the Power Voltage Monitoring 2: VDDIO2 versus 0.9 V.
 607:../../Drivers/STM32L5xx_HAL_Driver/Src/stm32l5xx_hal_pwr_ex.c ****   * @retval None
ARM GAS  /tmp/ccUwd8WC.s 			page 32


 608:../../Drivers/STM32L5xx_HAL_Driver/Src/stm32l5xx_hal_pwr_ex.c ****   */
 609:../../Drivers/STM32L5xx_HAL_Driver/Src/stm32l5xx_hal_pwr_ex.c **** void HAL_PWREx_DisablePVM2(void)
 610:../../Drivers/STM32L5xx_HAL_Driver/Src/stm32l5xx_hal_pwr_ex.c **** {
 1164              		.loc 1 610 1 is_stmt 1 view -0
 1165              		.cfi_startproc
 1166              		@ args = 0, pretend = 0, frame = 0
 1167              		@ frame_needed = 0, uses_anonymous_args = 0
 1168              		@ link register save eliminated.
 611:../../Drivers/STM32L5xx_HAL_Driver/Src/stm32l5xx_hal_pwr_ex.c ****   CLEAR_BIT(PWR->CR2, PWR_PVM_2);
 1169              		.loc 1 611 3 view .LVU243
 1170 0000 024A     		ldr	r2, .L101
 1171 0002 5368     		ldr	r3, [r2, #4]
 1172 0004 23F02003 		bic	r3, r3, #32
 1173 0008 5360     		str	r3, [r2, #4]
 612:../../Drivers/STM32L5xx_HAL_Driver/Src/stm32l5xx_hal_pwr_ex.c **** }
 1174              		.loc 1 612 1 is_stmt 0 view .LVU244
 1175 000a 7047     		bx	lr
 1176              	.L102:
 1177              		.align	2
 1178              	.L101:
 1179 000c 00700040 		.word	1073770496
 1180              		.cfi_endproc
 1181              	.LFE172:
 1183              		.section	.text.HAL_PWREx_EnablePVM3,"ax",%progbits
 1184              		.align	1
 1185              		.global	HAL_PWREx_EnablePVM3
 1186              		.syntax unified
 1187              		.thumb
 1188              		.thumb_func
 1190              	HAL_PWREx_EnablePVM3:
 1191              	.LFB173:
 613:../../Drivers/STM32L5xx_HAL_Driver/Src/stm32l5xx_hal_pwr_ex.c **** 
 614:../../Drivers/STM32L5xx_HAL_Driver/Src/stm32l5xx_hal_pwr_ex.c **** 
 615:../../Drivers/STM32L5xx_HAL_Driver/Src/stm32l5xx_hal_pwr_ex.c **** /**
 616:../../Drivers/STM32L5xx_HAL_Driver/Src/stm32l5xx_hal_pwr_ex.c ****   * @brief Enable the Power Voltage Monitoring 3: VDDA versus 1.62 V.
 617:../../Drivers/STM32L5xx_HAL_Driver/Src/stm32l5xx_hal_pwr_ex.c ****   * @retval None
 618:../../Drivers/STM32L5xx_HAL_Driver/Src/stm32l5xx_hal_pwr_ex.c ****   */
 619:../../Drivers/STM32L5xx_HAL_Driver/Src/stm32l5xx_hal_pwr_ex.c **** void HAL_PWREx_EnablePVM3(void)
 620:../../Drivers/STM32L5xx_HAL_Driver/Src/stm32l5xx_hal_pwr_ex.c **** {
 1192              		.loc 1 620 1 is_stmt 1 view -0
 1193              		.cfi_startproc
 1194              		@ args = 0, pretend = 0, frame = 0
 1195              		@ frame_needed = 0, uses_anonymous_args = 0
 1196              		@ link register save eliminated.
 621:../../Drivers/STM32L5xx_HAL_Driver/Src/stm32l5xx_hal_pwr_ex.c ****   SET_BIT(PWR->CR2, PWR_PVM_3);
 1197              		.loc 1 621 3 view .LVU246
 1198 0000 024A     		ldr	r2, .L104
 1199 0002 5368     		ldr	r3, [r2, #4]
 1200 0004 43F04003 		orr	r3, r3, #64
 1201 0008 5360     		str	r3, [r2, #4]
 622:../../Drivers/STM32L5xx_HAL_Driver/Src/stm32l5xx_hal_pwr_ex.c **** }
 1202              		.loc 1 622 1 is_stmt 0 view .LVU247
 1203 000a 7047     		bx	lr
 1204              	.L105:
 1205              		.align	2
 1206              	.L104:
 1207 000c 00700040 		.word	1073770496
ARM GAS  /tmp/ccUwd8WC.s 			page 33


 1208              		.cfi_endproc
 1209              	.LFE173:
 1211              		.section	.text.HAL_PWREx_DisablePVM3,"ax",%progbits
 1212              		.align	1
 1213              		.global	HAL_PWREx_DisablePVM3
 1214              		.syntax unified
 1215              		.thumb
 1216              		.thumb_func
 1218              	HAL_PWREx_DisablePVM3:
 1219              	.LFB174:
 623:../../Drivers/STM32L5xx_HAL_Driver/Src/stm32l5xx_hal_pwr_ex.c **** 
 624:../../Drivers/STM32L5xx_HAL_Driver/Src/stm32l5xx_hal_pwr_ex.c **** /**
 625:../../Drivers/STM32L5xx_HAL_Driver/Src/stm32l5xx_hal_pwr_ex.c ****   * @brief Disable the Power Voltage Monitoring 3: VDDA versus 1.62 V.
 626:../../Drivers/STM32L5xx_HAL_Driver/Src/stm32l5xx_hal_pwr_ex.c ****   * @retval None
 627:../../Drivers/STM32L5xx_HAL_Driver/Src/stm32l5xx_hal_pwr_ex.c ****   */
 628:../../Drivers/STM32L5xx_HAL_Driver/Src/stm32l5xx_hal_pwr_ex.c **** void HAL_PWREx_DisablePVM3(void)
 629:../../Drivers/STM32L5xx_HAL_Driver/Src/stm32l5xx_hal_pwr_ex.c **** {
 1220              		.loc 1 629 1 is_stmt 1 view -0
 1221              		.cfi_startproc
 1222              		@ args = 0, pretend = 0, frame = 0
 1223              		@ frame_needed = 0, uses_anonymous_args = 0
 1224              		@ link register save eliminated.
 630:../../Drivers/STM32L5xx_HAL_Driver/Src/stm32l5xx_hal_pwr_ex.c ****   CLEAR_BIT(PWR->CR2, PWR_PVM_3);
 1225              		.loc 1 630 3 view .LVU249
 1226 0000 024A     		ldr	r2, .L107
 1227 0002 5368     		ldr	r3, [r2, #4]
 1228 0004 23F04003 		bic	r3, r3, #64
 1229 0008 5360     		str	r3, [r2, #4]
 631:../../Drivers/STM32L5xx_HAL_Driver/Src/stm32l5xx_hal_pwr_ex.c **** }
 1230              		.loc 1 631 1 is_stmt 0 view .LVU250
 1231 000a 7047     		bx	lr
 1232              	.L108:
 1233              		.align	2
 1234              	.L107:
 1235 000c 00700040 		.word	1073770496
 1236              		.cfi_endproc
 1237              	.LFE174:
 1239              		.section	.text.HAL_PWREx_EnablePVM4,"ax",%progbits
 1240              		.align	1
 1241              		.global	HAL_PWREx_EnablePVM4
 1242              		.syntax unified
 1243              		.thumb
 1244              		.thumb_func
 1246              	HAL_PWREx_EnablePVM4:
 1247              	.LFB175:
 632:../../Drivers/STM32L5xx_HAL_Driver/Src/stm32l5xx_hal_pwr_ex.c **** 
 633:../../Drivers/STM32L5xx_HAL_Driver/Src/stm32l5xx_hal_pwr_ex.c **** 
 634:../../Drivers/STM32L5xx_HAL_Driver/Src/stm32l5xx_hal_pwr_ex.c **** /**
 635:../../Drivers/STM32L5xx_HAL_Driver/Src/stm32l5xx_hal_pwr_ex.c ****   * @brief Enable the Power Voltage Monitoring 4:  VDDA versus 1.8 V.
 636:../../Drivers/STM32L5xx_HAL_Driver/Src/stm32l5xx_hal_pwr_ex.c ****   * @retval None
 637:../../Drivers/STM32L5xx_HAL_Driver/Src/stm32l5xx_hal_pwr_ex.c ****   */
 638:../../Drivers/STM32L5xx_HAL_Driver/Src/stm32l5xx_hal_pwr_ex.c **** void HAL_PWREx_EnablePVM4(void)
 639:../../Drivers/STM32L5xx_HAL_Driver/Src/stm32l5xx_hal_pwr_ex.c **** {
 1248              		.loc 1 639 1 is_stmt 1 view -0
 1249              		.cfi_startproc
 1250              		@ args = 0, pretend = 0, frame = 0
 1251              		@ frame_needed = 0, uses_anonymous_args = 0
ARM GAS  /tmp/ccUwd8WC.s 			page 34


 1252              		@ link register save eliminated.
 640:../../Drivers/STM32L5xx_HAL_Driver/Src/stm32l5xx_hal_pwr_ex.c ****   SET_BIT(PWR->CR2, PWR_PVM_4);
 1253              		.loc 1 640 3 view .LVU252
 1254 0000 024A     		ldr	r2, .L110
 1255 0002 5368     		ldr	r3, [r2, #4]
 1256 0004 43F08003 		orr	r3, r3, #128
 1257 0008 5360     		str	r3, [r2, #4]
 641:../../Drivers/STM32L5xx_HAL_Driver/Src/stm32l5xx_hal_pwr_ex.c **** }
 1258              		.loc 1 641 1 is_stmt 0 view .LVU253
 1259 000a 7047     		bx	lr
 1260              	.L111:
 1261              		.align	2
 1262              	.L110:
 1263 000c 00700040 		.word	1073770496
 1264              		.cfi_endproc
 1265              	.LFE175:
 1267              		.section	.text.HAL_PWREx_DisablePVM4,"ax",%progbits
 1268              		.align	1
 1269              		.global	HAL_PWREx_DisablePVM4
 1270              		.syntax unified
 1271              		.thumb
 1272              		.thumb_func
 1274              	HAL_PWREx_DisablePVM4:
 1275              	.LFB176:
 642:../../Drivers/STM32L5xx_HAL_Driver/Src/stm32l5xx_hal_pwr_ex.c **** 
 643:../../Drivers/STM32L5xx_HAL_Driver/Src/stm32l5xx_hal_pwr_ex.c **** /**
 644:../../Drivers/STM32L5xx_HAL_Driver/Src/stm32l5xx_hal_pwr_ex.c ****   * @brief Disable the Power Voltage Monitoring 4:  VDDA versus 1.8 V.
 645:../../Drivers/STM32L5xx_HAL_Driver/Src/stm32l5xx_hal_pwr_ex.c ****   * @retval None
 646:../../Drivers/STM32L5xx_HAL_Driver/Src/stm32l5xx_hal_pwr_ex.c ****   */
 647:../../Drivers/STM32L5xx_HAL_Driver/Src/stm32l5xx_hal_pwr_ex.c **** void HAL_PWREx_DisablePVM4(void)
 648:../../Drivers/STM32L5xx_HAL_Driver/Src/stm32l5xx_hal_pwr_ex.c **** {
 1276              		.loc 1 648 1 is_stmt 1 view -0
 1277              		.cfi_startproc
 1278              		@ args = 0, pretend = 0, frame = 0
 1279              		@ frame_needed = 0, uses_anonymous_args = 0
 1280              		@ link register save eliminated.
 649:../../Drivers/STM32L5xx_HAL_Driver/Src/stm32l5xx_hal_pwr_ex.c ****   CLEAR_BIT(PWR->CR2, PWR_PVM_4);
 1281              		.loc 1 649 3 view .LVU255
 1282 0000 024A     		ldr	r2, .L113
 1283 0002 5368     		ldr	r3, [r2, #4]
 1284 0004 23F08003 		bic	r3, r3, #128
 1285 0008 5360     		str	r3, [r2, #4]
 650:../../Drivers/STM32L5xx_HAL_Driver/Src/stm32l5xx_hal_pwr_ex.c **** }
 1286              		.loc 1 650 1 is_stmt 0 view .LVU256
 1287 000a 7047     		bx	lr
 1288              	.L114:
 1289              		.align	2
 1290              	.L113:
 1291 000c 00700040 		.word	1073770496
 1292              		.cfi_endproc
 1293              	.LFE176:
 1295              		.section	.text.HAL_PWREx_ConfigPVM,"ax",%progbits
 1296              		.align	1
 1297              		.global	HAL_PWREx_ConfigPVM
 1298              		.syntax unified
 1299              		.thumb
 1300              		.thumb_func
ARM GAS  /tmp/ccUwd8WC.s 			page 35


 1302              	HAL_PWREx_ConfigPVM:
 1303              	.LVL87:
 1304              	.LFB177:
 651:../../Drivers/STM32L5xx_HAL_Driver/Src/stm32l5xx_hal_pwr_ex.c **** 
 652:../../Drivers/STM32L5xx_HAL_Driver/Src/stm32l5xx_hal_pwr_ex.c **** 
 653:../../Drivers/STM32L5xx_HAL_Driver/Src/stm32l5xx_hal_pwr_ex.c **** 
 654:../../Drivers/STM32L5xx_HAL_Driver/Src/stm32l5xx_hal_pwr_ex.c **** 
 655:../../Drivers/STM32L5xx_HAL_Driver/Src/stm32l5xx_hal_pwr_ex.c **** /**
 656:../../Drivers/STM32L5xx_HAL_Driver/Src/stm32l5xx_hal_pwr_ex.c ****   * @brief Configure the Peripheral Voltage Monitoring (PVM).
 657:../../Drivers/STM32L5xx_HAL_Driver/Src/stm32l5xx_hal_pwr_ex.c ****   * @param sConfigPVM pointer to a PWR_PVMTypeDef structure that contains the
 658:../../Drivers/STM32L5xx_HAL_Driver/Src/stm32l5xx_hal_pwr_ex.c ****   *        PVM configuration information.
 659:../../Drivers/STM32L5xx_HAL_Driver/Src/stm32l5xx_hal_pwr_ex.c ****   * @note The API configures a single PVM according to the information contained
 660:../../Drivers/STM32L5xx_HAL_Driver/Src/stm32l5xx_hal_pwr_ex.c ****   *       in the input structure. To configure several PVMs, the API must be singly
 661:../../Drivers/STM32L5xx_HAL_Driver/Src/stm32l5xx_hal_pwr_ex.c ****   *       called for each PVM used.
 662:../../Drivers/STM32L5xx_HAL_Driver/Src/stm32l5xx_hal_pwr_ex.c ****   * @note Refer to the electrical characteristics of your device datasheet for
 663:../../Drivers/STM32L5xx_HAL_Driver/Src/stm32l5xx_hal_pwr_ex.c ****   *         more details about the voltage thresholds corresponding to each
 664:../../Drivers/STM32L5xx_HAL_Driver/Src/stm32l5xx_hal_pwr_ex.c ****   *         detection level and to each monitored supply.
 665:../../Drivers/STM32L5xx_HAL_Driver/Src/stm32l5xx_hal_pwr_ex.c ****   * @retval HAL status
 666:../../Drivers/STM32L5xx_HAL_Driver/Src/stm32l5xx_hal_pwr_ex.c ****   */
 667:../../Drivers/STM32L5xx_HAL_Driver/Src/stm32l5xx_hal_pwr_ex.c **** HAL_StatusTypeDef HAL_PWREx_ConfigPVM(PWR_PVMTypeDef *sConfigPVM)
 668:../../Drivers/STM32L5xx_HAL_Driver/Src/stm32l5xx_hal_pwr_ex.c **** {
 1305              		.loc 1 668 1 is_stmt 1 view -0
 1306              		.cfi_startproc
 1307              		@ args = 0, pretend = 0, frame = 0
 1308              		@ frame_needed = 0, uses_anonymous_args = 0
 1309              		@ link register save eliminated.
 669:../../Drivers/STM32L5xx_HAL_Driver/Src/stm32l5xx_hal_pwr_ex.c ****   HAL_StatusTypeDef status = HAL_OK;
 1310              		.loc 1 669 3 view .LVU258
 670:../../Drivers/STM32L5xx_HAL_Driver/Src/stm32l5xx_hal_pwr_ex.c **** 
 671:../../Drivers/STM32L5xx_HAL_Driver/Src/stm32l5xx_hal_pwr_ex.c ****   /* Check the parameters */
 672:../../Drivers/STM32L5xx_HAL_Driver/Src/stm32l5xx_hal_pwr_ex.c ****   assert_param(IS_PWR_PVM_TYPE(sConfigPVM->PVMType));
 1311              		.loc 1 672 3 view .LVU259
 673:../../Drivers/STM32L5xx_HAL_Driver/Src/stm32l5xx_hal_pwr_ex.c ****   assert_param(IS_PWR_PVM_MODE(sConfigPVM->Mode));
 1312              		.loc 1 673 3 view .LVU260
 674:../../Drivers/STM32L5xx_HAL_Driver/Src/stm32l5xx_hal_pwr_ex.c **** 
 675:../../Drivers/STM32L5xx_HAL_Driver/Src/stm32l5xx_hal_pwr_ex.c **** 
 676:../../Drivers/STM32L5xx_HAL_Driver/Src/stm32l5xx_hal_pwr_ex.c ****   /* Configure EXTI 35 to 38 interrupts if so required:
 677:../../Drivers/STM32L5xx_HAL_Driver/Src/stm32l5xx_hal_pwr_ex.c ****      scan through PVMType to detect which PVMx is set and
 678:../../Drivers/STM32L5xx_HAL_Driver/Src/stm32l5xx_hal_pwr_ex.c ****      configure the corresponding EXTI line accordingly. */
 679:../../Drivers/STM32L5xx_HAL_Driver/Src/stm32l5xx_hal_pwr_ex.c ****   switch (sConfigPVM->PVMType)
 1313              		.loc 1 679 3 view .LVU261
 1314              		.loc 1 679 21 is_stmt 0 view .LVU262
 1315 0000 0368     		ldr	r3, [r0]
 1316              		.loc 1 679 3 view .LVU263
 1317 0002 402B     		cmp	r3, #64
 1318 0004 00F0CB80 		beq	.L116
 1319 0008 46D8     		bhi	.L117
 1320 000a 102B     		cmp	r3, #16
 1321 000c 00F08880 		beq	.L118
 1322 0010 202B     		cmp	r3, #32
 1323 0012 3FD1     		bne	.L138
 680:../../Drivers/STM32L5xx_HAL_Driver/Src/stm32l5xx_hal_pwr_ex.c ****   {
 681:../../Drivers/STM32L5xx_HAL_Driver/Src/stm32l5xx_hal_pwr_ex.c ****     case PWR_PVM_1:
 682:../../Drivers/STM32L5xx_HAL_Driver/Src/stm32l5xx_hal_pwr_ex.c ****       /* Clear any previous config. Keep it clear if no event or IT mode is selected */
 683:../../Drivers/STM32L5xx_HAL_Driver/Src/stm32l5xx_hal_pwr_ex.c ****       __HAL_PWR_PVM1_EXTI_DISABLE_EVENT();
 684:../../Drivers/STM32L5xx_HAL_Driver/Src/stm32l5xx_hal_pwr_ex.c ****       __HAL_PWR_PVM1_EXTI_DISABLE_IT();
 685:../../Drivers/STM32L5xx_HAL_Driver/Src/stm32l5xx_hal_pwr_ex.c ****       __HAL_PWR_PVM1_EXTI_DISABLE_FALLING_EDGE();
ARM GAS  /tmp/ccUwd8WC.s 			page 36


 686:../../Drivers/STM32L5xx_HAL_Driver/Src/stm32l5xx_hal_pwr_ex.c ****       __HAL_PWR_PVM1_EXTI_DISABLE_RISING_EDGE();
 687:../../Drivers/STM32L5xx_HAL_Driver/Src/stm32l5xx_hal_pwr_ex.c **** 
 688:../../Drivers/STM32L5xx_HAL_Driver/Src/stm32l5xx_hal_pwr_ex.c ****       /* Configure interrupt mode */
 689:../../Drivers/STM32L5xx_HAL_Driver/Src/stm32l5xx_hal_pwr_ex.c ****       if ((sConfigPVM->Mode & PVM_MODE_IT) == PVM_MODE_IT)
 690:../../Drivers/STM32L5xx_HAL_Driver/Src/stm32l5xx_hal_pwr_ex.c ****       {
 691:../../Drivers/STM32L5xx_HAL_Driver/Src/stm32l5xx_hal_pwr_ex.c ****         __HAL_PWR_PVM1_EXTI_ENABLE_IT();
 692:../../Drivers/STM32L5xx_HAL_Driver/Src/stm32l5xx_hal_pwr_ex.c ****       }
 693:../../Drivers/STM32L5xx_HAL_Driver/Src/stm32l5xx_hal_pwr_ex.c **** 
 694:../../Drivers/STM32L5xx_HAL_Driver/Src/stm32l5xx_hal_pwr_ex.c ****       /* Configure event mode */
 695:../../Drivers/STM32L5xx_HAL_Driver/Src/stm32l5xx_hal_pwr_ex.c ****       if ((sConfigPVM->Mode & PVM_MODE_EVT) == PVM_MODE_EVT)
 696:../../Drivers/STM32L5xx_HAL_Driver/Src/stm32l5xx_hal_pwr_ex.c ****       {
 697:../../Drivers/STM32L5xx_HAL_Driver/Src/stm32l5xx_hal_pwr_ex.c ****         __HAL_PWR_PVM1_EXTI_ENABLE_EVENT();
 698:../../Drivers/STM32L5xx_HAL_Driver/Src/stm32l5xx_hal_pwr_ex.c ****       }
 699:../../Drivers/STM32L5xx_HAL_Driver/Src/stm32l5xx_hal_pwr_ex.c **** 
 700:../../Drivers/STM32L5xx_HAL_Driver/Src/stm32l5xx_hal_pwr_ex.c ****       /* Configure the edge */
 701:../../Drivers/STM32L5xx_HAL_Driver/Src/stm32l5xx_hal_pwr_ex.c ****       if ((sConfigPVM->Mode & PVM_RISING_EDGE) == PVM_RISING_EDGE)
 702:../../Drivers/STM32L5xx_HAL_Driver/Src/stm32l5xx_hal_pwr_ex.c ****       {
 703:../../Drivers/STM32L5xx_HAL_Driver/Src/stm32l5xx_hal_pwr_ex.c ****         __HAL_PWR_PVM1_EXTI_ENABLE_RISING_EDGE();
 704:../../Drivers/STM32L5xx_HAL_Driver/Src/stm32l5xx_hal_pwr_ex.c ****       }
 705:../../Drivers/STM32L5xx_HAL_Driver/Src/stm32l5xx_hal_pwr_ex.c **** 
 706:../../Drivers/STM32L5xx_HAL_Driver/Src/stm32l5xx_hal_pwr_ex.c ****       if ((sConfigPVM->Mode & PVM_FALLING_EDGE) == PVM_FALLING_EDGE)
 707:../../Drivers/STM32L5xx_HAL_Driver/Src/stm32l5xx_hal_pwr_ex.c ****       {
 708:../../Drivers/STM32L5xx_HAL_Driver/Src/stm32l5xx_hal_pwr_ex.c ****         __HAL_PWR_PVM1_EXTI_ENABLE_FALLING_EDGE();
 709:../../Drivers/STM32L5xx_HAL_Driver/Src/stm32l5xx_hal_pwr_ex.c ****       }
 710:../../Drivers/STM32L5xx_HAL_Driver/Src/stm32l5xx_hal_pwr_ex.c ****       break;
 711:../../Drivers/STM32L5xx_HAL_Driver/Src/stm32l5xx_hal_pwr_ex.c **** 
 712:../../Drivers/STM32L5xx_HAL_Driver/Src/stm32l5xx_hal_pwr_ex.c ****     case PWR_PVM_2:
 713:../../Drivers/STM32L5xx_HAL_Driver/Src/stm32l5xx_hal_pwr_ex.c ****       /* Clear any previous config. Keep it clear if no event or IT mode is selected */
 714:../../Drivers/STM32L5xx_HAL_Driver/Src/stm32l5xx_hal_pwr_ex.c ****       __HAL_PWR_PVM2_EXTI_DISABLE_EVENT();
 1324              		.loc 1 714 7 is_stmt 1 view .LVU264
 1325 0014 854B     		ldr	r3, .L140
 1326 0016 D3F89420 		ldr	r2, [r3, #148]
 1327 001a 22F01002 		bic	r2, r2, #16
 1328 001e C3F89420 		str	r2, [r3, #148]
 715:../../Drivers/STM32L5xx_HAL_Driver/Src/stm32l5xx_hal_pwr_ex.c ****       __HAL_PWR_PVM2_EXTI_DISABLE_IT();
 1329              		.loc 1 715 7 view .LVU265
 1330 0022 D3F89020 		ldr	r2, [r3, #144]
 1331 0026 22F01002 		bic	r2, r2, #16
 1332 002a C3F89020 		str	r2, [r3, #144]
 716:../../Drivers/STM32L5xx_HAL_Driver/Src/stm32l5xx_hal_pwr_ex.c ****       __HAL_PWR_PVM2_EXTI_DISABLE_FALLING_EDGE();
 1333              		.loc 1 716 7 view .LVU266
 1334 002e 5A6A     		ldr	r2, [r3, #36]
 1335 0030 22F01002 		bic	r2, r2, #16
 1336 0034 5A62     		str	r2, [r3, #36]
 717:../../Drivers/STM32L5xx_HAL_Driver/Src/stm32l5xx_hal_pwr_ex.c ****       __HAL_PWR_PVM2_EXTI_DISABLE_RISING_EDGE();
 1337              		.loc 1 717 7 view .LVU267
 1338 0036 1A6A     		ldr	r2, [r3, #32]
 1339 0038 22F01002 		bic	r2, r2, #16
 1340 003c 1A62     		str	r2, [r3, #32]
 718:../../Drivers/STM32L5xx_HAL_Driver/Src/stm32l5xx_hal_pwr_ex.c **** 
 719:../../Drivers/STM32L5xx_HAL_Driver/Src/stm32l5xx_hal_pwr_ex.c ****       /* Configure interrupt mode */
 720:../../Drivers/STM32L5xx_HAL_Driver/Src/stm32l5xx_hal_pwr_ex.c ****       if ((sConfigPVM->Mode & PVM_MODE_IT) == PVM_MODE_IT)
 1341              		.loc 1 720 7 view .LVU268
 1342              		.loc 1 720 22 is_stmt 0 view .LVU269
 1343 003e 4368     		ldr	r3, [r0, #4]
 1344              		.loc 1 720 10 view .LVU270
 1345 0040 13F4803F 		tst	r3, #65536
ARM GAS  /tmp/ccUwd8WC.s 			page 37


 1346 0044 06D0     		beq	.L125
 721:../../Drivers/STM32L5xx_HAL_Driver/Src/stm32l5xx_hal_pwr_ex.c ****       {
 722:../../Drivers/STM32L5xx_HAL_Driver/Src/stm32l5xx_hal_pwr_ex.c ****         __HAL_PWR_PVM2_EXTI_ENABLE_IT();
 1347              		.loc 1 722 9 is_stmt 1 view .LVU271
 1348 0046 794A     		ldr	r2, .L140
 1349 0048 D2F89030 		ldr	r3, [r2, #144]
 1350 004c 43F01003 		orr	r3, r3, #16
 1351 0050 C2F89030 		str	r3, [r2, #144]
 1352              	.L125:
 723:../../Drivers/STM32L5xx_HAL_Driver/Src/stm32l5xx_hal_pwr_ex.c ****       }
 724:../../Drivers/STM32L5xx_HAL_Driver/Src/stm32l5xx_hal_pwr_ex.c **** 
 725:../../Drivers/STM32L5xx_HAL_Driver/Src/stm32l5xx_hal_pwr_ex.c ****       /* Configure event mode */
 726:../../Drivers/STM32L5xx_HAL_Driver/Src/stm32l5xx_hal_pwr_ex.c ****       if ((sConfigPVM->Mode & PVM_MODE_EVT) == PVM_MODE_EVT)
 1353              		.loc 1 726 7 view .LVU272
 1354              		.loc 1 726 22 is_stmt 0 view .LVU273
 1355 0054 4368     		ldr	r3, [r0, #4]
 1356              		.loc 1 726 10 view .LVU274
 1357 0056 13F4003F 		tst	r3, #131072
 1358 005a 06D0     		beq	.L126
 727:../../Drivers/STM32L5xx_HAL_Driver/Src/stm32l5xx_hal_pwr_ex.c ****       {
 728:../../Drivers/STM32L5xx_HAL_Driver/Src/stm32l5xx_hal_pwr_ex.c ****         __HAL_PWR_PVM2_EXTI_ENABLE_EVENT();
 1359              		.loc 1 728 9 is_stmt 1 view .LVU275
 1360 005c 734A     		ldr	r2, .L140
 1361 005e D2F89430 		ldr	r3, [r2, #148]
 1362 0062 43F01003 		orr	r3, r3, #16
 1363 0066 C2F89430 		str	r3, [r2, #148]
 1364              	.L126:
 729:../../Drivers/STM32L5xx_HAL_Driver/Src/stm32l5xx_hal_pwr_ex.c ****       }
 730:../../Drivers/STM32L5xx_HAL_Driver/Src/stm32l5xx_hal_pwr_ex.c **** 
 731:../../Drivers/STM32L5xx_HAL_Driver/Src/stm32l5xx_hal_pwr_ex.c ****       /* Configure the edge */
 732:../../Drivers/STM32L5xx_HAL_Driver/Src/stm32l5xx_hal_pwr_ex.c ****       if ((sConfigPVM->Mode & PVM_RISING_EDGE) == PVM_RISING_EDGE)
 1365              		.loc 1 732 7 view .LVU276
 1366              		.loc 1 732 22 is_stmt 0 view .LVU277
 1367 006a 4368     		ldr	r3, [r0, #4]
 1368              		.loc 1 732 10 view .LVU278
 1369 006c 13F0010F 		tst	r3, #1
 1370 0070 04D0     		beq	.L127
 733:../../Drivers/STM32L5xx_HAL_Driver/Src/stm32l5xx_hal_pwr_ex.c ****       {
 734:../../Drivers/STM32L5xx_HAL_Driver/Src/stm32l5xx_hal_pwr_ex.c ****         __HAL_PWR_PVM2_EXTI_ENABLE_RISING_EDGE();
 1371              		.loc 1 734 9 is_stmt 1 view .LVU279
 1372 0072 6E4A     		ldr	r2, .L140
 1373 0074 136A     		ldr	r3, [r2, #32]
 1374 0076 43F01003 		orr	r3, r3, #16
 1375 007a 1362     		str	r3, [r2, #32]
 1376              	.L127:
 735:../../Drivers/STM32L5xx_HAL_Driver/Src/stm32l5xx_hal_pwr_ex.c ****       }
 736:../../Drivers/STM32L5xx_HAL_Driver/Src/stm32l5xx_hal_pwr_ex.c **** 
 737:../../Drivers/STM32L5xx_HAL_Driver/Src/stm32l5xx_hal_pwr_ex.c ****       if ((sConfigPVM->Mode & PVM_FALLING_EDGE) == PVM_FALLING_EDGE)
 1377              		.loc 1 737 7 view .LVU280
 1378              		.loc 1 737 22 is_stmt 0 view .LVU281
 1379 007c 4368     		ldr	r3, [r0, #4]
 1380              		.loc 1 737 10 view .LVU282
 1381 007e 13F0020F 		tst	r3, #2
 1382 0082 00F0CD80 		beq	.L135
 738:../../Drivers/STM32L5xx_HAL_Driver/Src/stm32l5xx_hal_pwr_ex.c ****       {
 739:../../Drivers/STM32L5xx_HAL_Driver/Src/stm32l5xx_hal_pwr_ex.c ****         __HAL_PWR_PVM2_EXTI_ENABLE_FALLING_EDGE();
 1383              		.loc 1 739 9 is_stmt 1 view .LVU283
ARM GAS  /tmp/ccUwd8WC.s 			page 38


 1384 0086 694A     		ldr	r2, .L140
 1385 0088 536A     		ldr	r3, [r2, #36]
 1386 008a 43F01003 		orr	r3, r3, #16
 1387 008e 5362     		str	r3, [r2, #36]
 669:../../Drivers/STM32L5xx_HAL_Driver/Src/stm32l5xx_hal_pwr_ex.c **** 
 1388              		.loc 1 669 21 is_stmt 0 view .LVU284
 1389 0090 0020     		movs	r0, #0
 1390              	.LVL88:
 669:../../Drivers/STM32L5xx_HAL_Driver/Src/stm32l5xx_hal_pwr_ex.c **** 
 1391              		.loc 1 669 21 view .LVU285
 1392 0092 7047     		bx	lr
 1393              	.LVL89:
 1394              	.L138:
 679:../../Drivers/STM32L5xx_HAL_Driver/Src/stm32l5xx_hal_pwr_ex.c ****   {
 1395              		.loc 1 679 3 view .LVU286
 1396 0094 0120     		movs	r0, #1
 1397              	.LVL90:
 679:../../Drivers/STM32L5xx_HAL_Driver/Src/stm32l5xx_hal_pwr_ex.c ****   {
 1398              		.loc 1 679 3 view .LVU287
 1399 0096 7047     		bx	lr
 1400              	.LVL91:
 1401              	.L117:
 679:../../Drivers/STM32L5xx_HAL_Driver/Src/stm32l5xx_hal_pwr_ex.c ****   {
 1402              		.loc 1 679 3 view .LVU288
 1403 0098 802B     		cmp	r3, #128
 1404 009a 3FD1     		bne	.L139
 740:../../Drivers/STM32L5xx_HAL_Driver/Src/stm32l5xx_hal_pwr_ex.c ****       }
 741:../../Drivers/STM32L5xx_HAL_Driver/Src/stm32l5xx_hal_pwr_ex.c ****       break;
 742:../../Drivers/STM32L5xx_HAL_Driver/Src/stm32l5xx_hal_pwr_ex.c **** 
 743:../../Drivers/STM32L5xx_HAL_Driver/Src/stm32l5xx_hal_pwr_ex.c ****     case PWR_PVM_3:
 744:../../Drivers/STM32L5xx_HAL_Driver/Src/stm32l5xx_hal_pwr_ex.c ****       /* Clear any previous config. Keep it clear if no event or IT mode is selected */
 745:../../Drivers/STM32L5xx_HAL_Driver/Src/stm32l5xx_hal_pwr_ex.c ****       __HAL_PWR_PVM3_EXTI_DISABLE_EVENT();
 746:../../Drivers/STM32L5xx_HAL_Driver/Src/stm32l5xx_hal_pwr_ex.c ****       __HAL_PWR_PVM3_EXTI_DISABLE_IT();
 747:../../Drivers/STM32L5xx_HAL_Driver/Src/stm32l5xx_hal_pwr_ex.c ****       __HAL_PWR_PVM3_EXTI_DISABLE_FALLING_EDGE();
 748:../../Drivers/STM32L5xx_HAL_Driver/Src/stm32l5xx_hal_pwr_ex.c ****       __HAL_PWR_PVM3_EXTI_DISABLE_RISING_EDGE();
 749:../../Drivers/STM32L5xx_HAL_Driver/Src/stm32l5xx_hal_pwr_ex.c **** 
 750:../../Drivers/STM32L5xx_HAL_Driver/Src/stm32l5xx_hal_pwr_ex.c ****       /* Configure interrupt mode */
 751:../../Drivers/STM32L5xx_HAL_Driver/Src/stm32l5xx_hal_pwr_ex.c ****       if ((sConfigPVM->Mode & PVM_MODE_IT) == PVM_MODE_IT)
 752:../../Drivers/STM32L5xx_HAL_Driver/Src/stm32l5xx_hal_pwr_ex.c ****       {
 753:../../Drivers/STM32L5xx_HAL_Driver/Src/stm32l5xx_hal_pwr_ex.c ****         __HAL_PWR_PVM3_EXTI_ENABLE_IT();
 754:../../Drivers/STM32L5xx_HAL_Driver/Src/stm32l5xx_hal_pwr_ex.c ****       }
 755:../../Drivers/STM32L5xx_HAL_Driver/Src/stm32l5xx_hal_pwr_ex.c **** 
 756:../../Drivers/STM32L5xx_HAL_Driver/Src/stm32l5xx_hal_pwr_ex.c ****       /* Configure event mode */
 757:../../Drivers/STM32L5xx_HAL_Driver/Src/stm32l5xx_hal_pwr_ex.c ****       if ((sConfigPVM->Mode & PVM_MODE_EVT) == PVM_MODE_EVT)
 758:../../Drivers/STM32L5xx_HAL_Driver/Src/stm32l5xx_hal_pwr_ex.c ****       {
 759:../../Drivers/STM32L5xx_HAL_Driver/Src/stm32l5xx_hal_pwr_ex.c ****         __HAL_PWR_PVM3_EXTI_ENABLE_EVENT();
 760:../../Drivers/STM32L5xx_HAL_Driver/Src/stm32l5xx_hal_pwr_ex.c ****       }
 761:../../Drivers/STM32L5xx_HAL_Driver/Src/stm32l5xx_hal_pwr_ex.c **** 
 762:../../Drivers/STM32L5xx_HAL_Driver/Src/stm32l5xx_hal_pwr_ex.c ****       /* Configure the edge */
 763:../../Drivers/STM32L5xx_HAL_Driver/Src/stm32l5xx_hal_pwr_ex.c ****       if ((sConfigPVM->Mode & PVM_RISING_EDGE) == PVM_RISING_EDGE)
 764:../../Drivers/STM32L5xx_HAL_Driver/Src/stm32l5xx_hal_pwr_ex.c ****       {
 765:../../Drivers/STM32L5xx_HAL_Driver/Src/stm32l5xx_hal_pwr_ex.c ****         __HAL_PWR_PVM3_EXTI_ENABLE_RISING_EDGE();
 766:../../Drivers/STM32L5xx_HAL_Driver/Src/stm32l5xx_hal_pwr_ex.c ****       }
 767:../../Drivers/STM32L5xx_HAL_Driver/Src/stm32l5xx_hal_pwr_ex.c **** 
 768:../../Drivers/STM32L5xx_HAL_Driver/Src/stm32l5xx_hal_pwr_ex.c ****       if ((sConfigPVM->Mode & PVM_FALLING_EDGE) == PVM_FALLING_EDGE)
 769:../../Drivers/STM32L5xx_HAL_Driver/Src/stm32l5xx_hal_pwr_ex.c ****       {
 770:../../Drivers/STM32L5xx_HAL_Driver/Src/stm32l5xx_hal_pwr_ex.c ****         __HAL_PWR_PVM3_EXTI_ENABLE_FALLING_EDGE();
ARM GAS  /tmp/ccUwd8WC.s 			page 39


 771:../../Drivers/STM32L5xx_HAL_Driver/Src/stm32l5xx_hal_pwr_ex.c ****       }
 772:../../Drivers/STM32L5xx_HAL_Driver/Src/stm32l5xx_hal_pwr_ex.c ****       break;
 773:../../Drivers/STM32L5xx_HAL_Driver/Src/stm32l5xx_hal_pwr_ex.c **** 
 774:../../Drivers/STM32L5xx_HAL_Driver/Src/stm32l5xx_hal_pwr_ex.c ****     case PWR_PVM_4:
 775:../../Drivers/STM32L5xx_HAL_Driver/Src/stm32l5xx_hal_pwr_ex.c ****       /* Clear any previous config. Keep it clear if no event or IT mode is selected */
 776:../../Drivers/STM32L5xx_HAL_Driver/Src/stm32l5xx_hal_pwr_ex.c ****       __HAL_PWR_PVM4_EXTI_DISABLE_EVENT();
 1405              		.loc 1 776 7 is_stmt 1 view .LVU289
 1406 009c 634B     		ldr	r3, .L140
 1407 009e D3F89420 		ldr	r2, [r3, #148]
 1408 00a2 22F04002 		bic	r2, r2, #64
 1409 00a6 C3F89420 		str	r2, [r3, #148]
 777:../../Drivers/STM32L5xx_HAL_Driver/Src/stm32l5xx_hal_pwr_ex.c ****       __HAL_PWR_PVM4_EXTI_DISABLE_IT();
 1410              		.loc 1 777 7 view .LVU290
 1411 00aa D3F89020 		ldr	r2, [r3, #144]
 1412 00ae 22F04002 		bic	r2, r2, #64
 1413 00b2 C3F89020 		str	r2, [r3, #144]
 778:../../Drivers/STM32L5xx_HAL_Driver/Src/stm32l5xx_hal_pwr_ex.c ****       __HAL_PWR_PVM4_EXTI_DISABLE_FALLING_EDGE();
 1414              		.loc 1 778 7 view .LVU291
 1415 00b6 5A6A     		ldr	r2, [r3, #36]
 1416 00b8 22F04002 		bic	r2, r2, #64
 1417 00bc 5A62     		str	r2, [r3, #36]
 779:../../Drivers/STM32L5xx_HAL_Driver/Src/stm32l5xx_hal_pwr_ex.c ****       __HAL_PWR_PVM4_EXTI_DISABLE_RISING_EDGE();
 1418              		.loc 1 779 7 view .LVU292
 1419 00be 1A6A     		ldr	r2, [r3, #32]
 1420 00c0 22F04002 		bic	r2, r2, #64
 1421 00c4 1A62     		str	r2, [r3, #32]
 780:../../Drivers/STM32L5xx_HAL_Driver/Src/stm32l5xx_hal_pwr_ex.c **** 
 781:../../Drivers/STM32L5xx_HAL_Driver/Src/stm32l5xx_hal_pwr_ex.c ****       /* Configure interrupt mode */
 782:../../Drivers/STM32L5xx_HAL_Driver/Src/stm32l5xx_hal_pwr_ex.c ****       if ((sConfigPVM->Mode & PVM_MODE_IT) == PVM_MODE_IT)
 1422              		.loc 1 782 7 view .LVU293
 1423              		.loc 1 782 22 is_stmt 0 view .LVU294
 1424 00c6 4368     		ldr	r3, [r0, #4]
 1425              		.loc 1 782 10 view .LVU295
 1426 00c8 13F4803F 		tst	r3, #65536
 1427 00cc 06D0     		beq	.L131
 783:../../Drivers/STM32L5xx_HAL_Driver/Src/stm32l5xx_hal_pwr_ex.c ****       {
 784:../../Drivers/STM32L5xx_HAL_Driver/Src/stm32l5xx_hal_pwr_ex.c ****         __HAL_PWR_PVM4_EXTI_ENABLE_IT();
 1428              		.loc 1 784 9 is_stmt 1 view .LVU296
 1429 00ce 574A     		ldr	r2, .L140
 1430 00d0 D2F89030 		ldr	r3, [r2, #144]
 1431 00d4 43F04003 		orr	r3, r3, #64
 1432 00d8 C2F89030 		str	r3, [r2, #144]
 1433              	.L131:
 785:../../Drivers/STM32L5xx_HAL_Driver/Src/stm32l5xx_hal_pwr_ex.c ****       }
 786:../../Drivers/STM32L5xx_HAL_Driver/Src/stm32l5xx_hal_pwr_ex.c **** 
 787:../../Drivers/STM32L5xx_HAL_Driver/Src/stm32l5xx_hal_pwr_ex.c ****       /* Configure event mode */
 788:../../Drivers/STM32L5xx_HAL_Driver/Src/stm32l5xx_hal_pwr_ex.c ****       if ((sConfigPVM->Mode & PVM_MODE_EVT) == PVM_MODE_EVT)
 1434              		.loc 1 788 7 view .LVU297
 1435              		.loc 1 788 22 is_stmt 0 view .LVU298
 1436 00dc 4368     		ldr	r3, [r0, #4]
 1437              		.loc 1 788 10 view .LVU299
 1438 00de 13F4003F 		tst	r3, #131072
 1439 00e2 06D0     		beq	.L132
 789:../../Drivers/STM32L5xx_HAL_Driver/Src/stm32l5xx_hal_pwr_ex.c ****       {
 790:../../Drivers/STM32L5xx_HAL_Driver/Src/stm32l5xx_hal_pwr_ex.c ****         __HAL_PWR_PVM4_EXTI_ENABLE_EVENT();
 1440              		.loc 1 790 9 is_stmt 1 view .LVU300
 1441 00e4 514A     		ldr	r2, .L140
ARM GAS  /tmp/ccUwd8WC.s 			page 40


 1442 00e6 D2F89430 		ldr	r3, [r2, #148]
 1443 00ea 43F04003 		orr	r3, r3, #64
 1444 00ee C2F89430 		str	r3, [r2, #148]
 1445              	.L132:
 791:../../Drivers/STM32L5xx_HAL_Driver/Src/stm32l5xx_hal_pwr_ex.c ****       }
 792:../../Drivers/STM32L5xx_HAL_Driver/Src/stm32l5xx_hal_pwr_ex.c **** 
 793:../../Drivers/STM32L5xx_HAL_Driver/Src/stm32l5xx_hal_pwr_ex.c ****       /* Configure the edge */
 794:../../Drivers/STM32L5xx_HAL_Driver/Src/stm32l5xx_hal_pwr_ex.c ****       if ((sConfigPVM->Mode & PVM_RISING_EDGE) == PVM_RISING_EDGE)
 1446              		.loc 1 794 7 view .LVU301
 1447              		.loc 1 794 22 is_stmt 0 view .LVU302
 1448 00f2 4368     		ldr	r3, [r0, #4]
 1449              		.loc 1 794 10 view .LVU303
 1450 00f4 13F0010F 		tst	r3, #1
 1451 00f8 04D0     		beq	.L133
 795:../../Drivers/STM32L5xx_HAL_Driver/Src/stm32l5xx_hal_pwr_ex.c ****       {
 796:../../Drivers/STM32L5xx_HAL_Driver/Src/stm32l5xx_hal_pwr_ex.c ****         __HAL_PWR_PVM4_EXTI_ENABLE_RISING_EDGE();
 1452              		.loc 1 796 9 is_stmt 1 view .LVU304
 1453 00fa 4C4A     		ldr	r2, .L140
 1454 00fc 136A     		ldr	r3, [r2, #32]
 1455 00fe 43F04003 		orr	r3, r3, #64
 1456 0102 1362     		str	r3, [r2, #32]
 1457              	.L133:
 797:../../Drivers/STM32L5xx_HAL_Driver/Src/stm32l5xx_hal_pwr_ex.c ****       }
 798:../../Drivers/STM32L5xx_HAL_Driver/Src/stm32l5xx_hal_pwr_ex.c **** 
 799:../../Drivers/STM32L5xx_HAL_Driver/Src/stm32l5xx_hal_pwr_ex.c ****       if ((sConfigPVM->Mode & PVM_FALLING_EDGE) == PVM_FALLING_EDGE)
 1458              		.loc 1 799 7 view .LVU305
 1459              		.loc 1 799 22 is_stmt 0 view .LVU306
 1460 0104 4368     		ldr	r3, [r0, #4]
 1461              		.loc 1 799 10 view .LVU307
 1462 0106 13F0020F 		tst	r3, #2
 1463 010a 00F08D80 		beq	.L137
 800:../../Drivers/STM32L5xx_HAL_Driver/Src/stm32l5xx_hal_pwr_ex.c ****       {
 801:../../Drivers/STM32L5xx_HAL_Driver/Src/stm32l5xx_hal_pwr_ex.c ****         __HAL_PWR_PVM4_EXTI_ENABLE_FALLING_EDGE();
 1464              		.loc 1 801 9 is_stmt 1 view .LVU308
 1465 010e 474A     		ldr	r2, .L140
 1466 0110 536A     		ldr	r3, [r2, #36]
 1467 0112 43F04003 		orr	r3, r3, #64
 1468 0116 5362     		str	r3, [r2, #36]
 669:../../Drivers/STM32L5xx_HAL_Driver/Src/stm32l5xx_hal_pwr_ex.c **** 
 1469              		.loc 1 669 21 is_stmt 0 view .LVU309
 1470 0118 0020     		movs	r0, #0
 1471              	.LVL92:
 669:../../Drivers/STM32L5xx_HAL_Driver/Src/stm32l5xx_hal_pwr_ex.c **** 
 1472              		.loc 1 669 21 view .LVU310
 1473 011a 7047     		bx	lr
 1474              	.LVL93:
 1475              	.L139:
 679:../../Drivers/STM32L5xx_HAL_Driver/Src/stm32l5xx_hal_pwr_ex.c ****   {
 1476              		.loc 1 679 3 view .LVU311
 1477 011c 0120     		movs	r0, #1
 1478              	.LVL94:
 679:../../Drivers/STM32L5xx_HAL_Driver/Src/stm32l5xx_hal_pwr_ex.c ****   {
 1479              		.loc 1 679 3 view .LVU312
 1480 011e 7047     		bx	lr
 1481              	.LVL95:
 1482              	.L118:
 683:../../Drivers/STM32L5xx_HAL_Driver/Src/stm32l5xx_hal_pwr_ex.c ****       __HAL_PWR_PVM1_EXTI_DISABLE_IT();
ARM GAS  /tmp/ccUwd8WC.s 			page 41


 1483              		.loc 1 683 7 is_stmt 1 view .LVU313
 1484 0120 424B     		ldr	r3, .L140
 1485 0122 D3F89420 		ldr	r2, [r3, #148]
 1486 0126 22F00802 		bic	r2, r2, #8
 1487 012a C3F89420 		str	r2, [r3, #148]
 684:../../Drivers/STM32L5xx_HAL_Driver/Src/stm32l5xx_hal_pwr_ex.c ****       __HAL_PWR_PVM1_EXTI_DISABLE_FALLING_EDGE();
 1488              		.loc 1 684 7 view .LVU314
 1489 012e D3F89020 		ldr	r2, [r3, #144]
 1490 0132 22F00802 		bic	r2, r2, #8
 1491 0136 C3F89020 		str	r2, [r3, #144]
 685:../../Drivers/STM32L5xx_HAL_Driver/Src/stm32l5xx_hal_pwr_ex.c ****       __HAL_PWR_PVM1_EXTI_DISABLE_RISING_EDGE();
 1492              		.loc 1 685 7 view .LVU315
 1493 013a 5A6A     		ldr	r2, [r3, #36]
 1494 013c 22F00802 		bic	r2, r2, #8
 1495 0140 5A62     		str	r2, [r3, #36]
 686:../../Drivers/STM32L5xx_HAL_Driver/Src/stm32l5xx_hal_pwr_ex.c **** 
 1496              		.loc 1 686 7 view .LVU316
 1497 0142 1A6A     		ldr	r2, [r3, #32]
 1498 0144 22F00802 		bic	r2, r2, #8
 1499 0148 1A62     		str	r2, [r3, #32]
 689:../../Drivers/STM32L5xx_HAL_Driver/Src/stm32l5xx_hal_pwr_ex.c ****       {
 1500              		.loc 1 689 7 view .LVU317
 689:../../Drivers/STM32L5xx_HAL_Driver/Src/stm32l5xx_hal_pwr_ex.c ****       {
 1501              		.loc 1 689 22 is_stmt 0 view .LVU318
 1502 014a 4368     		ldr	r3, [r0, #4]
 689:../../Drivers/STM32L5xx_HAL_Driver/Src/stm32l5xx_hal_pwr_ex.c ****       {
 1503              		.loc 1 689 10 view .LVU319
 1504 014c 13F4803F 		tst	r3, #65536
 1505 0150 06D0     		beq	.L122
 691:../../Drivers/STM32L5xx_HAL_Driver/Src/stm32l5xx_hal_pwr_ex.c ****       }
 1506              		.loc 1 691 9 is_stmt 1 view .LVU320
 1507 0152 364A     		ldr	r2, .L140
 1508 0154 D2F89030 		ldr	r3, [r2, #144]
 1509 0158 43F00803 		orr	r3, r3, #8
 1510 015c C2F89030 		str	r3, [r2, #144]
 1511              	.L122:
 695:../../Drivers/STM32L5xx_HAL_Driver/Src/stm32l5xx_hal_pwr_ex.c ****       {
 1512              		.loc 1 695 7 view .LVU321
 695:../../Drivers/STM32L5xx_HAL_Driver/Src/stm32l5xx_hal_pwr_ex.c ****       {
 1513              		.loc 1 695 22 is_stmt 0 view .LVU322
 1514 0160 4368     		ldr	r3, [r0, #4]
 695:../../Drivers/STM32L5xx_HAL_Driver/Src/stm32l5xx_hal_pwr_ex.c ****       {
 1515              		.loc 1 695 10 view .LVU323
 1516 0162 13F4003F 		tst	r3, #131072
 1517 0166 06D0     		beq	.L123
 697:../../Drivers/STM32L5xx_HAL_Driver/Src/stm32l5xx_hal_pwr_ex.c ****       }
 1518              		.loc 1 697 9 is_stmt 1 view .LVU324
 1519 0168 304A     		ldr	r2, .L140
 1520 016a D2F89430 		ldr	r3, [r2, #148]
 1521 016e 43F00803 		orr	r3, r3, #8
 1522 0172 C2F89430 		str	r3, [r2, #148]
 1523              	.L123:
 701:../../Drivers/STM32L5xx_HAL_Driver/Src/stm32l5xx_hal_pwr_ex.c ****       {
 1524              		.loc 1 701 7 view .LVU325
 701:../../Drivers/STM32L5xx_HAL_Driver/Src/stm32l5xx_hal_pwr_ex.c ****       {
 1525              		.loc 1 701 22 is_stmt 0 view .LVU326
 1526 0176 4368     		ldr	r3, [r0, #4]
ARM GAS  /tmp/ccUwd8WC.s 			page 42


 701:../../Drivers/STM32L5xx_HAL_Driver/Src/stm32l5xx_hal_pwr_ex.c ****       {
 1527              		.loc 1 701 10 view .LVU327
 1528 0178 13F0010F 		tst	r3, #1
 1529 017c 04D0     		beq	.L124
 703:../../Drivers/STM32L5xx_HAL_Driver/Src/stm32l5xx_hal_pwr_ex.c ****       }
 1530              		.loc 1 703 9 is_stmt 1 view .LVU328
 1531 017e 2B4A     		ldr	r2, .L140
 1532 0180 136A     		ldr	r3, [r2, #32]
 1533 0182 43F00803 		orr	r3, r3, #8
 1534 0186 1362     		str	r3, [r2, #32]
 1535              	.L124:
 706:../../Drivers/STM32L5xx_HAL_Driver/Src/stm32l5xx_hal_pwr_ex.c ****       {
 1536              		.loc 1 706 7 view .LVU329
 706:../../Drivers/STM32L5xx_HAL_Driver/Src/stm32l5xx_hal_pwr_ex.c ****       {
 1537              		.loc 1 706 22 is_stmt 0 view .LVU330
 1538 0188 4368     		ldr	r3, [r0, #4]
 706:../../Drivers/STM32L5xx_HAL_Driver/Src/stm32l5xx_hal_pwr_ex.c ****       {
 1539              		.loc 1 706 10 view .LVU331
 1540 018a 13F0020F 		tst	r3, #2
 1541 018e 45D0     		beq	.L134
 708:../../Drivers/STM32L5xx_HAL_Driver/Src/stm32l5xx_hal_pwr_ex.c ****       }
 1542              		.loc 1 708 9 is_stmt 1 view .LVU332
 1543 0190 264A     		ldr	r2, .L140
 1544 0192 536A     		ldr	r3, [r2, #36]
 1545 0194 43F00803 		orr	r3, r3, #8
 1546 0198 5362     		str	r3, [r2, #36]
 669:../../Drivers/STM32L5xx_HAL_Driver/Src/stm32l5xx_hal_pwr_ex.c **** 
 1547              		.loc 1 669 21 is_stmt 0 view .LVU333
 1548 019a 0020     		movs	r0, #0
 1549              	.LVL96:
 669:../../Drivers/STM32L5xx_HAL_Driver/Src/stm32l5xx_hal_pwr_ex.c **** 
 1550              		.loc 1 669 21 view .LVU334
 1551 019c 7047     		bx	lr
 1552              	.LVL97:
 1553              	.L116:
 745:../../Drivers/STM32L5xx_HAL_Driver/Src/stm32l5xx_hal_pwr_ex.c ****       __HAL_PWR_PVM3_EXTI_DISABLE_IT();
 1554              		.loc 1 745 7 is_stmt 1 view .LVU335
 1555 019e 234B     		ldr	r3, .L140
 1556 01a0 D3F89420 		ldr	r2, [r3, #148]
 1557 01a4 22F02002 		bic	r2, r2, #32
 1558 01a8 C3F89420 		str	r2, [r3, #148]
 746:../../Drivers/STM32L5xx_HAL_Driver/Src/stm32l5xx_hal_pwr_ex.c ****       __HAL_PWR_PVM3_EXTI_DISABLE_FALLING_EDGE();
 1559              		.loc 1 746 7 view .LVU336
 1560 01ac D3F89020 		ldr	r2, [r3, #144]
 1561 01b0 22F02002 		bic	r2, r2, #32
 1562 01b4 C3F89020 		str	r2, [r3, #144]
 747:../../Drivers/STM32L5xx_HAL_Driver/Src/stm32l5xx_hal_pwr_ex.c ****       __HAL_PWR_PVM3_EXTI_DISABLE_RISING_EDGE();
 1563              		.loc 1 747 7 view .LVU337
 1564 01b8 5A6A     		ldr	r2, [r3, #36]
 1565 01ba 22F02002 		bic	r2, r2, #32
 1566 01be 5A62     		str	r2, [r3, #36]
 748:../../Drivers/STM32L5xx_HAL_Driver/Src/stm32l5xx_hal_pwr_ex.c **** 
 1567              		.loc 1 748 7 view .LVU338
 1568 01c0 1A6A     		ldr	r2, [r3, #32]
 1569 01c2 22F02002 		bic	r2, r2, #32
 1570 01c6 1A62     		str	r2, [r3, #32]
 751:../../Drivers/STM32L5xx_HAL_Driver/Src/stm32l5xx_hal_pwr_ex.c ****       {
ARM GAS  /tmp/ccUwd8WC.s 			page 43


 1571              		.loc 1 751 7 view .LVU339
 751:../../Drivers/STM32L5xx_HAL_Driver/Src/stm32l5xx_hal_pwr_ex.c ****       {
 1572              		.loc 1 751 22 is_stmt 0 view .LVU340
 1573 01c8 4368     		ldr	r3, [r0, #4]
 751:../../Drivers/STM32L5xx_HAL_Driver/Src/stm32l5xx_hal_pwr_ex.c ****       {
 1574              		.loc 1 751 10 view .LVU341
 1575 01ca 13F4803F 		tst	r3, #65536
 1576 01ce 06D0     		beq	.L128
 753:../../Drivers/STM32L5xx_HAL_Driver/Src/stm32l5xx_hal_pwr_ex.c ****       }
 1577              		.loc 1 753 9 is_stmt 1 view .LVU342
 1578 01d0 164A     		ldr	r2, .L140
 1579 01d2 D2F89030 		ldr	r3, [r2, #144]
 1580 01d6 43F02003 		orr	r3, r3, #32
 1581 01da C2F89030 		str	r3, [r2, #144]
 1582              	.L128:
 757:../../Drivers/STM32L5xx_HAL_Driver/Src/stm32l5xx_hal_pwr_ex.c ****       {
 1583              		.loc 1 757 7 view .LVU343
 757:../../Drivers/STM32L5xx_HAL_Driver/Src/stm32l5xx_hal_pwr_ex.c ****       {
 1584              		.loc 1 757 22 is_stmt 0 view .LVU344
 1585 01de 4368     		ldr	r3, [r0, #4]
 757:../../Drivers/STM32L5xx_HAL_Driver/Src/stm32l5xx_hal_pwr_ex.c ****       {
 1586              		.loc 1 757 10 view .LVU345
 1587 01e0 13F4003F 		tst	r3, #131072
 1588 01e4 06D0     		beq	.L129
 759:../../Drivers/STM32L5xx_HAL_Driver/Src/stm32l5xx_hal_pwr_ex.c ****       }
 1589              		.loc 1 759 9 is_stmt 1 view .LVU346
 1590 01e6 114A     		ldr	r2, .L140
 1591 01e8 D2F89430 		ldr	r3, [r2, #148]
 1592 01ec 43F02003 		orr	r3, r3, #32
 1593 01f0 C2F89430 		str	r3, [r2, #148]
 1594              	.L129:
 763:../../Drivers/STM32L5xx_HAL_Driver/Src/stm32l5xx_hal_pwr_ex.c ****       {
 1595              		.loc 1 763 7 view .LVU347
 763:../../Drivers/STM32L5xx_HAL_Driver/Src/stm32l5xx_hal_pwr_ex.c ****       {
 1596              		.loc 1 763 22 is_stmt 0 view .LVU348
 1597 01f4 4368     		ldr	r3, [r0, #4]
 763:../../Drivers/STM32L5xx_HAL_Driver/Src/stm32l5xx_hal_pwr_ex.c ****       {
 1598              		.loc 1 763 10 view .LVU349
 1599 01f6 13F0010F 		tst	r3, #1
 1600 01fa 04D0     		beq	.L130
 765:../../Drivers/STM32L5xx_HAL_Driver/Src/stm32l5xx_hal_pwr_ex.c ****       }
 1601              		.loc 1 765 9 is_stmt 1 view .LVU350
 1602 01fc 0B4A     		ldr	r2, .L140
 1603 01fe 136A     		ldr	r3, [r2, #32]
 1604 0200 43F02003 		orr	r3, r3, #32
 1605 0204 1362     		str	r3, [r2, #32]
 1606              	.L130:
 768:../../Drivers/STM32L5xx_HAL_Driver/Src/stm32l5xx_hal_pwr_ex.c ****       {
 1607              		.loc 1 768 7 view .LVU351
 768:../../Drivers/STM32L5xx_HAL_Driver/Src/stm32l5xx_hal_pwr_ex.c ****       {
 1608              		.loc 1 768 22 is_stmt 0 view .LVU352
 1609 0206 4368     		ldr	r3, [r0, #4]
 768:../../Drivers/STM32L5xx_HAL_Driver/Src/stm32l5xx_hal_pwr_ex.c ****       {
 1610              		.loc 1 768 10 view .LVU353
 1611 0208 13F0020F 		tst	r3, #2
 1612 020c 0AD0     		beq	.L136
 770:../../Drivers/STM32L5xx_HAL_Driver/Src/stm32l5xx_hal_pwr_ex.c ****       }
ARM GAS  /tmp/ccUwd8WC.s 			page 44


 1613              		.loc 1 770 9 is_stmt 1 view .LVU354
 1614 020e 074A     		ldr	r2, .L140
 1615 0210 536A     		ldr	r3, [r2, #36]
 1616 0212 43F02003 		orr	r3, r3, #32
 1617 0216 5362     		str	r3, [r2, #36]
 669:../../Drivers/STM32L5xx_HAL_Driver/Src/stm32l5xx_hal_pwr_ex.c **** 
 1618              		.loc 1 669 21 is_stmt 0 view .LVU355
 1619 0218 0020     		movs	r0, #0
 1620              	.LVL98:
 669:../../Drivers/STM32L5xx_HAL_Driver/Src/stm32l5xx_hal_pwr_ex.c **** 
 1621              		.loc 1 669 21 view .LVU356
 1622 021a 7047     		bx	lr
 1623              	.LVL99:
 1624              	.L134:
 669:../../Drivers/STM32L5xx_HAL_Driver/Src/stm32l5xx_hal_pwr_ex.c **** 
 1625              		.loc 1 669 21 view .LVU357
 1626 021c 0020     		movs	r0, #0
 1627              	.LVL100:
 669:../../Drivers/STM32L5xx_HAL_Driver/Src/stm32l5xx_hal_pwr_ex.c **** 
 1628              		.loc 1 669 21 view .LVU358
 1629 021e 7047     		bx	lr
 1630              	.LVL101:
 1631              	.L135:
 669:../../Drivers/STM32L5xx_HAL_Driver/Src/stm32l5xx_hal_pwr_ex.c **** 
 1632              		.loc 1 669 21 view .LVU359
 1633 0220 0020     		movs	r0, #0
 1634              	.LVL102:
 669:../../Drivers/STM32L5xx_HAL_Driver/Src/stm32l5xx_hal_pwr_ex.c **** 
 1635              		.loc 1 669 21 view .LVU360
 1636 0222 7047     		bx	lr
 1637              	.LVL103:
 1638              	.L136:
 669:../../Drivers/STM32L5xx_HAL_Driver/Src/stm32l5xx_hal_pwr_ex.c **** 
 1639              		.loc 1 669 21 view .LVU361
 1640 0224 0020     		movs	r0, #0
 1641              	.LVL104:
 669:../../Drivers/STM32L5xx_HAL_Driver/Src/stm32l5xx_hal_pwr_ex.c **** 
 1642              		.loc 1 669 21 view .LVU362
 1643 0226 7047     		bx	lr
 1644              	.LVL105:
 1645              	.L137:
 669:../../Drivers/STM32L5xx_HAL_Driver/Src/stm32l5xx_hal_pwr_ex.c **** 
 1646              		.loc 1 669 21 view .LVU363
 1647 0228 0020     		movs	r0, #0
 1648              	.LVL106:
 802:../../Drivers/STM32L5xx_HAL_Driver/Src/stm32l5xx_hal_pwr_ex.c ****       }
 803:../../Drivers/STM32L5xx_HAL_Driver/Src/stm32l5xx_hal_pwr_ex.c ****       break;
 804:../../Drivers/STM32L5xx_HAL_Driver/Src/stm32l5xx_hal_pwr_ex.c **** 
 805:../../Drivers/STM32L5xx_HAL_Driver/Src/stm32l5xx_hal_pwr_ex.c ****     default:
 806:../../Drivers/STM32L5xx_HAL_Driver/Src/stm32l5xx_hal_pwr_ex.c ****       status = HAL_ERROR;
 807:../../Drivers/STM32L5xx_HAL_Driver/Src/stm32l5xx_hal_pwr_ex.c ****       break;
 808:../../Drivers/STM32L5xx_HAL_Driver/Src/stm32l5xx_hal_pwr_ex.c ****   }
 809:../../Drivers/STM32L5xx_HAL_Driver/Src/stm32l5xx_hal_pwr_ex.c **** 
 810:../../Drivers/STM32L5xx_HAL_Driver/Src/stm32l5xx_hal_pwr_ex.c ****   return status;
 1649              		.loc 1 810 3 is_stmt 1 view .LVU364
 811:../../Drivers/STM32L5xx_HAL_Driver/Src/stm32l5xx_hal_pwr_ex.c **** }
 1650              		.loc 1 811 1 is_stmt 0 view .LVU365
ARM GAS  /tmp/ccUwd8WC.s 			page 45


 1651 022a 7047     		bx	lr
 1652              	.L141:
 1653              		.align	2
 1654              	.L140:
 1655 022c 00F40240 		.word	1073935360
 1656              		.cfi_endproc
 1657              	.LFE177:
 1659              		.section	.text.HAL_PWREx_EnableLowPowerRunMode,"ax",%progbits
 1660              		.align	1
 1661              		.global	HAL_PWREx_EnableLowPowerRunMode
 1662              		.syntax unified
 1663              		.thumb
 1664              		.thumb_func
 1666              	HAL_PWREx_EnableLowPowerRunMode:
 1667              	.LFB178:
 812:../../Drivers/STM32L5xx_HAL_Driver/Src/stm32l5xx_hal_pwr_ex.c **** 
 813:../../Drivers/STM32L5xx_HAL_Driver/Src/stm32l5xx_hal_pwr_ex.c **** 
 814:../../Drivers/STM32L5xx_HAL_Driver/Src/stm32l5xx_hal_pwr_ex.c **** 
 815:../../Drivers/STM32L5xx_HAL_Driver/Src/stm32l5xx_hal_pwr_ex.c **** /**
 816:../../Drivers/STM32L5xx_HAL_Driver/Src/stm32l5xx_hal_pwr_ex.c ****   * @brief Enter Low-power Run mode
 817:../../Drivers/STM32L5xx_HAL_Driver/Src/stm32l5xx_hal_pwr_ex.c ****   * @note  In Low-power Run mode, all I/O pins keep the same state as in Run mode.
 818:../../Drivers/STM32L5xx_HAL_Driver/Src/stm32l5xx_hal_pwr_ex.c ****   * @note  When Regulator is set to PWR_LOWPOWERREGULATOR_ON, the user can optionally configure the
 819:../../Drivers/STM32L5xx_HAL_Driver/Src/stm32l5xx_hal_pwr_ex.c ****   *        Flash in power-down monde in setting the RUN_PD bit in FLASH_ACR register.
 820:../../Drivers/STM32L5xx_HAL_Driver/Src/stm32l5xx_hal_pwr_ex.c ****   *        Additionally, the clock frequency must be reduced below 2 MHz.
 821:../../Drivers/STM32L5xx_HAL_Driver/Src/stm32l5xx_hal_pwr_ex.c ****   *        Setting RUN_PD in FLASH_ACR then appropriately reducing the clock frequency must
 822:../../Drivers/STM32L5xx_HAL_Driver/Src/stm32l5xx_hal_pwr_ex.c ****   *        be done before calling HAL_PWREx_EnableLowPowerRunMode() API.
 823:../../Drivers/STM32L5xx_HAL_Driver/Src/stm32l5xx_hal_pwr_ex.c ****   * @retval None
 824:../../Drivers/STM32L5xx_HAL_Driver/Src/stm32l5xx_hal_pwr_ex.c ****   */
 825:../../Drivers/STM32L5xx_HAL_Driver/Src/stm32l5xx_hal_pwr_ex.c **** void HAL_PWREx_EnableLowPowerRunMode(void)
 826:../../Drivers/STM32L5xx_HAL_Driver/Src/stm32l5xx_hal_pwr_ex.c **** {
 1668              		.loc 1 826 1 is_stmt 1 view -0
 1669              		.cfi_startproc
 1670              		@ args = 0, pretend = 0, frame = 0
 1671              		@ frame_needed = 0, uses_anonymous_args = 0
 1672              		@ link register save eliminated.
 827:../../Drivers/STM32L5xx_HAL_Driver/Src/stm32l5xx_hal_pwr_ex.c ****   /* Set Regulator parameter */
 828:../../Drivers/STM32L5xx_HAL_Driver/Src/stm32l5xx_hal_pwr_ex.c ****   SET_BIT(PWR->CR1, PWR_CR1_LPR);
 1673              		.loc 1 828 3 view .LVU367
 1674 0000 024A     		ldr	r2, .L143
 1675 0002 1368     		ldr	r3, [r2]
 1676 0004 43F48043 		orr	r3, r3, #16384
 1677 0008 1360     		str	r3, [r2]
 829:../../Drivers/STM32L5xx_HAL_Driver/Src/stm32l5xx_hal_pwr_ex.c **** }
 1678              		.loc 1 829 1 is_stmt 0 view .LVU368
 1679 000a 7047     		bx	lr
 1680              	.L144:
 1681              		.align	2
 1682              	.L143:
 1683 000c 00700040 		.word	1073770496
 1684              		.cfi_endproc
 1685              	.LFE178:
 1687              		.section	.text.HAL_PWREx_DisableLowPowerRunMode,"ax",%progbits
 1688              		.align	1
 1689              		.global	HAL_PWREx_DisableLowPowerRunMode
 1690              		.syntax unified
 1691              		.thumb
 1692              		.thumb_func
ARM GAS  /tmp/ccUwd8WC.s 			page 46


 1694              	HAL_PWREx_DisableLowPowerRunMode:
 1695              	.LFB179:
 830:../../Drivers/STM32L5xx_HAL_Driver/Src/stm32l5xx_hal_pwr_ex.c **** 
 831:../../Drivers/STM32L5xx_HAL_Driver/Src/stm32l5xx_hal_pwr_ex.c **** 
 832:../../Drivers/STM32L5xx_HAL_Driver/Src/stm32l5xx_hal_pwr_ex.c **** /**
 833:../../Drivers/STM32L5xx_HAL_Driver/Src/stm32l5xx_hal_pwr_ex.c ****   * @brief Exit Low-power Run mode.
 834:../../Drivers/STM32L5xx_HAL_Driver/Src/stm32l5xx_hal_pwr_ex.c ****   * @note  Before HAL_PWREx_DisableLowPowerRunMode() completion, the function checks that
 835:../../Drivers/STM32L5xx_HAL_Driver/Src/stm32l5xx_hal_pwr_ex.c ****   *        REGLPF has been properly reset (otherwise, HAL_PWREx_DisableLowPowerRunMode
 836:../../Drivers/STM32L5xx_HAL_Driver/Src/stm32l5xx_hal_pwr_ex.c ****   *        returns HAL_TIMEOUT status). The system clock frequency can then be
 837:../../Drivers/STM32L5xx_HAL_Driver/Src/stm32l5xx_hal_pwr_ex.c ****   *        increased above 2 MHz.
 838:../../Drivers/STM32L5xx_HAL_Driver/Src/stm32l5xx_hal_pwr_ex.c ****   * @retval HAL Status
 839:../../Drivers/STM32L5xx_HAL_Driver/Src/stm32l5xx_hal_pwr_ex.c ****   */
 840:../../Drivers/STM32L5xx_HAL_Driver/Src/stm32l5xx_hal_pwr_ex.c **** HAL_StatusTypeDef HAL_PWREx_DisableLowPowerRunMode(void)
 841:../../Drivers/STM32L5xx_HAL_Driver/Src/stm32l5xx_hal_pwr_ex.c **** {
 1696              		.loc 1 841 1 is_stmt 1 view -0
 1697              		.cfi_startproc
 1698              		@ args = 0, pretend = 0, frame = 0
 1699              		@ frame_needed = 0, uses_anonymous_args = 0
 1700              		@ link register save eliminated.
 842:../../Drivers/STM32L5xx_HAL_Driver/Src/stm32l5xx_hal_pwr_ex.c ****   uint32_t wait_loop_index;
 1701              		.loc 1 842 3 view .LVU370
 843:../../Drivers/STM32L5xx_HAL_Driver/Src/stm32l5xx_hal_pwr_ex.c **** 
 844:../../Drivers/STM32L5xx_HAL_Driver/Src/stm32l5xx_hal_pwr_ex.c ****   /* Clear LPR bit */
 845:../../Drivers/STM32L5xx_HAL_Driver/Src/stm32l5xx_hal_pwr_ex.c ****   CLEAR_BIT(PWR->CR1, PWR_CR1_LPR);
 1702              		.loc 1 845 3 view .LVU371
 1703 0000 134A     		ldr	r2, .L151
 1704 0002 1368     		ldr	r3, [r2]
 1705 0004 23F48043 		bic	r3, r3, #16384
 1706 0008 1360     		str	r3, [r2]
 846:../../Drivers/STM32L5xx_HAL_Driver/Src/stm32l5xx_hal_pwr_ex.c **** 
 847:../../Drivers/STM32L5xx_HAL_Driver/Src/stm32l5xx_hal_pwr_ex.c ****   /* Wait until REGLPF is reset */
 848:../../Drivers/STM32L5xx_HAL_Driver/Src/stm32l5xx_hal_pwr_ex.c ****   /* and at least one iteration loop */
 849:../../Drivers/STM32L5xx_HAL_Driver/Src/stm32l5xx_hal_pwr_ex.c ****   wait_loop_index = ((PWR_REGLP_SETTING_DELAY_VALUE * (SystemCoreClock / 100000U)) / 10U) + 1U;
 1707              		.loc 1 849 3 view .LVU372
 1708              		.loc 1 849 72 is_stmt 0 view .LVU373
 1709 000a 124B     		ldr	r3, .L151+4
 1710 000c 1B68     		ldr	r3, [r3]
 1711 000e 5B09     		lsrs	r3, r3, #5
 1712 0010 114A     		ldr	r2, .L151+8
 1713 0012 A2FB0323 		umull	r2, r3, r2, r3
 1714 0016 DB09     		lsrs	r3, r3, #7
 1715              		.loc 1 849 53 view .LVU374
 1716 0018 4FF49672 		mov	r2, #300
 1717 001c 02FB03F3 		mul	r3, r2, r3
 1718              		.loc 1 849 84 view .LVU375
 1719 0020 0E4A     		ldr	r2, .L151+12
 1720 0022 A2FB0323 		umull	r2, r3, r2, r3
 1721 0026 DB08     		lsrs	r3, r3, #3
 1722              		.loc 1 849 19 view .LVU376
 1723 0028 0133     		adds	r3, r3, #1
 1724              	.LVL107:
 850:../../Drivers/STM32L5xx_HAL_Driver/Src/stm32l5xx_hal_pwr_ex.c **** 
 851:../../Drivers/STM32L5xx_HAL_Driver/Src/stm32l5xx_hal_pwr_ex.c ****   while ((HAL_IS_BIT_SET(PWR->SR2, PWR_SR2_REGLPF)) && (wait_loop_index != 0U))
 1725              		.loc 1 851 3 is_stmt 1 view .LVU377
 1726              		.loc 1 851 9 is_stmt 0 view .LVU378
 1727 002a 00E0     		b	.L146
 1728              	.L148:
ARM GAS  /tmp/ccUwd8WC.s 			page 47


 852:../../Drivers/STM32L5xx_HAL_Driver/Src/stm32l5xx_hal_pwr_ex.c ****   {
 853:../../Drivers/STM32L5xx_HAL_Driver/Src/stm32l5xx_hal_pwr_ex.c ****     wait_loop_index--;
 1729              		.loc 1 853 5 is_stmt 1 view .LVU379
 1730              		.loc 1 853 20 is_stmt 0 view .LVU380
 1731 002c 013B     		subs	r3, r3, #1
 1732              	.LVL108:
 1733              	.L146:
 851:../../Drivers/STM32L5xx_HAL_Driver/Src/stm32l5xx_hal_pwr_ex.c ****   {
 1734              		.loc 1 851 53 is_stmt 1 view .LVU381
 851:../../Drivers/STM32L5xx_HAL_Driver/Src/stm32l5xx_hal_pwr_ex.c ****   {
 1735              		.loc 1 851 11 is_stmt 0 view .LVU382
 1736 002e 084A     		ldr	r2, .L151
 1737 0030 5269     		ldr	r2, [r2, #20]
 851:../../Drivers/STM32L5xx_HAL_Driver/Src/stm32l5xx_hal_pwr_ex.c ****   {
 1738              		.loc 1 851 53 view .LVU383
 1739 0032 12F4007F 		tst	r2, #512
 1740 0036 01D0     		beq	.L147
 851:../../Drivers/STM32L5xx_HAL_Driver/Src/stm32l5xx_hal_pwr_ex.c ****   {
 1741              		.loc 1 851 53 discriminator 1 view .LVU384
 1742 0038 002B     		cmp	r3, #0
 1743 003a F7D1     		bne	.L148
 1744              	.L147:
 854:../../Drivers/STM32L5xx_HAL_Driver/Src/stm32l5xx_hal_pwr_ex.c ****   }
 855:../../Drivers/STM32L5xx_HAL_Driver/Src/stm32l5xx_hal_pwr_ex.c ****   if (HAL_IS_BIT_SET(PWR->SR2, PWR_SR2_REGLPF))
 1745              		.loc 1 855 3 is_stmt 1 view .LVU385
 1746              		.loc 1 855 7 is_stmt 0 view .LVU386
 1747 003c 044B     		ldr	r3, .L151
 1748              	.LVL109:
 1749              		.loc 1 855 7 view .LVU387
 1750 003e 5B69     		ldr	r3, [r3, #20]
 1751              		.loc 1 855 6 view .LVU388
 1752 0040 13F4007F 		tst	r3, #512
 1753 0044 01D1     		bne	.L150
 856:../../Drivers/STM32L5xx_HAL_Driver/Src/stm32l5xx_hal_pwr_ex.c ****   {
 857:../../Drivers/STM32L5xx_HAL_Driver/Src/stm32l5xx_hal_pwr_ex.c ****     return HAL_TIMEOUT;
 858:../../Drivers/STM32L5xx_HAL_Driver/Src/stm32l5xx_hal_pwr_ex.c ****   }
 859:../../Drivers/STM32L5xx_HAL_Driver/Src/stm32l5xx_hal_pwr_ex.c **** 
 860:../../Drivers/STM32L5xx_HAL_Driver/Src/stm32l5xx_hal_pwr_ex.c ****   return HAL_OK;
 1754              		.loc 1 860 10 view .LVU389
 1755 0046 0020     		movs	r0, #0
 1756 0048 7047     		bx	lr
 1757              	.L150:
 857:../../Drivers/STM32L5xx_HAL_Driver/Src/stm32l5xx_hal_pwr_ex.c ****   }
 1758              		.loc 1 857 12 view .LVU390
 1759 004a 0320     		movs	r0, #3
 861:../../Drivers/STM32L5xx_HAL_Driver/Src/stm32l5xx_hal_pwr_ex.c **** }
 1760              		.loc 1 861 1 view .LVU391
 1761 004c 7047     		bx	lr
 1762              	.L152:
 1763 004e 00BF     		.align	2
 1764              	.L151:
 1765 0050 00700040 		.word	1073770496
 1766 0054 00000000 		.word	SystemCoreClock
 1767 0058 C55A7C0A 		.word	175921861
 1768 005c CDCCCCCC 		.word	-858993459
 1769              		.cfi_endproc
 1770              	.LFE179:
ARM GAS  /tmp/ccUwd8WC.s 			page 48


 1772              		.section	.text.HAL_PWREx_EnterSTOP0Mode,"ax",%progbits
 1773              		.align	1
 1774              		.global	HAL_PWREx_EnterSTOP0Mode
 1775              		.syntax unified
 1776              		.thumb
 1777              		.thumb_func
 1779              	HAL_PWREx_EnterSTOP0Mode:
 1780              	.LVL110:
 1781              	.LFB180:
 862:../../Drivers/STM32L5xx_HAL_Driver/Src/stm32l5xx_hal_pwr_ex.c **** 
 863:../../Drivers/STM32L5xx_HAL_Driver/Src/stm32l5xx_hal_pwr_ex.c **** 
 864:../../Drivers/STM32L5xx_HAL_Driver/Src/stm32l5xx_hal_pwr_ex.c **** /**
 865:../../Drivers/STM32L5xx_HAL_Driver/Src/stm32l5xx_hal_pwr_ex.c ****   * @brief Enter Stop 0 mode.
 866:../../Drivers/STM32L5xx_HAL_Driver/Src/stm32l5xx_hal_pwr_ex.c ****   * @note  In Stop 0 mode, main and low voltage regulators are ON.
 867:../../Drivers/STM32L5xx_HAL_Driver/Src/stm32l5xx_hal_pwr_ex.c ****   * @note  In Stop 0 mode, all I/O pins keep the same state as in Run mode.
 868:../../Drivers/STM32L5xx_HAL_Driver/Src/stm32l5xx_hal_pwr_ex.c ****   * @note  All clocks in the VCORE domain are stopped; the PLL, the MSI,
 869:../../Drivers/STM32L5xx_HAL_Driver/Src/stm32l5xx_hal_pwr_ex.c ****   *        the HSI and the HSE oscillators are disabled. Some peripherals with the wakeup capabilit
 870:../../Drivers/STM32L5xx_HAL_Driver/Src/stm32l5xx_hal_pwr_ex.c ****   *        (I2Cx, USARTx and LPUART) can switch on the HSI to receive a frame, and switch off the H
 871:../../Drivers/STM32L5xx_HAL_Driver/Src/stm32l5xx_hal_pwr_ex.c ****   *        after receiving the frame if it is not a wakeup frame. In this case, the HSI clock is pr
 872:../../Drivers/STM32L5xx_HAL_Driver/Src/stm32l5xx_hal_pwr_ex.c ****   *        only to the peripheral requesting it.
 873:../../Drivers/STM32L5xx_HAL_Driver/Src/stm32l5xx_hal_pwr_ex.c ****   *        SRAM1, SRAM2 and register contents are preserved.
 874:../../Drivers/STM32L5xx_HAL_Driver/Src/stm32l5xx_hal_pwr_ex.c ****   *        The BOR is available.
 875:../../Drivers/STM32L5xx_HAL_Driver/Src/stm32l5xx_hal_pwr_ex.c ****   * @note  When exiting Stop 0 mode by issuing an interrupt or a wakeup event,
 876:../../Drivers/STM32L5xx_HAL_Driver/Src/stm32l5xx_hal_pwr_ex.c ****   *         the HSI RC oscillator is selected as system clock if STOPWUCK bit in RCC_CFGR register
 877:../../Drivers/STM32L5xx_HAL_Driver/Src/stm32l5xx_hal_pwr_ex.c ****   *         is set; the MSI oscillator is selected if STOPWUCK is cleared.
 878:../../Drivers/STM32L5xx_HAL_Driver/Src/stm32l5xx_hal_pwr_ex.c ****   * @note  By keeping the internal regulator ON during Stop 0 mode, the consumption
 879:../../Drivers/STM32L5xx_HAL_Driver/Src/stm32l5xx_hal_pwr_ex.c ****   *         is higher although the startup time is reduced.
 880:../../Drivers/STM32L5xx_HAL_Driver/Src/stm32l5xx_hal_pwr_ex.c ****   * @param STOPEntry  specifies if Stop mode in entered with WFI or WFE instruction.
 881:../../Drivers/STM32L5xx_HAL_Driver/Src/stm32l5xx_hal_pwr_ex.c ****   *          This parameter can be one of the following values:
 882:../../Drivers/STM32L5xx_HAL_Driver/Src/stm32l5xx_hal_pwr_ex.c ****   *            @arg @ref PWR_STOPENTRY_WFI  Enter Stop mode with WFI instruction
 883:../../Drivers/STM32L5xx_HAL_Driver/Src/stm32l5xx_hal_pwr_ex.c ****   *            @arg @ref PWR_STOPENTRY_WFE  Enter Stop mode with WFE instruction
 884:../../Drivers/STM32L5xx_HAL_Driver/Src/stm32l5xx_hal_pwr_ex.c ****   * @retval None
 885:../../Drivers/STM32L5xx_HAL_Driver/Src/stm32l5xx_hal_pwr_ex.c ****   */
 886:../../Drivers/STM32L5xx_HAL_Driver/Src/stm32l5xx_hal_pwr_ex.c **** void HAL_PWREx_EnterSTOP0Mode(uint8_t STOPEntry)
 887:../../Drivers/STM32L5xx_HAL_Driver/Src/stm32l5xx_hal_pwr_ex.c **** {
 1782              		.loc 1 887 1 is_stmt 1 view -0
 1783              		.cfi_startproc
 1784              		@ args = 0, pretend = 0, frame = 0
 1785              		@ frame_needed = 0, uses_anonymous_args = 0
 1786              		@ link register save eliminated.
 888:../../Drivers/STM32L5xx_HAL_Driver/Src/stm32l5xx_hal_pwr_ex.c ****   /* Check the parameters */
 889:../../Drivers/STM32L5xx_HAL_Driver/Src/stm32l5xx_hal_pwr_ex.c ****   assert_param(IS_PWR_STOP_ENTRY(STOPEntry));
 1787              		.loc 1 889 3 view .LVU393
 890:../../Drivers/STM32L5xx_HAL_Driver/Src/stm32l5xx_hal_pwr_ex.c **** 
 891:../../Drivers/STM32L5xx_HAL_Driver/Src/stm32l5xx_hal_pwr_ex.c ****   /* Stop 0 mode with Main Regulator */
 892:../../Drivers/STM32L5xx_HAL_Driver/Src/stm32l5xx_hal_pwr_ex.c ****   MODIFY_REG(PWR->CR1, PWR_CR1_LPMS, PWR_CR1_LPMS_STOP0);
 1788              		.loc 1 892 3 view .LVU394
 1789 0000 0B4A     		ldr	r2, .L157
 1790 0002 1368     		ldr	r3, [r2]
 1791 0004 23F00703 		bic	r3, r3, #7
 1792 0008 1360     		str	r3, [r2]
 893:../../Drivers/STM32L5xx_HAL_Driver/Src/stm32l5xx_hal_pwr_ex.c **** 
 894:../../Drivers/STM32L5xx_HAL_Driver/Src/stm32l5xx_hal_pwr_ex.c ****   /* Set SLEEPDEEP bit of Cortex System Control Register */
 895:../../Drivers/STM32L5xx_HAL_Driver/Src/stm32l5xx_hal_pwr_ex.c ****   SET_BIT(SCB->SCR, ((uint32_t)SCB_SCR_SLEEPDEEP_Msk));
 1793              		.loc 1 895 3 view .LVU395
 1794 000a 0A4A     		ldr	r2, .L157+4
 1795 000c 1369     		ldr	r3, [r2, #16]
ARM GAS  /tmp/ccUwd8WC.s 			page 49


 1796 000e 43F00403 		orr	r3, r3, #4
 1797 0012 1361     		str	r3, [r2, #16]
 896:../../Drivers/STM32L5xx_HAL_Driver/Src/stm32l5xx_hal_pwr_ex.c **** 
 897:../../Drivers/STM32L5xx_HAL_Driver/Src/stm32l5xx_hal_pwr_ex.c ****   /* Select Stop mode entry --------------------------------------------------*/
 898:../../Drivers/STM32L5xx_HAL_Driver/Src/stm32l5xx_hal_pwr_ex.c ****   if (STOPEntry == PWR_STOPENTRY_WFI)
 1798              		.loc 1 898 3 view .LVU396
 1799              		.loc 1 898 6 is_stmt 0 view .LVU397
 1800 0014 0128     		cmp	r0, #1
 1801 0016 08D0     		beq	.L156
 899:../../Drivers/STM32L5xx_HAL_Driver/Src/stm32l5xx_hal_pwr_ex.c ****   {
 900:../../Drivers/STM32L5xx_HAL_Driver/Src/stm32l5xx_hal_pwr_ex.c ****     /* Request Wait For Interrupt */
 901:../../Drivers/STM32L5xx_HAL_Driver/Src/stm32l5xx_hal_pwr_ex.c ****     __WFI();
 902:../../Drivers/STM32L5xx_HAL_Driver/Src/stm32l5xx_hal_pwr_ex.c ****   }
 903:../../Drivers/STM32L5xx_HAL_Driver/Src/stm32l5xx_hal_pwr_ex.c ****   else
 904:../../Drivers/STM32L5xx_HAL_Driver/Src/stm32l5xx_hal_pwr_ex.c ****   {
 905:../../Drivers/STM32L5xx_HAL_Driver/Src/stm32l5xx_hal_pwr_ex.c ****     /* Request Wait For Event */
 906:../../Drivers/STM32L5xx_HAL_Driver/Src/stm32l5xx_hal_pwr_ex.c ****     __SEV();
 1802              		.loc 1 906 5 is_stmt 1 view .LVU398
 1803              		.syntax unified
 1804              	@ 906 "../../Drivers/STM32L5xx_HAL_Driver/Src/stm32l5xx_hal_pwr_ex.c" 1
 1805 0018 40BF     		sev
 1806              	@ 0 "" 2
 907:../../Drivers/STM32L5xx_HAL_Driver/Src/stm32l5xx_hal_pwr_ex.c ****     __WFE();
 1807              		.loc 1 907 5 view .LVU399
 1808              	@ 907 "../../Drivers/STM32L5xx_HAL_Driver/Src/stm32l5xx_hal_pwr_ex.c" 1
 1809 001a 20BF     		wfe
 1810              	@ 0 "" 2
 908:../../Drivers/STM32L5xx_HAL_Driver/Src/stm32l5xx_hal_pwr_ex.c ****     __WFE();
 1811              		.loc 1 908 5 view .LVU400
 1812              	@ 908 "../../Drivers/STM32L5xx_HAL_Driver/Src/stm32l5xx_hal_pwr_ex.c" 1
 1813 001c 20BF     		wfe
 1814              	@ 0 "" 2
 1815              		.thumb
 1816              		.syntax unified
 1817              	.L155:
 909:../../Drivers/STM32L5xx_HAL_Driver/Src/stm32l5xx_hal_pwr_ex.c ****   }
 910:../../Drivers/STM32L5xx_HAL_Driver/Src/stm32l5xx_hal_pwr_ex.c **** 
 911:../../Drivers/STM32L5xx_HAL_Driver/Src/stm32l5xx_hal_pwr_ex.c ****   /* Reset SLEEPDEEP bit of Cortex System Control Register */
 912:../../Drivers/STM32L5xx_HAL_Driver/Src/stm32l5xx_hal_pwr_ex.c ****   CLEAR_BIT(SCB->SCR, ((uint32_t)SCB_SCR_SLEEPDEEP_Msk));
 1818              		.loc 1 912 3 view .LVU401
 1819 001e 054A     		ldr	r2, .L157+4
 1820 0020 1369     		ldr	r3, [r2, #16]
 1821 0022 23F00403 		bic	r3, r3, #4
 1822 0026 1361     		str	r3, [r2, #16]
 913:../../Drivers/STM32L5xx_HAL_Driver/Src/stm32l5xx_hal_pwr_ex.c **** }
 1823              		.loc 1 913 1 is_stmt 0 view .LVU402
 1824 0028 7047     		bx	lr
 1825              	.L156:
 901:../../Drivers/STM32L5xx_HAL_Driver/Src/stm32l5xx_hal_pwr_ex.c ****   }
 1826              		.loc 1 901 5 is_stmt 1 view .LVU403
 1827              		.syntax unified
 1828              	@ 901 "../../Drivers/STM32L5xx_HAL_Driver/Src/stm32l5xx_hal_pwr_ex.c" 1
 1829 002a 30BF     		wfi
 1830              	@ 0 "" 2
 1831              		.thumb
 1832              		.syntax unified
 1833 002c F7E7     		b	.L155
ARM GAS  /tmp/ccUwd8WC.s 			page 50


 1834              	.L158:
 1835 002e 00BF     		.align	2
 1836              	.L157:
 1837 0030 00700040 		.word	1073770496
 1838 0034 00ED00E0 		.word	-536810240
 1839              		.cfi_endproc
 1840              	.LFE180:
 1842              		.section	.text.HAL_PWREx_EnterSTOP1Mode,"ax",%progbits
 1843              		.align	1
 1844              		.global	HAL_PWREx_EnterSTOP1Mode
 1845              		.syntax unified
 1846              		.thumb
 1847              		.thumb_func
 1849              	HAL_PWREx_EnterSTOP1Mode:
 1850              	.LVL111:
 1851              	.LFB181:
 914:../../Drivers/STM32L5xx_HAL_Driver/Src/stm32l5xx_hal_pwr_ex.c **** 
 915:../../Drivers/STM32L5xx_HAL_Driver/Src/stm32l5xx_hal_pwr_ex.c **** 
 916:../../Drivers/STM32L5xx_HAL_Driver/Src/stm32l5xx_hal_pwr_ex.c **** /**
 917:../../Drivers/STM32L5xx_HAL_Driver/Src/stm32l5xx_hal_pwr_ex.c ****   * @brief Enter Stop 1 mode.
 918:../../Drivers/STM32L5xx_HAL_Driver/Src/stm32l5xx_hal_pwr_ex.c ****   * @note  In Stop 1 mode, only low power voltage regulator is ON.
 919:../../Drivers/STM32L5xx_HAL_Driver/Src/stm32l5xx_hal_pwr_ex.c ****   * @note  In Stop 1 mode, all I/O pins keep the same state as in Run mode.
 920:../../Drivers/STM32L5xx_HAL_Driver/Src/stm32l5xx_hal_pwr_ex.c ****   * @note  All clocks in the VCORE domain are stopped; the PLL, the MSI,
 921:../../Drivers/STM32L5xx_HAL_Driver/Src/stm32l5xx_hal_pwr_ex.c ****   *        the HSI and the HSE oscillators are disabled. Some peripherals with the wakeup capabilit
 922:../../Drivers/STM32L5xx_HAL_Driver/Src/stm32l5xx_hal_pwr_ex.c ****   *        (I2Cx, USARTx and LPUART) can switch on the HSI to receive a frame, and switch off the H
 923:../../Drivers/STM32L5xx_HAL_Driver/Src/stm32l5xx_hal_pwr_ex.c ****   *        after receiving the frame if it is not a wakeup frame. In this case, the HSI clock is pr
 924:../../Drivers/STM32L5xx_HAL_Driver/Src/stm32l5xx_hal_pwr_ex.c ****   *        only to the peripheral requesting it.
 925:../../Drivers/STM32L5xx_HAL_Driver/Src/stm32l5xx_hal_pwr_ex.c ****   *        SRAM1, SRAM2 and register contents are preserved.
 926:../../Drivers/STM32L5xx_HAL_Driver/Src/stm32l5xx_hal_pwr_ex.c ****   *        The BOR is available.
 927:../../Drivers/STM32L5xx_HAL_Driver/Src/stm32l5xx_hal_pwr_ex.c ****   * @note  When exiting Stop 1 mode by issuing an interrupt or a wakeup event,
 928:../../Drivers/STM32L5xx_HAL_Driver/Src/stm32l5xx_hal_pwr_ex.c ****   *         the HSI RC oscillator is selected as system clock if STOPWUCK bit in RCC_CFGR register
 929:../../Drivers/STM32L5xx_HAL_Driver/Src/stm32l5xx_hal_pwr_ex.c ****   *         is set; the MSI oscillator is selected if STOPWUCK is cleared.
 930:../../Drivers/STM32L5xx_HAL_Driver/Src/stm32l5xx_hal_pwr_ex.c ****   * @note  Due to low power mode, an additional startup delay is incurred when waking up from Stop 
 931:../../Drivers/STM32L5xx_HAL_Driver/Src/stm32l5xx_hal_pwr_ex.c ****   * @param STOPEntry  specifies if Stop mode in entered with WFI or WFE instruction.
 932:../../Drivers/STM32L5xx_HAL_Driver/Src/stm32l5xx_hal_pwr_ex.c ****   *          This parameter can be one of the following values:
 933:../../Drivers/STM32L5xx_HAL_Driver/Src/stm32l5xx_hal_pwr_ex.c ****   *            @arg @ref PWR_STOPENTRY_WFI  Enter Stop mode with WFI instruction
 934:../../Drivers/STM32L5xx_HAL_Driver/Src/stm32l5xx_hal_pwr_ex.c ****   *            @arg @ref PWR_STOPENTRY_WFE  Enter Stop mode with WFE instruction
 935:../../Drivers/STM32L5xx_HAL_Driver/Src/stm32l5xx_hal_pwr_ex.c ****   * @retval None
 936:../../Drivers/STM32L5xx_HAL_Driver/Src/stm32l5xx_hal_pwr_ex.c ****   */
 937:../../Drivers/STM32L5xx_HAL_Driver/Src/stm32l5xx_hal_pwr_ex.c **** void HAL_PWREx_EnterSTOP1Mode(uint8_t STOPEntry)
 938:../../Drivers/STM32L5xx_HAL_Driver/Src/stm32l5xx_hal_pwr_ex.c **** {
 1852              		.loc 1 938 1 view -0
 1853              		.cfi_startproc
 1854              		@ args = 0, pretend = 0, frame = 0
 1855              		@ frame_needed = 0, uses_anonymous_args = 0
 1856              		@ link register save eliminated.
 939:../../Drivers/STM32L5xx_HAL_Driver/Src/stm32l5xx_hal_pwr_ex.c ****   /* Check the parameters */
 940:../../Drivers/STM32L5xx_HAL_Driver/Src/stm32l5xx_hal_pwr_ex.c ****   assert_param(IS_PWR_STOP_ENTRY(STOPEntry));
 1857              		.loc 1 940 3 view .LVU405
 941:../../Drivers/STM32L5xx_HAL_Driver/Src/stm32l5xx_hal_pwr_ex.c **** 
 942:../../Drivers/STM32L5xx_HAL_Driver/Src/stm32l5xx_hal_pwr_ex.c ****   /* Stop 1 mode with Low-Power Regulator */
 943:../../Drivers/STM32L5xx_HAL_Driver/Src/stm32l5xx_hal_pwr_ex.c ****   MODIFY_REG(PWR->CR1, PWR_CR1_LPMS, PWR_CR1_LPMS_STOP1);
 1858              		.loc 1 943 3 view .LVU406
 1859 0000 0C4A     		ldr	r2, .L163
 1860 0002 1368     		ldr	r3, [r2]
 1861 0004 23F00703 		bic	r3, r3, #7
 1862 0008 43F00103 		orr	r3, r3, #1
ARM GAS  /tmp/ccUwd8WC.s 			page 51


 1863 000c 1360     		str	r3, [r2]
 944:../../Drivers/STM32L5xx_HAL_Driver/Src/stm32l5xx_hal_pwr_ex.c **** 
 945:../../Drivers/STM32L5xx_HAL_Driver/Src/stm32l5xx_hal_pwr_ex.c ****   /* Set SLEEPDEEP bit of Cortex System Control Register */
 946:../../Drivers/STM32L5xx_HAL_Driver/Src/stm32l5xx_hal_pwr_ex.c ****   SET_BIT(SCB->SCR, ((uint32_t)SCB_SCR_SLEEPDEEP_Msk));
 1864              		.loc 1 946 3 view .LVU407
 1865 000e 0A4A     		ldr	r2, .L163+4
 1866 0010 1369     		ldr	r3, [r2, #16]
 1867 0012 43F00403 		orr	r3, r3, #4
 1868 0016 1361     		str	r3, [r2, #16]
 947:../../Drivers/STM32L5xx_HAL_Driver/Src/stm32l5xx_hal_pwr_ex.c **** 
 948:../../Drivers/STM32L5xx_HAL_Driver/Src/stm32l5xx_hal_pwr_ex.c ****   /* Select Stop mode entry --------------------------------------------------*/
 949:../../Drivers/STM32L5xx_HAL_Driver/Src/stm32l5xx_hal_pwr_ex.c ****   if (STOPEntry == PWR_STOPENTRY_WFI)
 1869              		.loc 1 949 3 view .LVU408
 1870              		.loc 1 949 6 is_stmt 0 view .LVU409
 1871 0018 0128     		cmp	r0, #1
 1872 001a 08D0     		beq	.L162
 950:../../Drivers/STM32L5xx_HAL_Driver/Src/stm32l5xx_hal_pwr_ex.c ****   {
 951:../../Drivers/STM32L5xx_HAL_Driver/Src/stm32l5xx_hal_pwr_ex.c ****     /* Request Wait For Interrupt */
 952:../../Drivers/STM32L5xx_HAL_Driver/Src/stm32l5xx_hal_pwr_ex.c ****     __WFI();
 953:../../Drivers/STM32L5xx_HAL_Driver/Src/stm32l5xx_hal_pwr_ex.c ****   }
 954:../../Drivers/STM32L5xx_HAL_Driver/Src/stm32l5xx_hal_pwr_ex.c ****   else
 955:../../Drivers/STM32L5xx_HAL_Driver/Src/stm32l5xx_hal_pwr_ex.c ****   {
 956:../../Drivers/STM32L5xx_HAL_Driver/Src/stm32l5xx_hal_pwr_ex.c ****     /* Request Wait For Event */
 957:../../Drivers/STM32L5xx_HAL_Driver/Src/stm32l5xx_hal_pwr_ex.c ****     __SEV();
 1873              		.loc 1 957 5 is_stmt 1 view .LVU410
 1874              		.syntax unified
 1875              	@ 957 "../../Drivers/STM32L5xx_HAL_Driver/Src/stm32l5xx_hal_pwr_ex.c" 1
 1876 001c 40BF     		sev
 1877              	@ 0 "" 2
 958:../../Drivers/STM32L5xx_HAL_Driver/Src/stm32l5xx_hal_pwr_ex.c ****     __WFE();
 1878              		.loc 1 958 5 view .LVU411
 1879              	@ 958 "../../Drivers/STM32L5xx_HAL_Driver/Src/stm32l5xx_hal_pwr_ex.c" 1
 1880 001e 20BF     		wfe
 1881              	@ 0 "" 2
 959:../../Drivers/STM32L5xx_HAL_Driver/Src/stm32l5xx_hal_pwr_ex.c ****     __WFE();
 1882              		.loc 1 959 5 view .LVU412
 1883              	@ 959 "../../Drivers/STM32L5xx_HAL_Driver/Src/stm32l5xx_hal_pwr_ex.c" 1
 1884 0020 20BF     		wfe
 1885              	@ 0 "" 2
 1886              		.thumb
 1887              		.syntax unified
 1888              	.L161:
 960:../../Drivers/STM32L5xx_HAL_Driver/Src/stm32l5xx_hal_pwr_ex.c ****   }
 961:../../Drivers/STM32L5xx_HAL_Driver/Src/stm32l5xx_hal_pwr_ex.c **** 
 962:../../Drivers/STM32L5xx_HAL_Driver/Src/stm32l5xx_hal_pwr_ex.c ****   /* Reset SLEEPDEEP bit of Cortex System Control Register */
 963:../../Drivers/STM32L5xx_HAL_Driver/Src/stm32l5xx_hal_pwr_ex.c ****   CLEAR_BIT(SCB->SCR, ((uint32_t)SCB_SCR_SLEEPDEEP_Msk));
 1889              		.loc 1 963 3 view .LVU413
 1890 0022 054A     		ldr	r2, .L163+4
 1891 0024 1369     		ldr	r3, [r2, #16]
 1892 0026 23F00403 		bic	r3, r3, #4
 1893 002a 1361     		str	r3, [r2, #16]
 964:../../Drivers/STM32L5xx_HAL_Driver/Src/stm32l5xx_hal_pwr_ex.c **** }
 1894              		.loc 1 964 1 is_stmt 0 view .LVU414
 1895 002c 7047     		bx	lr
 1896              	.L162:
 952:../../Drivers/STM32L5xx_HAL_Driver/Src/stm32l5xx_hal_pwr_ex.c ****   }
 1897              		.loc 1 952 5 is_stmt 1 view .LVU415
ARM GAS  /tmp/ccUwd8WC.s 			page 52


 1898              		.syntax unified
 1899              	@ 952 "../../Drivers/STM32L5xx_HAL_Driver/Src/stm32l5xx_hal_pwr_ex.c" 1
 1900 002e 30BF     		wfi
 1901              	@ 0 "" 2
 1902              		.thumb
 1903              		.syntax unified
 1904 0030 F7E7     		b	.L161
 1905              	.L164:
 1906 0032 00BF     		.align	2
 1907              	.L163:
 1908 0034 00700040 		.word	1073770496
 1909 0038 00ED00E0 		.word	-536810240
 1910              		.cfi_endproc
 1911              	.LFE181:
 1913              		.section	.text.HAL_PWREx_EnterSTOP2Mode,"ax",%progbits
 1914              		.align	1
 1915              		.global	HAL_PWREx_EnterSTOP2Mode
 1916              		.syntax unified
 1917              		.thumb
 1918              		.thumb_func
 1920              	HAL_PWREx_EnterSTOP2Mode:
 1921              	.LVL112:
 1922              	.LFB182:
 965:../../Drivers/STM32L5xx_HAL_Driver/Src/stm32l5xx_hal_pwr_ex.c **** 
 966:../../Drivers/STM32L5xx_HAL_Driver/Src/stm32l5xx_hal_pwr_ex.c **** 
 967:../../Drivers/STM32L5xx_HAL_Driver/Src/stm32l5xx_hal_pwr_ex.c **** /**
 968:../../Drivers/STM32L5xx_HAL_Driver/Src/stm32l5xx_hal_pwr_ex.c ****   * @brief Enter Stop 2 mode.
 969:../../Drivers/STM32L5xx_HAL_Driver/Src/stm32l5xx_hal_pwr_ex.c ****   * @note  In Stop 2 mode, only low power voltage regulator is ON.
 970:../../Drivers/STM32L5xx_HAL_Driver/Src/stm32l5xx_hal_pwr_ex.c ****   * @note  In Stop 2 mode, all I/O pins keep the same state as in Run mode.
 971:../../Drivers/STM32L5xx_HAL_Driver/Src/stm32l5xx_hal_pwr_ex.c ****   * @note  All clocks in the VCORE domain are stopped, the PLL, the MSI,
 972:../../Drivers/STM32L5xx_HAL_Driver/Src/stm32l5xx_hal_pwr_ex.c ****   *        the HSI and the HSE oscillators are disabled. Some peripherals with wakeup capability
 973:../../Drivers/STM32L5xx_HAL_Driver/Src/stm32l5xx_hal_pwr_ex.c ****   *        (LCD, LPTIM1, I2C3 and LPUART) can switch on the HSI to receive a frame, and switch off 
 974:../../Drivers/STM32L5xx_HAL_Driver/Src/stm32l5xx_hal_pwr_ex.c ****   *        receiving the frame if it is not a wakeup frame. In this case the HSI clock is propagate
 975:../../Drivers/STM32L5xx_HAL_Driver/Src/stm32l5xx_hal_pwr_ex.c ****   *        to the peripheral requesting it.
 976:../../Drivers/STM32L5xx_HAL_Driver/Src/stm32l5xx_hal_pwr_ex.c ****   *        SRAM1, SRAM2 and register contents are preserved.
 977:../../Drivers/STM32L5xx_HAL_Driver/Src/stm32l5xx_hal_pwr_ex.c ****   *        The BOR is available.
 978:../../Drivers/STM32L5xx_HAL_Driver/Src/stm32l5xx_hal_pwr_ex.c ****   *        The voltage regulator is set in low-power mode but LPR bit must be cleared to enter stop
 979:../../Drivers/STM32L5xx_HAL_Driver/Src/stm32l5xx_hal_pwr_ex.c ****   *        Otherwise, Stop 1 mode is entered.
 980:../../Drivers/STM32L5xx_HAL_Driver/Src/stm32l5xx_hal_pwr_ex.c ****   * @note  When exiting Stop 2 mode by issuing an interrupt or a wakeup event,
 981:../../Drivers/STM32L5xx_HAL_Driver/Src/stm32l5xx_hal_pwr_ex.c ****   *         the HSI RC oscillator is selected as system clock if STOPWUCK bit in RCC_CFGR register
 982:../../Drivers/STM32L5xx_HAL_Driver/Src/stm32l5xx_hal_pwr_ex.c ****   *         is set; the MSI oscillator is selected if STOPWUCK is cleared.
 983:../../Drivers/STM32L5xx_HAL_Driver/Src/stm32l5xx_hal_pwr_ex.c ****   * @param STOPEntry  specifies if Stop mode in entered with WFI or WFE instruction.
 984:../../Drivers/STM32L5xx_HAL_Driver/Src/stm32l5xx_hal_pwr_ex.c ****   *          This parameter can be one of the following values:
 985:../../Drivers/STM32L5xx_HAL_Driver/Src/stm32l5xx_hal_pwr_ex.c ****   *            @arg @ref PWR_STOPENTRY_WFI  Enter Stop mode with WFI instruction
 986:../../Drivers/STM32L5xx_HAL_Driver/Src/stm32l5xx_hal_pwr_ex.c ****   *            @arg @ref PWR_STOPENTRY_WFE  Enter Stop mode with WFE instruction
 987:../../Drivers/STM32L5xx_HAL_Driver/Src/stm32l5xx_hal_pwr_ex.c ****   * @retval None
 988:../../Drivers/STM32L5xx_HAL_Driver/Src/stm32l5xx_hal_pwr_ex.c ****   */
 989:../../Drivers/STM32L5xx_HAL_Driver/Src/stm32l5xx_hal_pwr_ex.c **** void HAL_PWREx_EnterSTOP2Mode(uint8_t STOPEntry)
 990:../../Drivers/STM32L5xx_HAL_Driver/Src/stm32l5xx_hal_pwr_ex.c **** {
 1923              		.loc 1 990 1 view -0
 1924              		.cfi_startproc
 1925              		@ args = 0, pretend = 0, frame = 0
 1926              		@ frame_needed = 0, uses_anonymous_args = 0
 1927              		@ link register save eliminated.
 991:../../Drivers/STM32L5xx_HAL_Driver/Src/stm32l5xx_hal_pwr_ex.c ****   /* Check the parameter */
 992:../../Drivers/STM32L5xx_HAL_Driver/Src/stm32l5xx_hal_pwr_ex.c ****   assert_param(IS_PWR_STOP_ENTRY(STOPEntry));
 1928              		.loc 1 992 3 view .LVU417
ARM GAS  /tmp/ccUwd8WC.s 			page 53


 993:../../Drivers/STM32L5xx_HAL_Driver/Src/stm32l5xx_hal_pwr_ex.c **** 
 994:../../Drivers/STM32L5xx_HAL_Driver/Src/stm32l5xx_hal_pwr_ex.c ****   /* Set Stop mode 2 */
 995:../../Drivers/STM32L5xx_HAL_Driver/Src/stm32l5xx_hal_pwr_ex.c ****   MODIFY_REG(PWR->CR1, PWR_CR1_LPMS, PWR_CR1_LPMS_STOP2);
 1929              		.loc 1 995 3 view .LVU418
 1930 0000 0C4A     		ldr	r2, .L169
 1931 0002 1368     		ldr	r3, [r2]
 1932 0004 23F00703 		bic	r3, r3, #7
 1933 0008 43F00203 		orr	r3, r3, #2
 1934 000c 1360     		str	r3, [r2]
 996:../../Drivers/STM32L5xx_HAL_Driver/Src/stm32l5xx_hal_pwr_ex.c **** 
 997:../../Drivers/STM32L5xx_HAL_Driver/Src/stm32l5xx_hal_pwr_ex.c ****   /* Set SLEEPDEEP bit of Cortex System Control Register */
 998:../../Drivers/STM32L5xx_HAL_Driver/Src/stm32l5xx_hal_pwr_ex.c ****   SET_BIT(SCB->SCR, ((uint32_t)SCB_SCR_SLEEPDEEP_Msk));
 1935              		.loc 1 998 3 view .LVU419
 1936 000e 0A4A     		ldr	r2, .L169+4
 1937 0010 1369     		ldr	r3, [r2, #16]
 1938 0012 43F00403 		orr	r3, r3, #4
 1939 0016 1361     		str	r3, [r2, #16]
 999:../../Drivers/STM32L5xx_HAL_Driver/Src/stm32l5xx_hal_pwr_ex.c **** 
1000:../../Drivers/STM32L5xx_HAL_Driver/Src/stm32l5xx_hal_pwr_ex.c ****   /* Select Stop mode entry --------------------------------------------------*/
1001:../../Drivers/STM32L5xx_HAL_Driver/Src/stm32l5xx_hal_pwr_ex.c ****   if (STOPEntry == PWR_STOPENTRY_WFI)
 1940              		.loc 1 1001 3 view .LVU420
 1941              		.loc 1 1001 6 is_stmt 0 view .LVU421
 1942 0018 0128     		cmp	r0, #1
 1943 001a 08D0     		beq	.L168
1002:../../Drivers/STM32L5xx_HAL_Driver/Src/stm32l5xx_hal_pwr_ex.c ****   {
1003:../../Drivers/STM32L5xx_HAL_Driver/Src/stm32l5xx_hal_pwr_ex.c ****     /* Request Wait For Interrupt */
1004:../../Drivers/STM32L5xx_HAL_Driver/Src/stm32l5xx_hal_pwr_ex.c ****     __WFI();
1005:../../Drivers/STM32L5xx_HAL_Driver/Src/stm32l5xx_hal_pwr_ex.c ****   }
1006:../../Drivers/STM32L5xx_HAL_Driver/Src/stm32l5xx_hal_pwr_ex.c ****   else
1007:../../Drivers/STM32L5xx_HAL_Driver/Src/stm32l5xx_hal_pwr_ex.c ****   {
1008:../../Drivers/STM32L5xx_HAL_Driver/Src/stm32l5xx_hal_pwr_ex.c ****     /* Request Wait For Event */
1009:../../Drivers/STM32L5xx_HAL_Driver/Src/stm32l5xx_hal_pwr_ex.c ****     __SEV();
 1944              		.loc 1 1009 5 is_stmt 1 view .LVU422
 1945              		.syntax unified
 1946              	@ 1009 "../../Drivers/STM32L5xx_HAL_Driver/Src/stm32l5xx_hal_pwr_ex.c" 1
 1947 001c 40BF     		sev
 1948              	@ 0 "" 2
1010:../../Drivers/STM32L5xx_HAL_Driver/Src/stm32l5xx_hal_pwr_ex.c ****     __WFE();
 1949              		.loc 1 1010 5 view .LVU423
 1950              	@ 1010 "../../Drivers/STM32L5xx_HAL_Driver/Src/stm32l5xx_hal_pwr_ex.c" 1
 1951 001e 20BF     		wfe
 1952              	@ 0 "" 2
1011:../../Drivers/STM32L5xx_HAL_Driver/Src/stm32l5xx_hal_pwr_ex.c ****     __WFE();
 1953              		.loc 1 1011 5 view .LVU424
 1954              	@ 1011 "../../Drivers/STM32L5xx_HAL_Driver/Src/stm32l5xx_hal_pwr_ex.c" 1
 1955 0020 20BF     		wfe
 1956              	@ 0 "" 2
 1957              		.thumb
 1958              		.syntax unified
 1959              	.L167:
1012:../../Drivers/STM32L5xx_HAL_Driver/Src/stm32l5xx_hal_pwr_ex.c ****   }
1013:../../Drivers/STM32L5xx_HAL_Driver/Src/stm32l5xx_hal_pwr_ex.c **** 
1014:../../Drivers/STM32L5xx_HAL_Driver/Src/stm32l5xx_hal_pwr_ex.c ****   /* Reset SLEEPDEEP bit of Cortex System Control Register */
1015:../../Drivers/STM32L5xx_HAL_Driver/Src/stm32l5xx_hal_pwr_ex.c ****   CLEAR_BIT(SCB->SCR, ((uint32_t)SCB_SCR_SLEEPDEEP_Msk));
 1960              		.loc 1 1015 3 view .LVU425
 1961 0022 054A     		ldr	r2, .L169+4
 1962 0024 1369     		ldr	r3, [r2, #16]
ARM GAS  /tmp/ccUwd8WC.s 			page 54


 1963 0026 23F00403 		bic	r3, r3, #4
 1964 002a 1361     		str	r3, [r2, #16]
1016:../../Drivers/STM32L5xx_HAL_Driver/Src/stm32l5xx_hal_pwr_ex.c **** }
 1965              		.loc 1 1016 1 is_stmt 0 view .LVU426
 1966 002c 7047     		bx	lr
 1967              	.L168:
1004:../../Drivers/STM32L5xx_HAL_Driver/Src/stm32l5xx_hal_pwr_ex.c ****   }
 1968              		.loc 1 1004 5 is_stmt 1 view .LVU427
 1969              		.syntax unified
 1970              	@ 1004 "../../Drivers/STM32L5xx_HAL_Driver/Src/stm32l5xx_hal_pwr_ex.c" 1
 1971 002e 30BF     		wfi
 1972              	@ 0 "" 2
 1973              		.thumb
 1974              		.syntax unified
 1975 0030 F7E7     		b	.L167
 1976              	.L170:
 1977 0032 00BF     		.align	2
 1978              	.L169:
 1979 0034 00700040 		.word	1073770496
 1980 0038 00ED00E0 		.word	-536810240
 1981              		.cfi_endproc
 1982              	.LFE182:
 1984              		.section	.text.HAL_PWREx_EnterSHUTDOWNMode,"ax",%progbits
 1985              		.align	1
 1986              		.global	HAL_PWREx_EnterSHUTDOWNMode
 1987              		.syntax unified
 1988              		.thumb
 1989              		.thumb_func
 1991              	HAL_PWREx_EnterSHUTDOWNMode:
 1992              	.LFB183:
1017:../../Drivers/STM32L5xx_HAL_Driver/Src/stm32l5xx_hal_pwr_ex.c **** 
1018:../../Drivers/STM32L5xx_HAL_Driver/Src/stm32l5xx_hal_pwr_ex.c **** 
1019:../../Drivers/STM32L5xx_HAL_Driver/Src/stm32l5xx_hal_pwr_ex.c **** 
1020:../../Drivers/STM32L5xx_HAL_Driver/Src/stm32l5xx_hal_pwr_ex.c **** 
1021:../../Drivers/STM32L5xx_HAL_Driver/Src/stm32l5xx_hal_pwr_ex.c **** 
1022:../../Drivers/STM32L5xx_HAL_Driver/Src/stm32l5xx_hal_pwr_ex.c **** /**
1023:../../Drivers/STM32L5xx_HAL_Driver/Src/stm32l5xx_hal_pwr_ex.c ****   * @brief Enter Shutdown mode.
1024:../../Drivers/STM32L5xx_HAL_Driver/Src/stm32l5xx_hal_pwr_ex.c ****   * @note  In Shutdown mode, the PLL, the HSI, the MSI, the LSI and the HSE oscillators are switche
1025:../../Drivers/STM32L5xx_HAL_Driver/Src/stm32l5xx_hal_pwr_ex.c ****   *        off. The voltage regulator is disabled and Vcore domain is powered off.
1026:../../Drivers/STM32L5xx_HAL_Driver/Src/stm32l5xx_hal_pwr_ex.c ****   *        SRAM1, SRAM2 and registers contents are lost except for registers in the Backup domain.
1027:../../Drivers/STM32L5xx_HAL_Driver/Src/stm32l5xx_hal_pwr_ex.c ****   *        The BOR is not available.
1028:../../Drivers/STM32L5xx_HAL_Driver/Src/stm32l5xx_hal_pwr_ex.c ****   * @note  The I/Os can be configured either with a pull-up or pull-down or can be kept in analog s
1029:../../Drivers/STM32L5xx_HAL_Driver/Src/stm32l5xx_hal_pwr_ex.c ****   * @retval None
1030:../../Drivers/STM32L5xx_HAL_Driver/Src/stm32l5xx_hal_pwr_ex.c ****   */
1031:../../Drivers/STM32L5xx_HAL_Driver/Src/stm32l5xx_hal_pwr_ex.c **** void HAL_PWREx_EnterSHUTDOWNMode(void)
1032:../../Drivers/STM32L5xx_HAL_Driver/Src/stm32l5xx_hal_pwr_ex.c **** {
 1993              		.loc 1 1032 1 view -0
 1994              		.cfi_startproc
 1995              		@ args = 0, pretend = 0, frame = 0
 1996              		@ frame_needed = 0, uses_anonymous_args = 0
 1997              		@ link register save eliminated.
1033:../../Drivers/STM32L5xx_HAL_Driver/Src/stm32l5xx_hal_pwr_ex.c **** 
1034:../../Drivers/STM32L5xx_HAL_Driver/Src/stm32l5xx_hal_pwr_ex.c ****   /* Set Shutdown mode */
1035:../../Drivers/STM32L5xx_HAL_Driver/Src/stm32l5xx_hal_pwr_ex.c ****   MODIFY_REG(PWR->CR1, PWR_CR1_LPMS, PWR_CR1_LPMS_SHUTDOWN);
 1998              		.loc 1 1035 3 view .LVU429
 1999 0000 064A     		ldr	r2, .L172
 2000 0002 1368     		ldr	r3, [r2]
ARM GAS  /tmp/ccUwd8WC.s 			page 55


 2001 0004 23F00703 		bic	r3, r3, #7
 2002 0008 43F00403 		orr	r3, r3, #4
 2003 000c 1360     		str	r3, [r2]
1036:../../Drivers/STM32L5xx_HAL_Driver/Src/stm32l5xx_hal_pwr_ex.c **** 
1037:../../Drivers/STM32L5xx_HAL_Driver/Src/stm32l5xx_hal_pwr_ex.c ****   /* Set SLEEPDEEP bit of Cortex System Control Register */
1038:../../Drivers/STM32L5xx_HAL_Driver/Src/stm32l5xx_hal_pwr_ex.c ****   SET_BIT(SCB->SCR, ((uint32_t)SCB_SCR_SLEEPDEEP_Msk));
 2004              		.loc 1 1038 3 view .LVU430
 2005 000e 044A     		ldr	r2, .L172+4
 2006 0010 1369     		ldr	r3, [r2, #16]
 2007 0012 43F00403 		orr	r3, r3, #4
 2008 0016 1361     		str	r3, [r2, #16]
1039:../../Drivers/STM32L5xx_HAL_Driver/Src/stm32l5xx_hal_pwr_ex.c **** 
1040:../../Drivers/STM32L5xx_HAL_Driver/Src/stm32l5xx_hal_pwr_ex.c ****   /* Request Wait For Interrupt */
1041:../../Drivers/STM32L5xx_HAL_Driver/Src/stm32l5xx_hal_pwr_ex.c ****   __WFI();
 2009              		.loc 1 1041 3 view .LVU431
 2010              		.syntax unified
 2011              	@ 1041 "../../Drivers/STM32L5xx_HAL_Driver/Src/stm32l5xx_hal_pwr_ex.c" 1
 2012 0018 30BF     		wfi
 2013              	@ 0 "" 2
1042:../../Drivers/STM32L5xx_HAL_Driver/Src/stm32l5xx_hal_pwr_ex.c **** }
 2014              		.loc 1 1042 1 is_stmt 0 view .LVU432
 2015              		.thumb
 2016              		.syntax unified
 2017 001a 7047     		bx	lr
 2018              	.L173:
 2019              		.align	2
 2020              	.L172:
 2021 001c 00700040 		.word	1073770496
 2022 0020 00ED00E0 		.word	-536810240
 2023              		.cfi_endproc
 2024              	.LFE183:
 2026              		.section	.text.HAL_PWREx_PVM1Callback,"ax",%progbits
 2027              		.align	1
 2028              		.weak	HAL_PWREx_PVM1Callback
 2029              		.syntax unified
 2030              		.thumb
 2031              		.thumb_func
 2033              	HAL_PWREx_PVM1Callback:
 2034              	.LFB185:
1043:../../Drivers/STM32L5xx_HAL_Driver/Src/stm32l5xx_hal_pwr_ex.c **** 
1044:../../Drivers/STM32L5xx_HAL_Driver/Src/stm32l5xx_hal_pwr_ex.c **** 
1045:../../Drivers/STM32L5xx_HAL_Driver/Src/stm32l5xx_hal_pwr_ex.c **** 
1046:../../Drivers/STM32L5xx_HAL_Driver/Src/stm32l5xx_hal_pwr_ex.c **** 
1047:../../Drivers/STM32L5xx_HAL_Driver/Src/stm32l5xx_hal_pwr_ex.c **** /**
1048:../../Drivers/STM32L5xx_HAL_Driver/Src/stm32l5xx_hal_pwr_ex.c ****   * @brief This function handles the PWR PVD/PVMx interrupt request.
1049:../../Drivers/STM32L5xx_HAL_Driver/Src/stm32l5xx_hal_pwr_ex.c ****   * @note This API should be called under the PVD_PVM_IRQHandler().
1050:../../Drivers/STM32L5xx_HAL_Driver/Src/stm32l5xx_hal_pwr_ex.c ****   * @retval None
1051:../../Drivers/STM32L5xx_HAL_Driver/Src/stm32l5xx_hal_pwr_ex.c ****   */
1052:../../Drivers/STM32L5xx_HAL_Driver/Src/stm32l5xx_hal_pwr_ex.c **** void HAL_PWREx_PVD_PVM_IRQHandler(void)
1053:../../Drivers/STM32L5xx_HAL_Driver/Src/stm32l5xx_hal_pwr_ex.c **** {
1054:../../Drivers/STM32L5xx_HAL_Driver/Src/stm32l5xx_hal_pwr_ex.c ****   uint32_t  rising_flag;
1055:../../Drivers/STM32L5xx_HAL_Driver/Src/stm32l5xx_hal_pwr_ex.c ****   uint32_t  falling_flag;
1056:../../Drivers/STM32L5xx_HAL_Driver/Src/stm32l5xx_hal_pwr_ex.c **** 
1057:../../Drivers/STM32L5xx_HAL_Driver/Src/stm32l5xx_hal_pwr_ex.c ****   rising_flag = READ_REG(EXTI->RPR1);
1058:../../Drivers/STM32L5xx_HAL_Driver/Src/stm32l5xx_hal_pwr_ex.c ****   falling_flag = READ_REG(EXTI->FPR1);
1059:../../Drivers/STM32L5xx_HAL_Driver/Src/stm32l5xx_hal_pwr_ex.c **** 
1060:../../Drivers/STM32L5xx_HAL_Driver/Src/stm32l5xx_hal_pwr_ex.c ****   /* Check PWR exti flags for PVD */
ARM GAS  /tmp/ccUwd8WC.s 			page 56


1061:../../Drivers/STM32L5xx_HAL_Driver/Src/stm32l5xx_hal_pwr_ex.c ****   if (((rising_flag | falling_flag) & PWR_EXTI_LINE_PVD) != 0x0U)
1062:../../Drivers/STM32L5xx_HAL_Driver/Src/stm32l5xx_hal_pwr_ex.c ****   {
1063:../../Drivers/STM32L5xx_HAL_Driver/Src/stm32l5xx_hal_pwr_ex.c ****     /* PWR PVD interrupt user callback */
1064:../../Drivers/STM32L5xx_HAL_Driver/Src/stm32l5xx_hal_pwr_ex.c ****     HAL_PWR_PVDCallback();
1065:../../Drivers/STM32L5xx_HAL_Driver/Src/stm32l5xx_hal_pwr_ex.c **** 
1066:../../Drivers/STM32L5xx_HAL_Driver/Src/stm32l5xx_hal_pwr_ex.c ****     /* Clear PVD exti pending bit */
1067:../../Drivers/STM32L5xx_HAL_Driver/Src/stm32l5xx_hal_pwr_ex.c ****     WRITE_REG(EXTI->RPR1, PWR_EXTI_LINE_PVD);
1068:../../Drivers/STM32L5xx_HAL_Driver/Src/stm32l5xx_hal_pwr_ex.c ****     WRITE_REG(EXTI->FPR1, PWR_EXTI_LINE_PVD);
1069:../../Drivers/STM32L5xx_HAL_Driver/Src/stm32l5xx_hal_pwr_ex.c ****   }
1070:../../Drivers/STM32L5xx_HAL_Driver/Src/stm32l5xx_hal_pwr_ex.c **** 
1071:../../Drivers/STM32L5xx_HAL_Driver/Src/stm32l5xx_hal_pwr_ex.c ****   /* Next, successively check PVMx exti flags */
1072:../../Drivers/STM32L5xx_HAL_Driver/Src/stm32l5xx_hal_pwr_ex.c ****   rising_flag = READ_REG(EXTI->RPR2);
1073:../../Drivers/STM32L5xx_HAL_Driver/Src/stm32l5xx_hal_pwr_ex.c ****   falling_flag = READ_REG(EXTI->FPR2);
1074:../../Drivers/STM32L5xx_HAL_Driver/Src/stm32l5xx_hal_pwr_ex.c **** 
1075:../../Drivers/STM32L5xx_HAL_Driver/Src/stm32l5xx_hal_pwr_ex.c ****   if (((rising_flag | falling_flag) & PWR_EXTI_LINE_PVM1) != 0x0U)
1076:../../Drivers/STM32L5xx_HAL_Driver/Src/stm32l5xx_hal_pwr_ex.c ****   {
1077:../../Drivers/STM32L5xx_HAL_Driver/Src/stm32l5xx_hal_pwr_ex.c ****     /* PWR PVM1 interrupt user callback */
1078:../../Drivers/STM32L5xx_HAL_Driver/Src/stm32l5xx_hal_pwr_ex.c ****     HAL_PWREx_PVM1Callback();
1079:../../Drivers/STM32L5xx_HAL_Driver/Src/stm32l5xx_hal_pwr_ex.c **** 
1080:../../Drivers/STM32L5xx_HAL_Driver/Src/stm32l5xx_hal_pwr_ex.c ****     /* Clear PVM1 exti pending bit */
1081:../../Drivers/STM32L5xx_HAL_Driver/Src/stm32l5xx_hal_pwr_ex.c ****     WRITE_REG(EXTI->RPR2, PWR_EXTI_LINE_PVM1);
1082:../../Drivers/STM32L5xx_HAL_Driver/Src/stm32l5xx_hal_pwr_ex.c ****     WRITE_REG(EXTI->FPR2, PWR_EXTI_LINE_PVM1);
1083:../../Drivers/STM32L5xx_HAL_Driver/Src/stm32l5xx_hal_pwr_ex.c ****   }
1084:../../Drivers/STM32L5xx_HAL_Driver/Src/stm32l5xx_hal_pwr_ex.c ****   if (((rising_flag | falling_flag) & PWR_EXTI_LINE_PVM2) != 0x0U)
1085:../../Drivers/STM32L5xx_HAL_Driver/Src/stm32l5xx_hal_pwr_ex.c ****   {
1086:../../Drivers/STM32L5xx_HAL_Driver/Src/stm32l5xx_hal_pwr_ex.c ****     /* PWR PVM2 interrupt user callback */
1087:../../Drivers/STM32L5xx_HAL_Driver/Src/stm32l5xx_hal_pwr_ex.c ****     HAL_PWREx_PVM2Callback();
1088:../../Drivers/STM32L5xx_HAL_Driver/Src/stm32l5xx_hal_pwr_ex.c **** 
1089:../../Drivers/STM32L5xx_HAL_Driver/Src/stm32l5xx_hal_pwr_ex.c ****     /* Clear PVM2 exti pending bit */
1090:../../Drivers/STM32L5xx_HAL_Driver/Src/stm32l5xx_hal_pwr_ex.c ****     WRITE_REG(EXTI->RPR2, PWR_EXTI_LINE_PVM2);
1091:../../Drivers/STM32L5xx_HAL_Driver/Src/stm32l5xx_hal_pwr_ex.c ****     WRITE_REG(EXTI->FPR2, PWR_EXTI_LINE_PVM2);
1092:../../Drivers/STM32L5xx_HAL_Driver/Src/stm32l5xx_hal_pwr_ex.c ****   }
1093:../../Drivers/STM32L5xx_HAL_Driver/Src/stm32l5xx_hal_pwr_ex.c ****   if (((rising_flag | falling_flag) & PWR_EXTI_LINE_PVM3) != 0x0U)
1094:../../Drivers/STM32L5xx_HAL_Driver/Src/stm32l5xx_hal_pwr_ex.c ****   {
1095:../../Drivers/STM32L5xx_HAL_Driver/Src/stm32l5xx_hal_pwr_ex.c ****     /* PWR PVM3 interrupt user callback */
1096:../../Drivers/STM32L5xx_HAL_Driver/Src/stm32l5xx_hal_pwr_ex.c ****     HAL_PWREx_PVM3Callback();
1097:../../Drivers/STM32L5xx_HAL_Driver/Src/stm32l5xx_hal_pwr_ex.c **** 
1098:../../Drivers/STM32L5xx_HAL_Driver/Src/stm32l5xx_hal_pwr_ex.c ****     /* Clear PVM3 exti pending bit */
1099:../../Drivers/STM32L5xx_HAL_Driver/Src/stm32l5xx_hal_pwr_ex.c ****     WRITE_REG(EXTI->RPR2, PWR_EXTI_LINE_PVM3);
1100:../../Drivers/STM32L5xx_HAL_Driver/Src/stm32l5xx_hal_pwr_ex.c ****     WRITE_REG(EXTI->FPR2, PWR_EXTI_LINE_PVM3);
1101:../../Drivers/STM32L5xx_HAL_Driver/Src/stm32l5xx_hal_pwr_ex.c ****   }
1102:../../Drivers/STM32L5xx_HAL_Driver/Src/stm32l5xx_hal_pwr_ex.c ****   if (((rising_flag | falling_flag) & PWR_EXTI_LINE_PVM4) != 0x0U)
1103:../../Drivers/STM32L5xx_HAL_Driver/Src/stm32l5xx_hal_pwr_ex.c ****   {
1104:../../Drivers/STM32L5xx_HAL_Driver/Src/stm32l5xx_hal_pwr_ex.c ****     /* PWR PVM4 interrupt user callback */
1105:../../Drivers/STM32L5xx_HAL_Driver/Src/stm32l5xx_hal_pwr_ex.c ****     HAL_PWREx_PVM4Callback();
1106:../../Drivers/STM32L5xx_HAL_Driver/Src/stm32l5xx_hal_pwr_ex.c **** 
1107:../../Drivers/STM32L5xx_HAL_Driver/Src/stm32l5xx_hal_pwr_ex.c ****     /* Clear PVM4 exti pending bit */
1108:../../Drivers/STM32L5xx_HAL_Driver/Src/stm32l5xx_hal_pwr_ex.c ****     WRITE_REG(EXTI->RPR2, PWR_EXTI_LINE_PVM4);
1109:../../Drivers/STM32L5xx_HAL_Driver/Src/stm32l5xx_hal_pwr_ex.c ****     WRITE_REG(EXTI->FPR2, PWR_EXTI_LINE_PVM4);
1110:../../Drivers/STM32L5xx_HAL_Driver/Src/stm32l5xx_hal_pwr_ex.c ****   }
1111:../../Drivers/STM32L5xx_HAL_Driver/Src/stm32l5xx_hal_pwr_ex.c **** }
1112:../../Drivers/STM32L5xx_HAL_Driver/Src/stm32l5xx_hal_pwr_ex.c **** 
1113:../../Drivers/STM32L5xx_HAL_Driver/Src/stm32l5xx_hal_pwr_ex.c **** 
1114:../../Drivers/STM32L5xx_HAL_Driver/Src/stm32l5xx_hal_pwr_ex.c **** /**
1115:../../Drivers/STM32L5xx_HAL_Driver/Src/stm32l5xx_hal_pwr_ex.c ****   * @brief PWR PVM1 interrupt callback
1116:../../Drivers/STM32L5xx_HAL_Driver/Src/stm32l5xx_hal_pwr_ex.c ****   * @retval None
1117:../../Drivers/STM32L5xx_HAL_Driver/Src/stm32l5xx_hal_pwr_ex.c ****   */
ARM GAS  /tmp/ccUwd8WC.s 			page 57


1118:../../Drivers/STM32L5xx_HAL_Driver/Src/stm32l5xx_hal_pwr_ex.c **** __weak void HAL_PWREx_PVM1Callback(void)
1119:../../Drivers/STM32L5xx_HAL_Driver/Src/stm32l5xx_hal_pwr_ex.c **** {
 2035              		.loc 1 1119 1 is_stmt 1 view -0
 2036              		.cfi_startproc
 2037              		@ args = 0, pretend = 0, frame = 0
 2038              		@ frame_needed = 0, uses_anonymous_args = 0
 2039              		@ link register save eliminated.
1120:../../Drivers/STM32L5xx_HAL_Driver/Src/stm32l5xx_hal_pwr_ex.c ****   /* NOTE : This function should not be modified; when the callback is needed,
1121:../../Drivers/STM32L5xx_HAL_Driver/Src/stm32l5xx_hal_pwr_ex.c ****             HAL_PWREx_PVM1Callback() API can be implemented in the user file
1122:../../Drivers/STM32L5xx_HAL_Driver/Src/stm32l5xx_hal_pwr_ex.c ****    */
1123:../../Drivers/STM32L5xx_HAL_Driver/Src/stm32l5xx_hal_pwr_ex.c **** }
 2040              		.loc 1 1123 1 view .LVU434
 2041 0000 7047     		bx	lr
 2042              		.cfi_endproc
 2043              	.LFE185:
 2045              		.section	.text.HAL_PWREx_PVM2Callback,"ax",%progbits
 2046              		.align	1
 2047              		.weak	HAL_PWREx_PVM2Callback
 2048              		.syntax unified
 2049              		.thumb
 2050              		.thumb_func
 2052              	HAL_PWREx_PVM2Callback:
 2053              	.LFB186:
1124:../../Drivers/STM32L5xx_HAL_Driver/Src/stm32l5xx_hal_pwr_ex.c **** 
1125:../../Drivers/STM32L5xx_HAL_Driver/Src/stm32l5xx_hal_pwr_ex.c **** /**
1126:../../Drivers/STM32L5xx_HAL_Driver/Src/stm32l5xx_hal_pwr_ex.c ****   * @brief PWR PVM2 interrupt callback
1127:../../Drivers/STM32L5xx_HAL_Driver/Src/stm32l5xx_hal_pwr_ex.c ****   * @retval None
1128:../../Drivers/STM32L5xx_HAL_Driver/Src/stm32l5xx_hal_pwr_ex.c ****   */
1129:../../Drivers/STM32L5xx_HAL_Driver/Src/stm32l5xx_hal_pwr_ex.c **** __weak void HAL_PWREx_PVM2Callback(void)
1130:../../Drivers/STM32L5xx_HAL_Driver/Src/stm32l5xx_hal_pwr_ex.c **** {
 2054              		.loc 1 1130 1 view -0
 2055              		.cfi_startproc
 2056              		@ args = 0, pretend = 0, frame = 0
 2057              		@ frame_needed = 0, uses_anonymous_args = 0
 2058              		@ link register save eliminated.
1131:../../Drivers/STM32L5xx_HAL_Driver/Src/stm32l5xx_hal_pwr_ex.c ****   /* NOTE : This function should not be modified; when the callback is needed,
1132:../../Drivers/STM32L5xx_HAL_Driver/Src/stm32l5xx_hal_pwr_ex.c ****             HAL_PWREx_PVM2Callback() API can be implemented in the user file
1133:../../Drivers/STM32L5xx_HAL_Driver/Src/stm32l5xx_hal_pwr_ex.c ****    */
1134:../../Drivers/STM32L5xx_HAL_Driver/Src/stm32l5xx_hal_pwr_ex.c **** }
 2059              		.loc 1 1134 1 view .LVU436
 2060 0000 7047     		bx	lr
 2061              		.cfi_endproc
 2062              	.LFE186:
 2064              		.section	.text.HAL_PWREx_PVM3Callback,"ax",%progbits
 2065              		.align	1
 2066              		.weak	HAL_PWREx_PVM3Callback
 2067              		.syntax unified
 2068              		.thumb
 2069              		.thumb_func
 2071              	HAL_PWREx_PVM3Callback:
 2072              	.LFB187:
1135:../../Drivers/STM32L5xx_HAL_Driver/Src/stm32l5xx_hal_pwr_ex.c **** 
1136:../../Drivers/STM32L5xx_HAL_Driver/Src/stm32l5xx_hal_pwr_ex.c **** /**
1137:../../Drivers/STM32L5xx_HAL_Driver/Src/stm32l5xx_hal_pwr_ex.c ****   * @brief PWR PVM3 interrupt callback
1138:../../Drivers/STM32L5xx_HAL_Driver/Src/stm32l5xx_hal_pwr_ex.c ****   * @retval None
1139:../../Drivers/STM32L5xx_HAL_Driver/Src/stm32l5xx_hal_pwr_ex.c ****   */
1140:../../Drivers/STM32L5xx_HAL_Driver/Src/stm32l5xx_hal_pwr_ex.c **** __weak void HAL_PWREx_PVM3Callback(void)
ARM GAS  /tmp/ccUwd8WC.s 			page 58


1141:../../Drivers/STM32L5xx_HAL_Driver/Src/stm32l5xx_hal_pwr_ex.c **** {
 2073              		.loc 1 1141 1 view -0
 2074              		.cfi_startproc
 2075              		@ args = 0, pretend = 0, frame = 0
 2076              		@ frame_needed = 0, uses_anonymous_args = 0
 2077              		@ link register save eliminated.
1142:../../Drivers/STM32L5xx_HAL_Driver/Src/stm32l5xx_hal_pwr_ex.c ****   /* NOTE : This function should not be modified; when the callback is needed,
1143:../../Drivers/STM32L5xx_HAL_Driver/Src/stm32l5xx_hal_pwr_ex.c ****             HAL_PWREx_PVM3Callback() API can be implemented in the user file
1144:../../Drivers/STM32L5xx_HAL_Driver/Src/stm32l5xx_hal_pwr_ex.c ****    */
1145:../../Drivers/STM32L5xx_HAL_Driver/Src/stm32l5xx_hal_pwr_ex.c **** }
 2078              		.loc 1 1145 1 view .LVU438
 2079 0000 7047     		bx	lr
 2080              		.cfi_endproc
 2081              	.LFE187:
 2083              		.section	.text.HAL_PWREx_PVM4Callback,"ax",%progbits
 2084              		.align	1
 2085              		.weak	HAL_PWREx_PVM4Callback
 2086              		.syntax unified
 2087              		.thumb
 2088              		.thumb_func
 2090              	HAL_PWREx_PVM4Callback:
 2091              	.LFB188:
1146:../../Drivers/STM32L5xx_HAL_Driver/Src/stm32l5xx_hal_pwr_ex.c **** 
1147:../../Drivers/STM32L5xx_HAL_Driver/Src/stm32l5xx_hal_pwr_ex.c **** /**
1148:../../Drivers/STM32L5xx_HAL_Driver/Src/stm32l5xx_hal_pwr_ex.c ****   * @brief PWR PVM4 interrupt callback
1149:../../Drivers/STM32L5xx_HAL_Driver/Src/stm32l5xx_hal_pwr_ex.c ****   * @retval None
1150:../../Drivers/STM32L5xx_HAL_Driver/Src/stm32l5xx_hal_pwr_ex.c ****   */
1151:../../Drivers/STM32L5xx_HAL_Driver/Src/stm32l5xx_hal_pwr_ex.c **** __weak void HAL_PWREx_PVM4Callback(void)
1152:../../Drivers/STM32L5xx_HAL_Driver/Src/stm32l5xx_hal_pwr_ex.c **** {
 2092              		.loc 1 1152 1 view -0
 2093              		.cfi_startproc
 2094              		@ args = 0, pretend = 0, frame = 0
 2095              		@ frame_needed = 0, uses_anonymous_args = 0
 2096              		@ link register save eliminated.
1153:../../Drivers/STM32L5xx_HAL_Driver/Src/stm32l5xx_hal_pwr_ex.c ****   /* NOTE : This function should not be modified; when the callback is needed,
1154:../../Drivers/STM32L5xx_HAL_Driver/Src/stm32l5xx_hal_pwr_ex.c ****             HAL_PWREx_PVM4Callback() API can be implemented in the user file
1155:../../Drivers/STM32L5xx_HAL_Driver/Src/stm32l5xx_hal_pwr_ex.c ****    */
1156:../../Drivers/STM32L5xx_HAL_Driver/Src/stm32l5xx_hal_pwr_ex.c **** }
 2097              		.loc 1 1156 1 view .LVU440
 2098 0000 7047     		bx	lr
 2099              		.cfi_endproc
 2100              	.LFE188:
 2102              		.section	.text.HAL_PWREx_PVD_PVM_IRQHandler,"ax",%progbits
 2103              		.align	1
 2104              		.global	HAL_PWREx_PVD_PVM_IRQHandler
 2105              		.syntax unified
 2106              		.thumb
 2107              		.thumb_func
 2109              	HAL_PWREx_PVD_PVM_IRQHandler:
 2110              	.LFB184:
1053:../../Drivers/STM32L5xx_HAL_Driver/Src/stm32l5xx_hal_pwr_ex.c ****   uint32_t  rising_flag;
 2111              		.loc 1 1053 1 view -0
 2112              		.cfi_startproc
 2113              		@ args = 0, pretend = 0, frame = 0
 2114              		@ frame_needed = 0, uses_anonymous_args = 0
 2115 0000 10B5     		push	{r4, lr}
 2116              	.LCFI2:
ARM GAS  /tmp/ccUwd8WC.s 			page 59


 2117              		.cfi_def_cfa_offset 8
 2118              		.cfi_offset 4, -8
 2119              		.cfi_offset 14, -4
1054:../../Drivers/STM32L5xx_HAL_Driver/Src/stm32l5xx_hal_pwr_ex.c ****   uint32_t  falling_flag;
 2120              		.loc 1 1054 3 view .LVU442
1055:../../Drivers/STM32L5xx_HAL_Driver/Src/stm32l5xx_hal_pwr_ex.c **** 
 2121              		.loc 1 1055 3 view .LVU443
1057:../../Drivers/STM32L5xx_HAL_Driver/Src/stm32l5xx_hal_pwr_ex.c ****   falling_flag = READ_REG(EXTI->FPR1);
 2122              		.loc 1 1057 3 view .LVU444
1057:../../Drivers/STM32L5xx_HAL_Driver/Src/stm32l5xx_hal_pwr_ex.c ****   falling_flag = READ_REG(EXTI->FPR1);
 2123              		.loc 1 1057 15 is_stmt 0 view .LVU445
 2124 0002 1E4A     		ldr	r2, .L190
 2125 0004 D368     		ldr	r3, [r2, #12]
 2126              	.LVL113:
1058:../../Drivers/STM32L5xx_HAL_Driver/Src/stm32l5xx_hal_pwr_ex.c **** 
 2127              		.loc 1 1058 3 is_stmt 1 view .LVU446
1058:../../Drivers/STM32L5xx_HAL_Driver/Src/stm32l5xx_hal_pwr_ex.c **** 
 2128              		.loc 1 1058 16 is_stmt 0 view .LVU447
 2129 0006 1269     		ldr	r2, [r2, #16]
 2130              	.LVL114:
1061:../../Drivers/STM32L5xx_HAL_Driver/Src/stm32l5xx_hal_pwr_ex.c ****   {
 2131              		.loc 1 1061 3 is_stmt 1 view .LVU448
1061:../../Drivers/STM32L5xx_HAL_Driver/Src/stm32l5xx_hal_pwr_ex.c ****   {
 2132              		.loc 1 1061 21 is_stmt 0 view .LVU449
 2133 0008 1343     		orrs	r3, r3, r2
 2134              	.LVL115:
1061:../../Drivers/STM32L5xx_HAL_Driver/Src/stm32l5xx_hal_pwr_ex.c ****   {
 2135              		.loc 1 1061 6 view .LVU450
 2136 000a 13F4803F 		tst	r3, #65536
 2137 000e 10D1     		bne	.L185
 2138              	.LVL116:
 2139              	.L179:
1072:../../Drivers/STM32L5xx_HAL_Driver/Src/stm32l5xx_hal_pwr_ex.c ****   falling_flag = READ_REG(EXTI->FPR2);
 2140              		.loc 1 1072 3 is_stmt 1 view .LVU451
1072:../../Drivers/STM32L5xx_HAL_Driver/Src/stm32l5xx_hal_pwr_ex.c ****   falling_flag = READ_REG(EXTI->FPR2);
 2141              		.loc 1 1072 15 is_stmt 0 view .LVU452
 2142 0010 1A4B     		ldr	r3, .L190
 2143 0012 DC6A     		ldr	r4, [r3, #44]
 2144              	.LVL117:
1073:../../Drivers/STM32L5xx_HAL_Driver/Src/stm32l5xx_hal_pwr_ex.c **** 
 2145              		.loc 1 1073 3 is_stmt 1 view .LVU453
1073:../../Drivers/STM32L5xx_HAL_Driver/Src/stm32l5xx_hal_pwr_ex.c **** 
 2146              		.loc 1 1073 16 is_stmt 0 view .LVU454
 2147 0014 1B6B     		ldr	r3, [r3, #48]
 2148              	.LVL118:
1075:../../Drivers/STM32L5xx_HAL_Driver/Src/stm32l5xx_hal_pwr_ex.c ****   {
 2149              		.loc 1 1075 3 is_stmt 1 view .LVU455
1075:../../Drivers/STM32L5xx_HAL_Driver/Src/stm32l5xx_hal_pwr_ex.c ****   {
 2150              		.loc 1 1075 21 is_stmt 0 view .LVU456
 2151 0016 1C43     		orrs	r4, r4, r3
 2152              	.LVL119:
1075:../../Drivers/STM32L5xx_HAL_Driver/Src/stm32l5xx_hal_pwr_ex.c ****   {
 2153              		.loc 1 1075 6 view .LVU457
 2154 0018 14F0080F 		tst	r4, #8
 2155 001c 11D1     		bne	.L186
 2156              	.LVL120:
 2157              	.L180:
ARM GAS  /tmp/ccUwd8WC.s 			page 60


1084:../../Drivers/STM32L5xx_HAL_Driver/Src/stm32l5xx_hal_pwr_ex.c ****   {
 2158              		.loc 1 1084 3 is_stmt 1 view .LVU458
1084:../../Drivers/STM32L5xx_HAL_Driver/Src/stm32l5xx_hal_pwr_ex.c ****   {
 2159              		.loc 1 1084 6 is_stmt 0 view .LVU459
 2160 001e 14F0100F 		tst	r4, #16
 2161 0022 15D1     		bne	.L187
 2162              	.L181:
1093:../../Drivers/STM32L5xx_HAL_Driver/Src/stm32l5xx_hal_pwr_ex.c ****   {
 2163              		.loc 1 1093 3 is_stmt 1 view .LVU460
1093:../../Drivers/STM32L5xx_HAL_Driver/Src/stm32l5xx_hal_pwr_ex.c ****   {
 2164              		.loc 1 1093 6 is_stmt 0 view .LVU461
 2165 0024 14F0200F 		tst	r4, #32
 2166 0028 19D1     		bne	.L188
 2167              	.L182:
1102:../../Drivers/STM32L5xx_HAL_Driver/Src/stm32l5xx_hal_pwr_ex.c ****   {
 2168              		.loc 1 1102 3 is_stmt 1 view .LVU462
1102:../../Drivers/STM32L5xx_HAL_Driver/Src/stm32l5xx_hal_pwr_ex.c ****   {
 2169              		.loc 1 1102 6 is_stmt 0 view .LVU463
 2170 002a 14F0400F 		tst	r4, #64
 2171 002e 1DD1     		bne	.L189
 2172              	.L178:
1111:../../Drivers/STM32L5xx_HAL_Driver/Src/stm32l5xx_hal_pwr_ex.c **** 
 2173              		.loc 1 1111 1 view .LVU464
 2174 0030 10BD     		pop	{r4, pc}
 2175              	.LVL121:
 2176              	.L185:
1064:../../Drivers/STM32L5xx_HAL_Driver/Src/stm32l5xx_hal_pwr_ex.c **** 
 2177              		.loc 1 1064 5 is_stmt 1 view .LVU465
 2178 0032 FFF7FEFF 		bl	HAL_PWR_PVDCallback
 2179              	.LVL122:
1067:../../Drivers/STM32L5xx_HAL_Driver/Src/stm32l5xx_hal_pwr_ex.c ****     WRITE_REG(EXTI->FPR1, PWR_EXTI_LINE_PVD);
 2180              		.loc 1 1067 5 view .LVU466
 2181 0036 114B     		ldr	r3, .L190
 2182 0038 4FF48032 		mov	r2, #65536
 2183 003c DA60     		str	r2, [r3, #12]
1068:../../Drivers/STM32L5xx_HAL_Driver/Src/stm32l5xx_hal_pwr_ex.c ****   }
 2184              		.loc 1 1068 5 view .LVU467
 2185 003e 1A61     		str	r2, [r3, #16]
 2186 0040 E6E7     		b	.L179
 2187              	.LVL123:
 2188              	.L186:
1078:../../Drivers/STM32L5xx_HAL_Driver/Src/stm32l5xx_hal_pwr_ex.c **** 
 2189              		.loc 1 1078 5 view .LVU468
 2190 0042 FFF7FEFF 		bl	HAL_PWREx_PVM1Callback
 2191              	.LVL124:
1081:../../Drivers/STM32L5xx_HAL_Driver/Src/stm32l5xx_hal_pwr_ex.c ****     WRITE_REG(EXTI->FPR2, PWR_EXTI_LINE_PVM1);
 2192              		.loc 1 1081 5 view .LVU469
 2193 0046 0D4B     		ldr	r3, .L190
 2194 0048 0822     		movs	r2, #8
 2195 004a DA62     		str	r2, [r3, #44]
1082:../../Drivers/STM32L5xx_HAL_Driver/Src/stm32l5xx_hal_pwr_ex.c ****   }
 2196              		.loc 1 1082 5 view .LVU470
 2197 004c 1A63     		str	r2, [r3, #48]
 2198 004e E6E7     		b	.L180
 2199              	.L187:
1087:../../Drivers/STM32L5xx_HAL_Driver/Src/stm32l5xx_hal_pwr_ex.c **** 
 2200              		.loc 1 1087 5 view .LVU471
ARM GAS  /tmp/ccUwd8WC.s 			page 61


 2201 0050 FFF7FEFF 		bl	HAL_PWREx_PVM2Callback
 2202              	.LVL125:
1090:../../Drivers/STM32L5xx_HAL_Driver/Src/stm32l5xx_hal_pwr_ex.c ****     WRITE_REG(EXTI->FPR2, PWR_EXTI_LINE_PVM2);
 2203              		.loc 1 1090 5 view .LVU472
 2204 0054 094B     		ldr	r3, .L190
 2205 0056 1022     		movs	r2, #16
 2206 0058 DA62     		str	r2, [r3, #44]
1091:../../Drivers/STM32L5xx_HAL_Driver/Src/stm32l5xx_hal_pwr_ex.c ****   }
 2207              		.loc 1 1091 5 view .LVU473
 2208 005a 1A63     		str	r2, [r3, #48]
 2209 005c E2E7     		b	.L181
 2210              	.L188:
1096:../../Drivers/STM32L5xx_HAL_Driver/Src/stm32l5xx_hal_pwr_ex.c **** 
 2211              		.loc 1 1096 5 view .LVU474
 2212 005e FFF7FEFF 		bl	HAL_PWREx_PVM3Callback
 2213              	.LVL126:
1099:../../Drivers/STM32L5xx_HAL_Driver/Src/stm32l5xx_hal_pwr_ex.c ****     WRITE_REG(EXTI->FPR2, PWR_EXTI_LINE_PVM3);
 2214              		.loc 1 1099 5 view .LVU475
 2215 0062 064B     		ldr	r3, .L190
 2216 0064 2022     		movs	r2, #32
 2217 0066 DA62     		str	r2, [r3, #44]
1100:../../Drivers/STM32L5xx_HAL_Driver/Src/stm32l5xx_hal_pwr_ex.c ****   }
 2218              		.loc 1 1100 5 view .LVU476
 2219 0068 1A63     		str	r2, [r3, #48]
 2220 006a DEE7     		b	.L182
 2221              	.L189:
1105:../../Drivers/STM32L5xx_HAL_Driver/Src/stm32l5xx_hal_pwr_ex.c **** 
 2222              		.loc 1 1105 5 view .LVU477
 2223 006c FFF7FEFF 		bl	HAL_PWREx_PVM4Callback
 2224              	.LVL127:
1108:../../Drivers/STM32L5xx_HAL_Driver/Src/stm32l5xx_hal_pwr_ex.c ****     WRITE_REG(EXTI->FPR2, PWR_EXTI_LINE_PVM4);
 2225              		.loc 1 1108 5 view .LVU478
 2226 0070 024B     		ldr	r3, .L190
 2227 0072 4022     		movs	r2, #64
 2228 0074 DA62     		str	r2, [r3, #44]
1109:../../Drivers/STM32L5xx_HAL_Driver/Src/stm32l5xx_hal_pwr_ex.c ****   }
 2229              		.loc 1 1109 5 view .LVU479
 2230 0076 1A63     		str	r2, [r3, #48]
1111:../../Drivers/STM32L5xx_HAL_Driver/Src/stm32l5xx_hal_pwr_ex.c **** 
 2231              		.loc 1 1111 1 is_stmt 0 view .LVU480
 2232 0078 DAE7     		b	.L178
 2233              	.L191:
 2234 007a 00BF     		.align	2
 2235              	.L190:
 2236 007c 00F40240 		.word	1073935360
 2237              		.cfi_endproc
 2238              	.LFE184:
 2240              		.section	.text.HAL_PWREx_EnableUCPDStandbyMode,"ax",%progbits
 2241              		.align	1
 2242              		.global	HAL_PWREx_EnableUCPDStandbyMode
 2243              		.syntax unified
 2244              		.thumb
 2245              		.thumb_func
 2247              	HAL_PWREx_EnableUCPDStandbyMode:
 2248              	.LFB189:
1157:../../Drivers/STM32L5xx_HAL_Driver/Src/stm32l5xx_hal_pwr_ex.c **** 
1158:../../Drivers/STM32L5xx_HAL_Driver/Src/stm32l5xx_hal_pwr_ex.c **** /**
ARM GAS  /tmp/ccUwd8WC.s 			page 62


1159:../../Drivers/STM32L5xx_HAL_Driver/Src/stm32l5xx_hal_pwr_ex.c ****   * @brief Enable UCPD configuration memorization in Standby.
1160:../../Drivers/STM32L5xx_HAL_Driver/Src/stm32l5xx_hal_pwr_ex.c ****   * @note  This feature is secured by secured UCPD1 when system implements security (TZEN=1).
1161:../../Drivers/STM32L5xx_HAL_Driver/Src/stm32l5xx_hal_pwr_ex.c ****   * @retval None
1162:../../Drivers/STM32L5xx_HAL_Driver/Src/stm32l5xx_hal_pwr_ex.c ****   */
1163:../../Drivers/STM32L5xx_HAL_Driver/Src/stm32l5xx_hal_pwr_ex.c **** void HAL_PWREx_EnableUCPDStandbyMode(void)
1164:../../Drivers/STM32L5xx_HAL_Driver/Src/stm32l5xx_hal_pwr_ex.c **** {
 2249              		.loc 1 1164 1 is_stmt 1 view -0
 2250              		.cfi_startproc
 2251              		@ args = 0, pretend = 0, frame = 0
 2252              		@ frame_needed = 0, uses_anonymous_args = 0
 2253              		@ link register save eliminated.
1165:../../Drivers/STM32L5xx_HAL_Driver/Src/stm32l5xx_hal_pwr_ex.c ****   /* Memorize UCPD configuration when entering standby mode */
1166:../../Drivers/STM32L5xx_HAL_Driver/Src/stm32l5xx_hal_pwr_ex.c ****   SET_BIT(PWR->CR3, PWR_CR3_UCPD_STDBY);
 2254              		.loc 1 1166 3 view .LVU482
 2255 0000 024A     		ldr	r2, .L193
 2256 0002 9368     		ldr	r3, [r2, #8]
 2257 0004 43F40053 		orr	r3, r3, #8192
 2258 0008 9360     		str	r3, [r2, #8]
1167:../../Drivers/STM32L5xx_HAL_Driver/Src/stm32l5xx_hal_pwr_ex.c **** }
 2259              		.loc 1 1167 1 is_stmt 0 view .LVU483
 2260 000a 7047     		bx	lr
 2261              	.L194:
 2262              		.align	2
 2263              	.L193:
 2264 000c 00700040 		.word	1073770496
 2265              		.cfi_endproc
 2266              	.LFE189:
 2268              		.section	.text.HAL_PWREx_DisableUCPDStandbyMode,"ax",%progbits
 2269              		.align	1
 2270              		.global	HAL_PWREx_DisableUCPDStandbyMode
 2271              		.syntax unified
 2272              		.thumb
 2273              		.thumb_func
 2275              	HAL_PWREx_DisableUCPDStandbyMode:
 2276              	.LFB190:
1168:../../Drivers/STM32L5xx_HAL_Driver/Src/stm32l5xx_hal_pwr_ex.c **** 
1169:../../Drivers/STM32L5xx_HAL_Driver/Src/stm32l5xx_hal_pwr_ex.c **** /**
1170:../../Drivers/STM32L5xx_HAL_Driver/Src/stm32l5xx_hal_pwr_ex.c ****   * @brief Disable UCPD configuration memorization in Standby.
1171:../../Drivers/STM32L5xx_HAL_Driver/Src/stm32l5xx_hal_pwr_ex.c ****   * @note  This function must be called on exiting the Standby mode and before any UCPD
1172:../../Drivers/STM32L5xx_HAL_Driver/Src/stm32l5xx_hal_pwr_ex.c ****   *        configuration update.
1173:../../Drivers/STM32L5xx_HAL_Driver/Src/stm32l5xx_hal_pwr_ex.c ****   * @note  This feature is secured by secured UCPD1 when system implements security (TZEN=1).
1174:../../Drivers/STM32L5xx_HAL_Driver/Src/stm32l5xx_hal_pwr_ex.c ****   * @retval None
1175:../../Drivers/STM32L5xx_HAL_Driver/Src/stm32l5xx_hal_pwr_ex.c ****   */
1176:../../Drivers/STM32L5xx_HAL_Driver/Src/stm32l5xx_hal_pwr_ex.c **** void HAL_PWREx_DisableUCPDStandbyMode(void)
1177:../../Drivers/STM32L5xx_HAL_Driver/Src/stm32l5xx_hal_pwr_ex.c **** {
 2277              		.loc 1 1177 1 is_stmt 1 view -0
 2278              		.cfi_startproc
 2279              		@ args = 0, pretend = 0, frame = 0
 2280              		@ frame_needed = 0, uses_anonymous_args = 0
 2281              		@ link register save eliminated.
1178:../../Drivers/STM32L5xx_HAL_Driver/Src/stm32l5xx_hal_pwr_ex.c ****   /* Write 0 immediately after Standby exit when using UCPD,
1179:../../Drivers/STM32L5xx_HAL_Driver/Src/stm32l5xx_hal_pwr_ex.c ****      and before writing any UCPD registers */
1180:../../Drivers/STM32L5xx_HAL_Driver/Src/stm32l5xx_hal_pwr_ex.c ****   CLEAR_BIT(PWR->CR3, PWR_CR3_UCPD_STDBY);
 2282              		.loc 1 1180 3 view .LVU485
 2283 0000 024A     		ldr	r2, .L196
 2284 0002 9368     		ldr	r3, [r2, #8]
 2285 0004 23F40053 		bic	r3, r3, #8192
ARM GAS  /tmp/ccUwd8WC.s 			page 63


 2286 0008 9360     		str	r3, [r2, #8]
1181:../../Drivers/STM32L5xx_HAL_Driver/Src/stm32l5xx_hal_pwr_ex.c **** }
 2287              		.loc 1 1181 1 is_stmt 0 view .LVU486
 2288 000a 7047     		bx	lr
 2289              	.L197:
 2290              		.align	2
 2291              	.L196:
 2292 000c 00700040 		.word	1073770496
 2293              		.cfi_endproc
 2294              	.LFE190:
 2296              		.section	.text.HAL_PWREx_EnableUCPDDeadBattery,"ax",%progbits
 2297              		.align	1
 2298              		.global	HAL_PWREx_EnableUCPDDeadBattery
 2299              		.syntax unified
 2300              		.thumb
 2301              		.thumb_func
 2303              	HAL_PWREx_EnableUCPDDeadBattery:
 2304              	.LFB191:
1182:../../Drivers/STM32L5xx_HAL_Driver/Src/stm32l5xx_hal_pwr_ex.c **** 
1183:../../Drivers/STM32L5xx_HAL_Driver/Src/stm32l5xx_hal_pwr_ex.c **** /**
1184:../../Drivers/STM32L5xx_HAL_Driver/Src/stm32l5xx_hal_pwr_ex.c ****   * @brief Enable the USB Type-C dead battery pull-down behavior
1185:../../Drivers/STM32L5xx_HAL_Driver/Src/stm32l5xx_hal_pwr_ex.c ****   *        on UCPDx_CC1 and UCPDx_CC2 pins
1186:../../Drivers/STM32L5xx_HAL_Driver/Src/stm32l5xx_hal_pwr_ex.c ****   * @note  This feature is secured by secured UCPD1 when system implements security (TZEN=1).
1187:../../Drivers/STM32L5xx_HAL_Driver/Src/stm32l5xx_hal_pwr_ex.c ****   * @retval None
1188:../../Drivers/STM32L5xx_HAL_Driver/Src/stm32l5xx_hal_pwr_ex.c ****   */
1189:../../Drivers/STM32L5xx_HAL_Driver/Src/stm32l5xx_hal_pwr_ex.c **** void HAL_PWREx_EnableUCPDDeadBattery(void)
1190:../../Drivers/STM32L5xx_HAL_Driver/Src/stm32l5xx_hal_pwr_ex.c **** {
 2305              		.loc 1 1190 1 is_stmt 1 view -0
 2306              		.cfi_startproc
 2307              		@ args = 0, pretend = 0, frame = 0
 2308              		@ frame_needed = 0, uses_anonymous_args = 0
 2309              		@ link register save eliminated.
1191:../../Drivers/STM32L5xx_HAL_Driver/Src/stm32l5xx_hal_pwr_ex.c ****   /* Write 0 to enable the USB Type-C dead battery pull-down behavior */
1192:../../Drivers/STM32L5xx_HAL_Driver/Src/stm32l5xx_hal_pwr_ex.c ****   CLEAR_BIT(PWR->CR3, PWR_CR3_UCPD_DBDIS);
 2310              		.loc 1 1192 3 view .LVU488
 2311 0000 024A     		ldr	r2, .L199
 2312 0002 9368     		ldr	r3, [r2, #8]
 2313 0004 23F48043 		bic	r3, r3, #16384
 2314 0008 9360     		str	r3, [r2, #8]
1193:../../Drivers/STM32L5xx_HAL_Driver/Src/stm32l5xx_hal_pwr_ex.c **** }
 2315              		.loc 1 1193 1 is_stmt 0 view .LVU489
 2316 000a 7047     		bx	lr
 2317              	.L200:
 2318              		.align	2
 2319              	.L199:
 2320 000c 00700040 		.word	1073770496
 2321              		.cfi_endproc
 2322              	.LFE191:
 2324              		.section	.text.HAL_PWREx_DisableUCPDDeadBattery,"ax",%progbits
 2325              		.align	1
 2326              		.global	HAL_PWREx_DisableUCPDDeadBattery
 2327              		.syntax unified
 2328              		.thumb
 2329              		.thumb_func
 2331              	HAL_PWREx_DisableUCPDDeadBattery:
 2332              	.LFB192:
1194:../../Drivers/STM32L5xx_HAL_Driver/Src/stm32l5xx_hal_pwr_ex.c **** 
ARM GAS  /tmp/ccUwd8WC.s 			page 64


1195:../../Drivers/STM32L5xx_HAL_Driver/Src/stm32l5xx_hal_pwr_ex.c **** /**
1196:../../Drivers/STM32L5xx_HAL_Driver/Src/stm32l5xx_hal_pwr_ex.c ****   * @brief Disable the USB Type-C dead battery pull-down behavior
1197:../../Drivers/STM32L5xx_HAL_Driver/Src/stm32l5xx_hal_pwr_ex.c ****   *        on UCPDx_CC1 and UCPDx_CC2 pins
1198:../../Drivers/STM32L5xx_HAL_Driver/Src/stm32l5xx_hal_pwr_ex.c ****   * @note  This feature is secured by secured UCPD1 when system implements security (TZEN=1).
1199:../../Drivers/STM32L5xx_HAL_Driver/Src/stm32l5xx_hal_pwr_ex.c ****   * @note After exiting reset, the USB Type-C dead battery behavior will be enabled,
1200:../../Drivers/STM32L5xx_HAL_Driver/Src/stm32l5xx_hal_pwr_ex.c ****   *       which may have a pull-down effect on CC1 and CC2 pins.
1201:../../Drivers/STM32L5xx_HAL_Driver/Src/stm32l5xx_hal_pwr_ex.c ****   *       It is recommended to disable it in all cases, either to stop this pull-down
1202:../../Drivers/STM32L5xx_HAL_Driver/Src/stm32l5xx_hal_pwr_ex.c ****   *       or to hand over control to the UCPD (which should therefore be
1203:../../Drivers/STM32L5xx_HAL_Driver/Src/stm32l5xx_hal_pwr_ex.c ****   *       initialized before doing the disable).
1204:../../Drivers/STM32L5xx_HAL_Driver/Src/stm32l5xx_hal_pwr_ex.c ****   * @retval None
1205:../../Drivers/STM32L5xx_HAL_Driver/Src/stm32l5xx_hal_pwr_ex.c ****   */
1206:../../Drivers/STM32L5xx_HAL_Driver/Src/stm32l5xx_hal_pwr_ex.c **** void HAL_PWREx_DisableUCPDDeadBattery(void)
1207:../../Drivers/STM32L5xx_HAL_Driver/Src/stm32l5xx_hal_pwr_ex.c **** {
 2333              		.loc 1 1207 1 is_stmt 1 view -0
 2334              		.cfi_startproc
 2335              		@ args = 0, pretend = 0, frame = 0
 2336              		@ frame_needed = 0, uses_anonymous_args = 0
 2337              		@ link register save eliminated.
1208:../../Drivers/STM32L5xx_HAL_Driver/Src/stm32l5xx_hal_pwr_ex.c ****   /* Write 1 to disable the USB Type-C dead battery pull-down behavior */
1209:../../Drivers/STM32L5xx_HAL_Driver/Src/stm32l5xx_hal_pwr_ex.c ****   SET_BIT(PWR->CR3, PWR_CR3_UCPD_DBDIS);
 2338              		.loc 1 1209 3 view .LVU491
 2339 0000 024A     		ldr	r2, .L202
 2340 0002 9368     		ldr	r3, [r2, #8]
 2341 0004 43F48043 		orr	r3, r3, #16384
 2342 0008 9360     		str	r3, [r2, #8]
1210:../../Drivers/STM32L5xx_HAL_Driver/Src/stm32l5xx_hal_pwr_ex.c **** }
 2343              		.loc 1 1210 1 is_stmt 0 view .LVU492
 2344 000a 7047     		bx	lr
 2345              	.L203:
 2346              		.align	2
 2347              	.L202:
 2348 000c 00700040 		.word	1073770496
 2349              		.cfi_endproc
 2350              	.LFE192:
 2352              		.section	.text.HAL_PWREx_EnableUltraLowPowerMode,"ax",%progbits
 2353              		.align	1
 2354              		.global	HAL_PWREx_EnableUltraLowPowerMode
 2355              		.syntax unified
 2356              		.thumb
 2357              		.thumb_func
 2359              	HAL_PWREx_EnableUltraLowPowerMode:
 2360              	.LFB193:
1211:../../Drivers/STM32L5xx_HAL_Driver/Src/stm32l5xx_hal_pwr_ex.c **** 
1212:../../Drivers/STM32L5xx_HAL_Driver/Src/stm32l5xx_hal_pwr_ex.c **** /**
1213:../../Drivers/STM32L5xx_HAL_Driver/Src/stm32l5xx_hal_pwr_ex.c ****   * @brief Enable ultra low power mode.
1214:../../Drivers/STM32L5xx_HAL_Driver/Src/stm32l5xx_hal_pwr_ex.c ****   *        Enable ultra low power BORL, BORH and PVD in Standby/Shutdown mode.
1215:../../Drivers/STM32L5xx_HAL_Driver/Src/stm32l5xx_hal_pwr_ex.c ****   * @note  This feature is secured by VDMSEC bit when system implements security (TZEN=1).
1216:../../Drivers/STM32L5xx_HAL_Driver/Src/stm32l5xx_hal_pwr_ex.c ****   * @retval None
1217:../../Drivers/STM32L5xx_HAL_Driver/Src/stm32l5xx_hal_pwr_ex.c ****   */
1218:../../Drivers/STM32L5xx_HAL_Driver/Src/stm32l5xx_hal_pwr_ex.c **** void HAL_PWREx_EnableUltraLowPowerMode(void)
1219:../../Drivers/STM32L5xx_HAL_Driver/Src/stm32l5xx_hal_pwr_ex.c **** {
 2361              		.loc 1 1219 1 is_stmt 1 view -0
 2362              		.cfi_startproc
 2363              		@ args = 0, pretend = 0, frame = 0
 2364              		@ frame_needed = 0, uses_anonymous_args = 0
 2365              		@ link register save eliminated.
1220:../../Drivers/STM32L5xx_HAL_Driver/Src/stm32l5xx_hal_pwr_ex.c ****   /* Enable ultra low power mode */
ARM GAS  /tmp/ccUwd8WC.s 			page 65


1221:../../Drivers/STM32L5xx_HAL_Driver/Src/stm32l5xx_hal_pwr_ex.c ****   SET_BIT(PWR->CR3, PWR_CR3_ULPMEN);
 2366              		.loc 1 1221 3 view .LVU494
 2367 0000 024A     		ldr	r2, .L205
 2368 0002 9368     		ldr	r3, [r2, #8]
 2369 0004 43F40063 		orr	r3, r3, #2048
 2370 0008 9360     		str	r3, [r2, #8]
1222:../../Drivers/STM32L5xx_HAL_Driver/Src/stm32l5xx_hal_pwr_ex.c **** }
 2371              		.loc 1 1222 1 is_stmt 0 view .LVU495
 2372 000a 7047     		bx	lr
 2373              	.L206:
 2374              		.align	2
 2375              	.L205:
 2376 000c 00700040 		.word	1073770496
 2377              		.cfi_endproc
 2378              	.LFE193:
 2380              		.section	.text.HAL_PWREx_DisableUltraLowPowerMode,"ax",%progbits
 2381              		.align	1
 2382              		.global	HAL_PWREx_DisableUltraLowPowerMode
 2383              		.syntax unified
 2384              		.thumb
 2385              		.thumb_func
 2387              	HAL_PWREx_DisableUltraLowPowerMode:
 2388              	.LFB194:
1223:../../Drivers/STM32L5xx_HAL_Driver/Src/stm32l5xx_hal_pwr_ex.c **** 
1224:../../Drivers/STM32L5xx_HAL_Driver/Src/stm32l5xx_hal_pwr_ex.c **** /**
1225:../../Drivers/STM32L5xx_HAL_Driver/Src/stm32l5xx_hal_pwr_ex.c ****   * @brief Disable ultra low power mode.
1226:../../Drivers/STM32L5xx_HAL_Driver/Src/stm32l5xx_hal_pwr_ex.c ****   * @note  This feature is secured by VDMSEC bit when system implements security (TZEN=1).
1227:../../Drivers/STM32L5xx_HAL_Driver/Src/stm32l5xx_hal_pwr_ex.c ****   * @retval None
1228:../../Drivers/STM32L5xx_HAL_Driver/Src/stm32l5xx_hal_pwr_ex.c ****   */
1229:../../Drivers/STM32L5xx_HAL_Driver/Src/stm32l5xx_hal_pwr_ex.c **** void HAL_PWREx_DisableUltraLowPowerMode(void)
1230:../../Drivers/STM32L5xx_HAL_Driver/Src/stm32l5xx_hal_pwr_ex.c **** {
 2389              		.loc 1 1230 1 is_stmt 1 view -0
 2390              		.cfi_startproc
 2391              		@ args = 0, pretend = 0, frame = 0
 2392              		@ frame_needed = 0, uses_anonymous_args = 0
 2393              		@ link register save eliminated.
1231:../../Drivers/STM32L5xx_HAL_Driver/Src/stm32l5xx_hal_pwr_ex.c ****   /* Disable ultra low power mode */
1232:../../Drivers/STM32L5xx_HAL_Driver/Src/stm32l5xx_hal_pwr_ex.c ****   CLEAR_BIT(PWR->CR3, PWR_CR3_ULPMEN);
 2394              		.loc 1 1232 3 view .LVU497
 2395 0000 024A     		ldr	r2, .L208
 2396 0002 9368     		ldr	r3, [r2, #8]
 2397 0004 23F40063 		bic	r3, r3, #2048
 2398 0008 9360     		str	r3, [r2, #8]
1233:../../Drivers/STM32L5xx_HAL_Driver/Src/stm32l5xx_hal_pwr_ex.c **** }
 2399              		.loc 1 1233 1 is_stmt 0 view .LVU498
 2400 000a 7047     		bx	lr
 2401              	.L209:
 2402              		.align	2
 2403              	.L208:
 2404 000c 00700040 		.word	1073770496
 2405              		.cfi_endproc
 2406              	.LFE194:
 2408              		.section	.text.HAL_PWREx_SMPS_GetEffectiveMode,"ax",%progbits
 2409              		.align	1
 2410              		.global	HAL_PWREx_SMPS_GetEffectiveMode
 2411              		.syntax unified
 2412              		.thumb
ARM GAS  /tmp/ccUwd8WC.s 			page 66


 2413              		.thumb_func
 2415              	HAL_PWREx_SMPS_GetEffectiveMode:
 2416              	.LFB196:
1234:../../Drivers/STM32L5xx_HAL_Driver/Src/stm32l5xx_hal_pwr_ex.c **** 
1235:../../Drivers/STM32L5xx_HAL_Driver/Src/stm32l5xx_hal_pwr_ex.c **** /**
1236:../../Drivers/STM32L5xx_HAL_Driver/Src/stm32l5xx_hal_pwr_ex.c ****   * @}
1237:../../Drivers/STM32L5xx_HAL_Driver/Src/stm32l5xx_hal_pwr_ex.c ****   */
1238:../../Drivers/STM32L5xx_HAL_Driver/Src/stm32l5xx_hal_pwr_ex.c **** 
1239:../../Drivers/STM32L5xx_HAL_Driver/Src/stm32l5xx_hal_pwr_ex.c **** /** @defgroup PWREx_Exported_Functions_Group2 Extended Power Control SMPS functions
1240:../../Drivers/STM32L5xx_HAL_Driver/Src/stm32l5xx_hal_pwr_ex.c ****  *  @brief  Extended Power Control SMPS functions
1241:../../Drivers/STM32L5xx_HAL_Driver/Src/stm32l5xx_hal_pwr_ex.c ****  *
1242:../../Drivers/STM32L5xx_HAL_Driver/Src/stm32l5xx_hal_pwr_ex.c **** @verbatim
1243:../../Drivers/STM32L5xx_HAL_Driver/Src/stm32l5xx_hal_pwr_ex.c ****  ===============================================================================
1244:../../Drivers/STM32L5xx_HAL_Driver/Src/stm32l5xx_hal_pwr_ex.c ****              ##### Extended Power Control SMPS functions  #####
1245:../../Drivers/STM32L5xx_HAL_Driver/Src/stm32l5xx_hal_pwr_ex.c ****  ===============================================================================
1246:../../Drivers/STM32L5xx_HAL_Driver/Src/stm32l5xx_hal_pwr_ex.c ****     [..]
1247:../../Drivers/STM32L5xx_HAL_Driver/Src/stm32l5xx_hal_pwr_ex.c ****     This subsection provides a set of functions allowing to control the
1248:../../Drivers/STM32L5xx_HAL_Driver/Src/stm32l5xx_hal_pwr_ex.c ****     SMPS mode.
1249:../../Drivers/STM32L5xx_HAL_Driver/Src/stm32l5xx_hal_pwr_ex.c **** 
1250:../../Drivers/STM32L5xx_HAL_Driver/Src/stm32l5xx_hal_pwr_ex.c **** @endverbatim
1251:../../Drivers/STM32L5xx_HAL_Driver/Src/stm32l5xx_hal_pwr_ex.c ****  * @{
1252:../../Drivers/STM32L5xx_HAL_Driver/Src/stm32l5xx_hal_pwr_ex.c ****  */
1253:../../Drivers/STM32L5xx_HAL_Driver/Src/stm32l5xx_hal_pwr_ex.c **** 
1254:../../Drivers/STM32L5xx_HAL_Driver/Src/stm32l5xx_hal_pwr_ex.c **** /**
1255:../../Drivers/STM32L5xx_HAL_Driver/Src/stm32l5xx_hal_pwr_ex.c ****   * @brief Set SMPS step down converter operating mode.
1256:../../Drivers/STM32L5xx_HAL_Driver/Src/stm32l5xx_hal_pwr_ex.c ****   * @param OperatingMode This parameter can be one of the following values:
1257:../../Drivers/STM32L5xx_HAL_Driver/Src/stm32l5xx_hal_pwr_ex.c ****   *         @arg @ref PWR_SMPS_HIGH_POWER    SMPS step down converter in high-power mode (default)
1258:../../Drivers/STM32L5xx_HAL_Driver/Src/stm32l5xx_hal_pwr_ex.c ****   *         @arg @ref PWR_SMPS_LOW_POWER     SMPS step down converter in low-power mode
1259:../../Drivers/STM32L5xx_HAL_Driver/Src/stm32l5xx_hal_pwr_ex.c ****   *         @arg @ref PWR_SMPS_BYPASS        SMPS step down converter in bypass mode
1260:../../Drivers/STM32L5xx_HAL_Driver/Src/stm32l5xx_hal_pwr_ex.c ****   * @note The High-power mode achieves the high efficiency at high current load.
1261:../../Drivers/STM32L5xx_HAL_Driver/Src/stm32l5xx_hal_pwr_ex.c ****   * @note The Low-power mode achieves the high efficiency at low current load.
1262:../../Drivers/STM32L5xx_HAL_Driver/Src/stm32l5xx_hal_pwr_ex.c ****   * @note The Low-power mode can be enabled only when the main regulator voltage is in range 2 mode
1263:../../Drivers/STM32L5xx_HAL_Driver/Src/stm32l5xx_hal_pwr_ex.c ****   *       When Low-power mode is enabled, the voltage scaling must not be modified. This mode can b
1264:../../Drivers/STM32L5xx_HAL_Driver/Src/stm32l5xx_hal_pwr_ex.c ****   *       only selected when power consumption does not exceed 30 mA.
1265:../../Drivers/STM32L5xx_HAL_Driver/Src/stm32l5xx_hal_pwr_ex.c ****   * @note When switching from one power mode to another, HAL_PWREx_SMPS_SetMode() waits for the new
1266:../../Drivers/STM32L5xx_HAL_Driver/Src/stm32l5xx_hal_pwr_ex.c ****   *       mode to be effective within a limited time duration before returning the status HAL_OK
1267:../../Drivers/STM32L5xx_HAL_Driver/Src/stm32l5xx_hal_pwr_ex.c ****   *       else it returns HAL_TIMEOUT. A request for Low power mode when the voltage regulator is n
1268:../../Drivers/STM32L5xx_HAL_Driver/Src/stm32l5xx_hal_pwr_ex.c ****   *       in range 2 is rejected with HAL_ERROR.
1269:../../Drivers/STM32L5xx_HAL_Driver/Src/stm32l5xx_hal_pwr_ex.c ****   * @note The Bypass mode can be enabled or disabled on the fly whatever the selected operation mod
1270:../../Drivers/STM32L5xx_HAL_Driver/Src/stm32l5xx_hal_pwr_ex.c ****   * @note The function shall not be called in Low-power run mode (meaningless and misleading).
1271:../../Drivers/STM32L5xx_HAL_Driver/Src/stm32l5xx_hal_pwr_ex.c ****   * @retval HAL Status
1272:../../Drivers/STM32L5xx_HAL_Driver/Src/stm32l5xx_hal_pwr_ex.c ****   */
1273:../../Drivers/STM32L5xx_HAL_Driver/Src/stm32l5xx_hal_pwr_ex.c **** 
1274:../../Drivers/STM32L5xx_HAL_Driver/Src/stm32l5xx_hal_pwr_ex.c **** HAL_StatusTypeDef HAL_PWREx_SMPS_SetMode(uint32_t OperatingMode)
1275:../../Drivers/STM32L5xx_HAL_Driver/Src/stm32l5xx_hal_pwr_ex.c **** {
1276:../../Drivers/STM32L5xx_HAL_Driver/Src/stm32l5xx_hal_pwr_ex.c ****   HAL_StatusTypeDef status;
1277:../../Drivers/STM32L5xx_HAL_Driver/Src/stm32l5xx_hal_pwr_ex.c ****   uint32_t pwr_sr1;
1278:../../Drivers/STM32L5xx_HAL_Driver/Src/stm32l5xx_hal_pwr_ex.c ****   uint32_t wait_loop_index;
1279:../../Drivers/STM32L5xx_HAL_Driver/Src/stm32l5xx_hal_pwr_ex.c **** 
1280:../../Drivers/STM32L5xx_HAL_Driver/Src/stm32l5xx_hal_pwr_ex.c ****   /* Check the parameters */
1281:../../Drivers/STM32L5xx_HAL_Driver/Src/stm32l5xx_hal_pwr_ex.c ****   assert_param(IS_PWR_SMPS_MODE(OperatingMode));
1282:../../Drivers/STM32L5xx_HAL_Driver/Src/stm32l5xx_hal_pwr_ex.c **** 
1283:../../Drivers/STM32L5xx_HAL_Driver/Src/stm32l5xx_hal_pwr_ex.c ****   if (OperatingMode == PWR_SMPS_HIGH_POWER)
1284:../../Drivers/STM32L5xx_HAL_Driver/Src/stm32l5xx_hal_pwr_ex.c ****   {
1285:../../Drivers/STM32L5xx_HAL_Driver/Src/stm32l5xx_hal_pwr_ex.c ****     MODIFY_REG(PWR->CR4, (PWR_CR4_SMPSBYP | PWR_CR4_SMPSLPEN), 0U);
1286:../../Drivers/STM32L5xx_HAL_Driver/Src/stm32l5xx_hal_pwr_ex.c ****   }
1287:../../Drivers/STM32L5xx_HAL_Driver/Src/stm32l5xx_hal_pwr_ex.c ****   else if (OperatingMode == PWR_SMPS_LOW_POWER)
ARM GAS  /tmp/ccUwd8WC.s 			page 67


1288:../../Drivers/STM32L5xx_HAL_Driver/Src/stm32l5xx_hal_pwr_ex.c ****   {
1289:../../Drivers/STM32L5xx_HAL_Driver/Src/stm32l5xx_hal_pwr_ex.c ****     /* ------------------------------------------------------------------------ */
1290:../../Drivers/STM32L5xx_HAL_Driver/Src/stm32l5xx_hal_pwr_ex.c ****     /* SMPS Low-power mode can only be set in range 2 */
1291:../../Drivers/STM32L5xx_HAL_Driver/Src/stm32l5xx_hal_pwr_ex.c ****     if (HAL_PWREx_GetVoltageRange() != PWR_REGULATOR_VOLTAGE_SCALE2)
1292:../../Drivers/STM32L5xx_HAL_Driver/Src/stm32l5xx_hal_pwr_ex.c ****     {
1293:../../Drivers/STM32L5xx_HAL_Driver/Src/stm32l5xx_hal_pwr_ex.c ****       return HAL_ERROR;
1294:../../Drivers/STM32L5xx_HAL_Driver/Src/stm32l5xx_hal_pwr_ex.c ****     }
1295:../../Drivers/STM32L5xx_HAL_Driver/Src/stm32l5xx_hal_pwr_ex.c ****     else
1296:../../Drivers/STM32L5xx_HAL_Driver/Src/stm32l5xx_hal_pwr_ex.c ****     {
1297:../../Drivers/STM32L5xx_HAL_Driver/Src/stm32l5xx_hal_pwr_ex.c ****       pwr_sr1 = READ_REG(PWR->SR1);
1298:../../Drivers/STM32L5xx_HAL_Driver/Src/stm32l5xx_hal_pwr_ex.c **** 
1299:../../Drivers/STM32L5xx_HAL_Driver/Src/stm32l5xx_hal_pwr_ex.c ****       if (READ_BIT(pwr_sr1, PWR_SR1_SMPSHPRDY | PWR_SR1_SMPSBYPRDY) == 0U)
1300:../../Drivers/STM32L5xx_HAL_Driver/Src/stm32l5xx_hal_pwr_ex.c ****       {
1301:../../Drivers/STM32L5xx_HAL_Driver/Src/stm32l5xx_hal_pwr_ex.c ****         /* Already in SMPS Low-power mode */
1302:../../Drivers/STM32L5xx_HAL_Driver/Src/stm32l5xx_hal_pwr_ex.c ****         /* Nothing to configure      */   
1303:../../Drivers/STM32L5xx_HAL_Driver/Src/stm32l5xx_hal_pwr_ex.c ****       }
1304:../../Drivers/STM32L5xx_HAL_Driver/Src/stm32l5xx_hal_pwr_ex.c ****       else
1305:../../Drivers/STM32L5xx_HAL_Driver/Src/stm32l5xx_hal_pwr_ex.c ****       {
1306:../../Drivers/STM32L5xx_HAL_Driver/Src/stm32l5xx_hal_pwr_ex.c ****         /* Switch to Low-power mode */
1307:../../Drivers/STM32L5xx_HAL_Driver/Src/stm32l5xx_hal_pwr_ex.c ****         MODIFY_REG(PWR->CR4, (PWR_CR4_SMPSBYP | PWR_CR4_SMPSLPEN), PWR_CR4_SMPSLPEN);
1308:../../Drivers/STM32L5xx_HAL_Driver/Src/stm32l5xx_hal_pwr_ex.c ****       }
1309:../../Drivers/STM32L5xx_HAL_Driver/Src/stm32l5xx_hal_pwr_ex.c ****     }
1310:../../Drivers/STM32L5xx_HAL_Driver/Src/stm32l5xx_hal_pwr_ex.c ****   }
1311:../../Drivers/STM32L5xx_HAL_Driver/Src/stm32l5xx_hal_pwr_ex.c ****   else /* PWR_SMPS_BYPASS */
1312:../../Drivers/STM32L5xx_HAL_Driver/Src/stm32l5xx_hal_pwr_ex.c ****   {
1313:../../Drivers/STM32L5xx_HAL_Driver/Src/stm32l5xx_hal_pwr_ex.c ****     HAL_PWREx_SMPS_EnableBypassMode();
1314:../../Drivers/STM32L5xx_HAL_Driver/Src/stm32l5xx_hal_pwr_ex.c ****   }
1315:../../Drivers/STM32L5xx_HAL_Driver/Src/stm32l5xx_hal_pwr_ex.c **** 
1316:../../Drivers/STM32L5xx_HAL_Driver/Src/stm32l5xx_hal_pwr_ex.c ****   /* Wait until SMPS step down converter operating mode change */
1317:../../Drivers/STM32L5xx_HAL_Driver/Src/stm32l5xx_hal_pwr_ex.c ****   /* and at least one iteration loop */
1318:../../Drivers/STM32L5xx_HAL_Driver/Src/stm32l5xx_hal_pwr_ex.c ****   wait_loop_index = ((PWR_MODE_CHANGE_DELAY_VALUE * (SystemCoreClock / 100000U)) / 10U) + 1U;
1319:../../Drivers/STM32L5xx_HAL_Driver/Src/stm32l5xx_hal_pwr_ex.c **** 
1320:../../Drivers/STM32L5xx_HAL_Driver/Src/stm32l5xx_hal_pwr_ex.c ****   while ((HAL_PWREx_SMPS_GetEffectiveMode() != OperatingMode) && (wait_loop_index != 0U))
1321:../../Drivers/STM32L5xx_HAL_Driver/Src/stm32l5xx_hal_pwr_ex.c ****   {
1322:../../Drivers/STM32L5xx_HAL_Driver/Src/stm32l5xx_hal_pwr_ex.c ****     wait_loop_index--;
1323:../../Drivers/STM32L5xx_HAL_Driver/Src/stm32l5xx_hal_pwr_ex.c ****   }
1324:../../Drivers/STM32L5xx_HAL_Driver/Src/stm32l5xx_hal_pwr_ex.c **** 
1325:../../Drivers/STM32L5xx_HAL_Driver/Src/stm32l5xx_hal_pwr_ex.c ****   if (HAL_PWREx_SMPS_GetEffectiveMode() == OperatingMode)
1326:../../Drivers/STM32L5xx_HAL_Driver/Src/stm32l5xx_hal_pwr_ex.c ****   {
1327:../../Drivers/STM32L5xx_HAL_Driver/Src/stm32l5xx_hal_pwr_ex.c ****     status = HAL_OK;
1328:../../Drivers/STM32L5xx_HAL_Driver/Src/stm32l5xx_hal_pwr_ex.c ****   }
1329:../../Drivers/STM32L5xx_HAL_Driver/Src/stm32l5xx_hal_pwr_ex.c ****   else
1330:../../Drivers/STM32L5xx_HAL_Driver/Src/stm32l5xx_hal_pwr_ex.c ****   {
1331:../../Drivers/STM32L5xx_HAL_Driver/Src/stm32l5xx_hal_pwr_ex.c ****     status = HAL_TIMEOUT;
1332:../../Drivers/STM32L5xx_HAL_Driver/Src/stm32l5xx_hal_pwr_ex.c ****   }
1333:../../Drivers/STM32L5xx_HAL_Driver/Src/stm32l5xx_hal_pwr_ex.c ****   return status;
1334:../../Drivers/STM32L5xx_HAL_Driver/Src/stm32l5xx_hal_pwr_ex.c **** }
1335:../../Drivers/STM32L5xx_HAL_Driver/Src/stm32l5xx_hal_pwr_ex.c **** 
1336:../../Drivers/STM32L5xx_HAL_Driver/Src/stm32l5xx_hal_pwr_ex.c **** /**
1337:../../Drivers/STM32L5xx_HAL_Driver/Src/stm32l5xx_hal_pwr_ex.c ****   * @brief  Get SMPS effective step down converter operating mode
1338:../../Drivers/STM32L5xx_HAL_Driver/Src/stm32l5xx_hal_pwr_ex.c ****   * @retval Returned value can be one of the following values:
1339:../../Drivers/STM32L5xx_HAL_Driver/Src/stm32l5xx_hal_pwr_ex.c ****   *         @arg @ref PWR_SMPS_HIGH_POWER    SMPS step down converter in high-power mode (default)
1340:../../Drivers/STM32L5xx_HAL_Driver/Src/stm32l5xx_hal_pwr_ex.c ****   *         @arg @ref PWR_SMPS_LOW_POWER     SMPS step down converter in low-power mode
1341:../../Drivers/STM32L5xx_HAL_Driver/Src/stm32l5xx_hal_pwr_ex.c ****   *         @arg @ref PWR_SMPS_BYPASS        SMPS step down converter in bypass mode
1342:../../Drivers/STM32L5xx_HAL_Driver/Src/stm32l5xx_hal_pwr_ex.c ****   */
1343:../../Drivers/STM32L5xx_HAL_Driver/Src/stm32l5xx_hal_pwr_ex.c **** uint32_t HAL_PWREx_SMPS_GetEffectiveMode(void)
1344:../../Drivers/STM32L5xx_HAL_Driver/Src/stm32l5xx_hal_pwr_ex.c **** {
ARM GAS  /tmp/ccUwd8WC.s 			page 68


 2417              		.loc 1 1344 1 is_stmt 1 view -0
 2418              		.cfi_startproc
 2419              		@ args = 0, pretend = 0, frame = 0
 2420              		@ frame_needed = 0, uses_anonymous_args = 0
 2421              		@ link register save eliminated.
1345:../../Drivers/STM32L5xx_HAL_Driver/Src/stm32l5xx_hal_pwr_ex.c ****   uint32_t mode;
 2422              		.loc 1 1345 3 view .LVU500
1346:../../Drivers/STM32L5xx_HAL_Driver/Src/stm32l5xx_hal_pwr_ex.c ****   uint32_t pwr_sr1;
 2423              		.loc 1 1346 3 view .LVU501
1347:../../Drivers/STM32L5xx_HAL_Driver/Src/stm32l5xx_hal_pwr_ex.c **** 
1348:../../Drivers/STM32L5xx_HAL_Driver/Src/stm32l5xx_hal_pwr_ex.c ****   pwr_sr1 = READ_REG(PWR->SR1);
 2424              		.loc 1 1348 3 view .LVU502
 2425              		.loc 1 1348 11 is_stmt 0 view .LVU503
