ARM GAS  /tmp/cc0Rn02K.s 			page 1


   1              		.cpu cortex-m33
   2              		.arch armv8-m.main
   3              		.fpu fpv4-sp-d16
   4              		.arch_extension dsp
   5              		.eabi_attribute 27, 1
   6              		.eabi_attribute 28, 1
   7              		.eabi_attribute 20, 1
   8              		.eabi_attribute 21, 1
   9              		.eabi_attribute 23, 3
  10              		.eabi_attribute 24, 1
  11              		.eabi_attribute 25, 1
  12              		.eabi_attribute 26, 1
  13              		.eabi_attribute 30, 1
  14              		.eabi_attribute 34, 1
  15              		.eabi_attribute 18, 4
  16              		.file	"stm32l5xx_hal_pka.c"
  17              		.text
  18              	.Ltext0:
  19              		.cfi_sections	.debug_frame
  20              		.file 1 "../../Drivers/STM32L5xx_HAL_Driver/Src/stm32l5xx_hal_pka.c"
  21              		.section	.text.HAL_PKA_MspInit,"ax",%progbits
  22              		.align	1
  23              		.weak	HAL_PKA_MspInit
  24              		.syntax unified
  25              		.thumb
  26              		.thumb_func
  28              	HAL_PKA_MspInit:
  29              	.LVL0:
  30              	.LFB204:
   1:../../Drivers/STM32L5xx_HAL_Driver/Src/stm32l5xx_hal_pka.c **** /**
   2:../../Drivers/STM32L5xx_HAL_Driver/Src/stm32l5xx_hal_pka.c ****   ******************************************************************************
   3:../../Drivers/STM32L5xx_HAL_Driver/Src/stm32l5xx_hal_pka.c ****   * @file    stm32l5xx_hal_pka.c
   4:../../Drivers/STM32L5xx_HAL_Driver/Src/stm32l5xx_hal_pka.c ****   * @author  MCD Application Team
   5:../../Drivers/STM32L5xx_HAL_Driver/Src/stm32l5xx_hal_pka.c ****   * @brief   PKA HAL module driver.
   6:../../Drivers/STM32L5xx_HAL_Driver/Src/stm32l5xx_hal_pka.c ****   *          This file provides firmware functions to manage the following
   7:../../Drivers/STM32L5xx_HAL_Driver/Src/stm32l5xx_hal_pka.c ****   *          functionalities of public key accelerator(PKA):
   8:../../Drivers/STM32L5xx_HAL_Driver/Src/stm32l5xx_hal_pka.c ****   *           + Initialization and de-initialization functions
   9:../../Drivers/STM32L5xx_HAL_Driver/Src/stm32l5xx_hal_pka.c ****   *           + Start an operation
  10:../../Drivers/STM32L5xx_HAL_Driver/Src/stm32l5xx_hal_pka.c ****   *           + Retrieve the operation result
  11:../../Drivers/STM32L5xx_HAL_Driver/Src/stm32l5xx_hal_pka.c ****   *
  12:../../Drivers/STM32L5xx_HAL_Driver/Src/stm32l5xx_hal_pka.c ****   ******************************************************************************
  13:../../Drivers/STM32L5xx_HAL_Driver/Src/stm32l5xx_hal_pka.c ****   * @attention
  14:../../Drivers/STM32L5xx_HAL_Driver/Src/stm32l5xx_hal_pka.c ****   *
  15:../../Drivers/STM32L5xx_HAL_Driver/Src/stm32l5xx_hal_pka.c ****   * Copyright (c) 2019 STMicroelectronics.
  16:../../Drivers/STM32L5xx_HAL_Driver/Src/stm32l5xx_hal_pka.c ****   * All rights reserved.
  17:../../Drivers/STM32L5xx_HAL_Driver/Src/stm32l5xx_hal_pka.c ****   *
  18:../../Drivers/STM32L5xx_HAL_Driver/Src/stm32l5xx_hal_pka.c ****   * This software is licensed under terms that can be found in the LICENSE file
  19:../../Drivers/STM32L5xx_HAL_Driver/Src/stm32l5xx_hal_pka.c ****   * in the root directory of this software component.
  20:../../Drivers/STM32L5xx_HAL_Driver/Src/stm32l5xx_hal_pka.c ****   * If no LICENSE file comes with this software, it is provided AS-IS.
  21:../../Drivers/STM32L5xx_HAL_Driver/Src/stm32l5xx_hal_pka.c ****   *
  22:../../Drivers/STM32L5xx_HAL_Driver/Src/stm32l5xx_hal_pka.c ****   ******************************************************************************
  23:../../Drivers/STM32L5xx_HAL_Driver/Src/stm32l5xx_hal_pka.c ****   @verbatim
  24:../../Drivers/STM32L5xx_HAL_Driver/Src/stm32l5xx_hal_pka.c ****   ==============================================================================
  25:../../Drivers/STM32L5xx_HAL_Driver/Src/stm32l5xx_hal_pka.c ****                         ##### How to use this driver #####
  26:../../Drivers/STM32L5xx_HAL_Driver/Src/stm32l5xx_hal_pka.c ****   ==============================================================================
  27:../../Drivers/STM32L5xx_HAL_Driver/Src/stm32l5xx_hal_pka.c ****     [..]
  28:../../Drivers/STM32L5xx_HAL_Driver/Src/stm32l5xx_hal_pka.c ****     The PKA HAL driver can be used as follows:
ARM GAS  /tmp/cc0Rn02K.s 			page 2


  29:../../Drivers/STM32L5xx_HAL_Driver/Src/stm32l5xx_hal_pka.c **** 
  30:../../Drivers/STM32L5xx_HAL_Driver/Src/stm32l5xx_hal_pka.c ****     (#) Declare a PKA_HandleTypeDef handle structure, for example: PKA_HandleTypeDef  hpka;
  31:../../Drivers/STM32L5xx_HAL_Driver/Src/stm32l5xx_hal_pka.c **** 
  32:../../Drivers/STM32L5xx_HAL_Driver/Src/stm32l5xx_hal_pka.c ****     (#) Initialize the PKA low level resources by implementing the HAL_PKA_MspInit() API:
  33:../../Drivers/STM32L5xx_HAL_Driver/Src/stm32l5xx_hal_pka.c ****         (##) Enable the PKA interface clock
  34:../../Drivers/STM32L5xx_HAL_Driver/Src/stm32l5xx_hal_pka.c ****         (##) NVIC configuration if you need to use interrupt process
  35:../../Drivers/STM32L5xx_HAL_Driver/Src/stm32l5xx_hal_pka.c ****             (+++) Configure the PKA interrupt priority
  36:../../Drivers/STM32L5xx_HAL_Driver/Src/stm32l5xx_hal_pka.c ****             (+++) Enable the NVIC PKA IRQ Channel
  37:../../Drivers/STM32L5xx_HAL_Driver/Src/stm32l5xx_hal_pka.c **** 
  38:../../Drivers/STM32L5xx_HAL_Driver/Src/stm32l5xx_hal_pka.c ****     (#) Initialize the PKA registers by calling the HAL_PKA_Init() API which trig
  39:../../Drivers/STM32L5xx_HAL_Driver/Src/stm32l5xx_hal_pka.c ****         HAL_PKA_MspInit().
  40:../../Drivers/STM32L5xx_HAL_Driver/Src/stm32l5xx_hal_pka.c **** 
  41:../../Drivers/STM32L5xx_HAL_Driver/Src/stm32l5xx_hal_pka.c ****     (#) Fill entirely the input structure corresponding to your operation:
  42:../../Drivers/STM32L5xx_HAL_Driver/Src/stm32l5xx_hal_pka.c ****         For instance: PKA_ModExpInTypeDef for HAL_PKA_ModExp().
  43:../../Drivers/STM32L5xx_HAL_Driver/Src/stm32l5xx_hal_pka.c **** 
  44:../../Drivers/STM32L5xx_HAL_Driver/Src/stm32l5xx_hal_pka.c ****     (#) Execute the operation (in polling or interrupt) and check the returned value.
  45:../../Drivers/STM32L5xx_HAL_Driver/Src/stm32l5xx_hal_pka.c **** 
  46:../../Drivers/STM32L5xx_HAL_Driver/Src/stm32l5xx_hal_pka.c ****     (#) Retrieve the result of the operation (For instance, HAL_PKA_ModExp_GetResult for
  47:../../Drivers/STM32L5xx_HAL_Driver/Src/stm32l5xx_hal_pka.c ****         HAL_PKA_ModExp operation). The function to gather the result is different for each
  48:../../Drivers/STM32L5xx_HAL_Driver/Src/stm32l5xx_hal_pka.c ****         kind of operation. The correspondence can be found in the following section.
  49:../../Drivers/STM32L5xx_HAL_Driver/Src/stm32l5xx_hal_pka.c **** 
  50:../../Drivers/STM32L5xx_HAL_Driver/Src/stm32l5xx_hal_pka.c ****     (#) Call the function HAL_PKA_DeInit() to restore the default configuration which trig
  51:../../Drivers/STM32L5xx_HAL_Driver/Src/stm32l5xx_hal_pka.c ****         HAL_PKA_MspDeInit().
  52:../../Drivers/STM32L5xx_HAL_Driver/Src/stm32l5xx_hal_pka.c **** 
  53:../../Drivers/STM32L5xx_HAL_Driver/Src/stm32l5xx_hal_pka.c ****     *** High level operation ***
  54:../../Drivers/STM32L5xx_HAL_Driver/Src/stm32l5xx_hal_pka.c ****     =================================
  55:../../Drivers/STM32L5xx_HAL_Driver/Src/stm32l5xx_hal_pka.c ****     [..]
  56:../../Drivers/STM32L5xx_HAL_Driver/Src/stm32l5xx_hal_pka.c ****       (+) Input structure requires buffers as uint8_t array.
  57:../../Drivers/STM32L5xx_HAL_Driver/Src/stm32l5xx_hal_pka.c **** 
  58:../../Drivers/STM32L5xx_HAL_Driver/Src/stm32l5xx_hal_pka.c ****       (+) Output structure requires buffers as uint8_t array.
  59:../../Drivers/STM32L5xx_HAL_Driver/Src/stm32l5xx_hal_pka.c **** 
  60:../../Drivers/STM32L5xx_HAL_Driver/Src/stm32l5xx_hal_pka.c ****       (+) Modular exponentiation using:
  61:../../Drivers/STM32L5xx_HAL_Driver/Src/stm32l5xx_hal_pka.c ****       (++) HAL_PKA_ModExp().
  62:../../Drivers/STM32L5xx_HAL_Driver/Src/stm32l5xx_hal_pka.c ****       (++) HAL_PKA_ModExp_IT().
  63:../../Drivers/STM32L5xx_HAL_Driver/Src/stm32l5xx_hal_pka.c ****       (++) HAL_PKA_ModExpFastMode().
  64:../../Drivers/STM32L5xx_HAL_Driver/Src/stm32l5xx_hal_pka.c ****       (++) HAL_PKA_ModExpFastMode_IT().
  65:../../Drivers/STM32L5xx_HAL_Driver/Src/stm32l5xx_hal_pka.c ****       (++) HAL_PKA_ModExp_GetResult() to retrieve the result of the operation.
  66:../../Drivers/STM32L5xx_HAL_Driver/Src/stm32l5xx_hal_pka.c **** 
  67:../../Drivers/STM32L5xx_HAL_Driver/Src/stm32l5xx_hal_pka.c ****       (+) RSA Chinese Remainder Theorem (CRT) using:
  68:../../Drivers/STM32L5xx_HAL_Driver/Src/stm32l5xx_hal_pka.c ****       (++) HAL_PKA_RSACRTExp().
  69:../../Drivers/STM32L5xx_HAL_Driver/Src/stm32l5xx_hal_pka.c ****       (++) HAL_PKA_RSACRTExp_IT().
  70:../../Drivers/STM32L5xx_HAL_Driver/Src/stm32l5xx_hal_pka.c ****       (++) HAL_PKA_RSACRTExp_GetResult() to retrieve the result of the operation.
  71:../../Drivers/STM32L5xx_HAL_Driver/Src/stm32l5xx_hal_pka.c **** 
  72:../../Drivers/STM32L5xx_HAL_Driver/Src/stm32l5xx_hal_pka.c ****       (+) ECC Point Check using:
  73:../../Drivers/STM32L5xx_HAL_Driver/Src/stm32l5xx_hal_pka.c ****       (++) HAL_PKA_PointCheck().
  74:../../Drivers/STM32L5xx_HAL_Driver/Src/stm32l5xx_hal_pka.c ****       (++) HAL_PKA_PointCheck_IT().
  75:../../Drivers/STM32L5xx_HAL_Driver/Src/stm32l5xx_hal_pka.c ****       (++) HAL_PKA_PointCheck_IsOnCurve() to retrieve the result of the operation.
  76:../../Drivers/STM32L5xx_HAL_Driver/Src/stm32l5xx_hal_pka.c **** 
  77:../../Drivers/STM32L5xx_HAL_Driver/Src/stm32l5xx_hal_pka.c ****       (+) ECDSA Sign
  78:../../Drivers/STM32L5xx_HAL_Driver/Src/stm32l5xx_hal_pka.c ****       (++) HAL_PKA_ECDSASign().
  79:../../Drivers/STM32L5xx_HAL_Driver/Src/stm32l5xx_hal_pka.c ****       (++) HAL_PKA_ECDSASign_IT().
  80:../../Drivers/STM32L5xx_HAL_Driver/Src/stm32l5xx_hal_pka.c ****       (++) HAL_PKA_ECDSASign_GetResult() to retrieve the result of the operation.
  81:../../Drivers/STM32L5xx_HAL_Driver/Src/stm32l5xx_hal_pka.c **** 
  82:../../Drivers/STM32L5xx_HAL_Driver/Src/stm32l5xx_hal_pka.c ****       (+) ECDSA Verify
  83:../../Drivers/STM32L5xx_HAL_Driver/Src/stm32l5xx_hal_pka.c ****       (++) HAL_PKA_ECDSAVerif().
  84:../../Drivers/STM32L5xx_HAL_Driver/Src/stm32l5xx_hal_pka.c ****       (++) HAL_PKA_ECDSAVerif_IT().
  85:../../Drivers/STM32L5xx_HAL_Driver/Src/stm32l5xx_hal_pka.c ****       (++) HAL_PKA_ECDSAVerif_IsValidSignature() to retrieve the result of the operation.
ARM GAS  /tmp/cc0Rn02K.s 			page 3


  86:../../Drivers/STM32L5xx_HAL_Driver/Src/stm32l5xx_hal_pka.c **** 
  87:../../Drivers/STM32L5xx_HAL_Driver/Src/stm32l5xx_hal_pka.c ****       (+) ECC Scalar Multiplication using:
  88:../../Drivers/STM32L5xx_HAL_Driver/Src/stm32l5xx_hal_pka.c ****       (++) HAL_PKA_ECCMul().
  89:../../Drivers/STM32L5xx_HAL_Driver/Src/stm32l5xx_hal_pka.c ****       (++) HAL_PKA_ECCMul_IT().
  90:../../Drivers/STM32L5xx_HAL_Driver/Src/stm32l5xx_hal_pka.c ****       (++) HAL_PKA_ECCMulFastMode().
  91:../../Drivers/STM32L5xx_HAL_Driver/Src/stm32l5xx_hal_pka.c ****       (++) HAL_PKA_ECCMulFastMode_IT().
  92:../../Drivers/STM32L5xx_HAL_Driver/Src/stm32l5xx_hal_pka.c ****       (++) HAL_PKA_ECCMul_GetResult() to retrieve the result of the operation.
  93:../../Drivers/STM32L5xx_HAL_Driver/Src/stm32l5xx_hal_pka.c **** 
  94:../../Drivers/STM32L5xx_HAL_Driver/Src/stm32l5xx_hal_pka.c **** 
  95:../../Drivers/STM32L5xx_HAL_Driver/Src/stm32l5xx_hal_pka.c ****     *** Low level operation ***
  96:../../Drivers/STM32L5xx_HAL_Driver/Src/stm32l5xx_hal_pka.c ****     =================================
  97:../../Drivers/STM32L5xx_HAL_Driver/Src/stm32l5xx_hal_pka.c ****     [..]
  98:../../Drivers/STM32L5xx_HAL_Driver/Src/stm32l5xx_hal_pka.c ****       (+) Input structure requires buffers as uint32_t array.
  99:../../Drivers/STM32L5xx_HAL_Driver/Src/stm32l5xx_hal_pka.c **** 
 100:../../Drivers/STM32L5xx_HAL_Driver/Src/stm32l5xx_hal_pka.c ****       (+) Output structure requires buffers as uint32_t array.
 101:../../Drivers/STM32L5xx_HAL_Driver/Src/stm32l5xx_hal_pka.c **** 
 102:../../Drivers/STM32L5xx_HAL_Driver/Src/stm32l5xx_hal_pka.c ****       (+) Arithmetic addition using:
 103:../../Drivers/STM32L5xx_HAL_Driver/Src/stm32l5xx_hal_pka.c ****       (++) HAL_PKA_Add().
 104:../../Drivers/STM32L5xx_HAL_Driver/Src/stm32l5xx_hal_pka.c ****       (++) HAL_PKA_Add_IT().
 105:../../Drivers/STM32L5xx_HAL_Driver/Src/stm32l5xx_hal_pka.c ****       (++) HAL_PKA_Arithmetic_GetResult() to retrieve the result of the operation.
 106:../../Drivers/STM32L5xx_HAL_Driver/Src/stm32l5xx_hal_pka.c ****             The resulting size can be the input parameter or the input parameter size + 1 (overflow
 107:../../Drivers/STM32L5xx_HAL_Driver/Src/stm32l5xx_hal_pka.c **** 
 108:../../Drivers/STM32L5xx_HAL_Driver/Src/stm32l5xx_hal_pka.c ****       (+) Arithmetic subtraction using:
 109:../../Drivers/STM32L5xx_HAL_Driver/Src/stm32l5xx_hal_pka.c ****       (++) HAL_PKA_Sub().
 110:../../Drivers/STM32L5xx_HAL_Driver/Src/stm32l5xx_hal_pka.c ****       (++) HAL_PKA_Sub_IT().
 111:../../Drivers/STM32L5xx_HAL_Driver/Src/stm32l5xx_hal_pka.c ****       (++) HAL_PKA_Arithmetic_GetResult() to retrieve the result of the operation.
 112:../../Drivers/STM32L5xx_HAL_Driver/Src/stm32l5xx_hal_pka.c **** 
 113:../../Drivers/STM32L5xx_HAL_Driver/Src/stm32l5xx_hal_pka.c ****       (+) Arithmetic multiplication using:
 114:../../Drivers/STM32L5xx_HAL_Driver/Src/stm32l5xx_hal_pka.c ****       (++) HAL_PKA_Mul().
 115:../../Drivers/STM32L5xx_HAL_Driver/Src/stm32l5xx_hal_pka.c ****       (++) HAL_PKA_Mul_IT().
 116:../../Drivers/STM32L5xx_HAL_Driver/Src/stm32l5xx_hal_pka.c ****       (++) HAL_PKA_Arithmetic_GetResult() to retrieve the result of the operation.
 117:../../Drivers/STM32L5xx_HAL_Driver/Src/stm32l5xx_hal_pka.c **** 
 118:../../Drivers/STM32L5xx_HAL_Driver/Src/stm32l5xx_hal_pka.c ****       (+) Comparison using:
 119:../../Drivers/STM32L5xx_HAL_Driver/Src/stm32l5xx_hal_pka.c ****       (++) HAL_PKA_Cmp().
 120:../../Drivers/STM32L5xx_HAL_Driver/Src/stm32l5xx_hal_pka.c ****       (++) HAL_PKA_Cmp_IT().
 121:../../Drivers/STM32L5xx_HAL_Driver/Src/stm32l5xx_hal_pka.c ****       (++) HAL_PKA_Arithmetic_GetResult() to retrieve the result of the operation.
 122:../../Drivers/STM32L5xx_HAL_Driver/Src/stm32l5xx_hal_pka.c **** 
 123:../../Drivers/STM32L5xx_HAL_Driver/Src/stm32l5xx_hal_pka.c ****       (+) Modular addition using:
 124:../../Drivers/STM32L5xx_HAL_Driver/Src/stm32l5xx_hal_pka.c ****       (++) HAL_PKA_ModAdd().
 125:../../Drivers/STM32L5xx_HAL_Driver/Src/stm32l5xx_hal_pka.c ****       (++) HAL_PKA_ModAdd_IT().
 126:../../Drivers/STM32L5xx_HAL_Driver/Src/stm32l5xx_hal_pka.c ****       (++) HAL_PKA_Arithmetic_GetResult() to retrieve the result of the operation.
 127:../../Drivers/STM32L5xx_HAL_Driver/Src/stm32l5xx_hal_pka.c **** 
 128:../../Drivers/STM32L5xx_HAL_Driver/Src/stm32l5xx_hal_pka.c ****       (+) Modular subtraction using:
 129:../../Drivers/STM32L5xx_HAL_Driver/Src/stm32l5xx_hal_pka.c ****       (++) HAL_PKA_ModSub().
 130:../../Drivers/STM32L5xx_HAL_Driver/Src/stm32l5xx_hal_pka.c ****       (++) HAL_PKA_ModSub_IT().
 131:../../Drivers/STM32L5xx_HAL_Driver/Src/stm32l5xx_hal_pka.c ****       (++) HAL_PKA_Arithmetic_GetResult() to retrieve the result of the operation.
 132:../../Drivers/STM32L5xx_HAL_Driver/Src/stm32l5xx_hal_pka.c **** 
 133:../../Drivers/STM32L5xx_HAL_Driver/Src/stm32l5xx_hal_pka.c ****       (+) Modular inversion using:
 134:../../Drivers/STM32L5xx_HAL_Driver/Src/stm32l5xx_hal_pka.c ****       (++) HAL_PKA_ModInv().
 135:../../Drivers/STM32L5xx_HAL_Driver/Src/stm32l5xx_hal_pka.c ****       (++) HAL_PKA_ModInv_IT().
 136:../../Drivers/STM32L5xx_HAL_Driver/Src/stm32l5xx_hal_pka.c ****       (++) HAL_PKA_Arithmetic_GetResult() to retrieve the result of the operation.
 137:../../Drivers/STM32L5xx_HAL_Driver/Src/stm32l5xx_hal_pka.c **** 
 138:../../Drivers/STM32L5xx_HAL_Driver/Src/stm32l5xx_hal_pka.c ****       (+) Modular reduction using:
 139:../../Drivers/STM32L5xx_HAL_Driver/Src/stm32l5xx_hal_pka.c ****       (++) HAL_PKA_ModRed().
 140:../../Drivers/STM32L5xx_HAL_Driver/Src/stm32l5xx_hal_pka.c ****       (++) HAL_PKA_ModRed_IT().
 141:../../Drivers/STM32L5xx_HAL_Driver/Src/stm32l5xx_hal_pka.c ****       (++) HAL_PKA_Arithmetic_GetResult() to retrieve the result of the operation.
 142:../../Drivers/STM32L5xx_HAL_Driver/Src/stm32l5xx_hal_pka.c **** 
ARM GAS  /tmp/cc0Rn02K.s 			page 4


 143:../../Drivers/STM32L5xx_HAL_Driver/Src/stm32l5xx_hal_pka.c ****       (+) Montgomery multiplication using:
 144:../../Drivers/STM32L5xx_HAL_Driver/Src/stm32l5xx_hal_pka.c ****       (++) HAL_PKA_MontgomeryMul().
 145:../../Drivers/STM32L5xx_HAL_Driver/Src/stm32l5xx_hal_pka.c ****       (++) HAL_PKA_MontgomeryMul_IT().
 146:../../Drivers/STM32L5xx_HAL_Driver/Src/stm32l5xx_hal_pka.c ****       (++) HAL_PKA_Arithmetic_GetResult() to retrieve the result of the operation.
 147:../../Drivers/STM32L5xx_HAL_Driver/Src/stm32l5xx_hal_pka.c **** 
 148:../../Drivers/STM32L5xx_HAL_Driver/Src/stm32l5xx_hal_pka.c ****     *** Montgomery parameter ***
 149:../../Drivers/STM32L5xx_HAL_Driver/Src/stm32l5xx_hal_pka.c ****     =================================
 150:../../Drivers/STM32L5xx_HAL_Driver/Src/stm32l5xx_hal_pka.c ****       (+) For some operation, the computation of the Montgomery parameter is a prerequisite.
 151:../../Drivers/STM32L5xx_HAL_Driver/Src/stm32l5xx_hal_pka.c ****       (+) Input structure requires buffers as uint8_t array.
 152:../../Drivers/STM32L5xx_HAL_Driver/Src/stm32l5xx_hal_pka.c ****       (+) Output structure requires buffers as uint32_t array.(Only used inside PKA).
 153:../../Drivers/STM32L5xx_HAL_Driver/Src/stm32l5xx_hal_pka.c ****       (+) You can compute the Montgomery parameter using:
 154:../../Drivers/STM32L5xx_HAL_Driver/Src/stm32l5xx_hal_pka.c ****       (++) HAL_PKA_MontgomeryParam().
 155:../../Drivers/STM32L5xx_HAL_Driver/Src/stm32l5xx_hal_pka.c ****       (++) HAL_PKA_MontgomeryParam_IT().
 156:../../Drivers/STM32L5xx_HAL_Driver/Src/stm32l5xx_hal_pka.c ****       (++) HAL_PKA_MontgomeryParam_GetResult() to retrieve the result of the operation.
 157:../../Drivers/STM32L5xx_HAL_Driver/Src/stm32l5xx_hal_pka.c **** 
 158:../../Drivers/STM32L5xx_HAL_Driver/Src/stm32l5xx_hal_pka.c ****     *** Polling mode operation ***
 159:../../Drivers/STM32L5xx_HAL_Driver/Src/stm32l5xx_hal_pka.c ****     ===================================
 160:../../Drivers/STM32L5xx_HAL_Driver/Src/stm32l5xx_hal_pka.c ****     [..]
 161:../../Drivers/STM32L5xx_HAL_Driver/Src/stm32l5xx_hal_pka.c ****       (+) When an operation is started in polling mode, the function returns when:
 162:../../Drivers/STM32L5xx_HAL_Driver/Src/stm32l5xx_hal_pka.c ****       (++) A timeout is encounter.
 163:../../Drivers/STM32L5xx_HAL_Driver/Src/stm32l5xx_hal_pka.c ****       (++) The operation is completed.
 164:../../Drivers/STM32L5xx_HAL_Driver/Src/stm32l5xx_hal_pka.c **** 
 165:../../Drivers/STM32L5xx_HAL_Driver/Src/stm32l5xx_hal_pka.c ****     *** Interrupt mode operation ***
 166:../../Drivers/STM32L5xx_HAL_Driver/Src/stm32l5xx_hal_pka.c ****     ===================================
 167:../../Drivers/STM32L5xx_HAL_Driver/Src/stm32l5xx_hal_pka.c ****     [..]
 168:../../Drivers/STM32L5xx_HAL_Driver/Src/stm32l5xx_hal_pka.c ****       (+) Add HAL_PKA_IRQHandler to the IRQHandler of PKA.
 169:../../Drivers/STM32L5xx_HAL_Driver/Src/stm32l5xx_hal_pka.c ****       (+) Enable the IRQ using HAL_NVIC_EnableIRQ().
 170:../../Drivers/STM32L5xx_HAL_Driver/Src/stm32l5xx_hal_pka.c ****       (+) When an operation is started in interrupt mode, the function returns immediately.
 171:../../Drivers/STM32L5xx_HAL_Driver/Src/stm32l5xx_hal_pka.c ****       (+) When the operation is completed, the callback HAL_PKA_OperationCpltCallback is called.
 172:../../Drivers/STM32L5xx_HAL_Driver/Src/stm32l5xx_hal_pka.c ****       (+) When an error is encountered, the callback HAL_PKA_ErrorCallback is called.
 173:../../Drivers/STM32L5xx_HAL_Driver/Src/stm32l5xx_hal_pka.c ****       (+) To stop any operation in interrupt mode, use HAL_PKA_Abort().
 174:../../Drivers/STM32L5xx_HAL_Driver/Src/stm32l5xx_hal_pka.c **** 
 175:../../Drivers/STM32L5xx_HAL_Driver/Src/stm32l5xx_hal_pka.c ****     *** Utilities ***
 176:../../Drivers/STM32L5xx_HAL_Driver/Src/stm32l5xx_hal_pka.c ****     ===================================
 177:../../Drivers/STM32L5xx_HAL_Driver/Src/stm32l5xx_hal_pka.c ****     [..]
 178:../../Drivers/STM32L5xx_HAL_Driver/Src/stm32l5xx_hal_pka.c ****       (+) To clear the PKA RAM, use HAL_PKA_RAMReset().
 179:../../Drivers/STM32L5xx_HAL_Driver/Src/stm32l5xx_hal_pka.c ****       (+) To get current state, use HAL_PKA_GetState().
 180:../../Drivers/STM32L5xx_HAL_Driver/Src/stm32l5xx_hal_pka.c ****       (+) To get current error, use HAL_PKA_GetError().
 181:../../Drivers/STM32L5xx_HAL_Driver/Src/stm32l5xx_hal_pka.c **** 
 182:../../Drivers/STM32L5xx_HAL_Driver/Src/stm32l5xx_hal_pka.c ****     *** Callback registration ***
 183:../../Drivers/STM32L5xx_HAL_Driver/Src/stm32l5xx_hal_pka.c ****     =============================================
 184:../../Drivers/STM32L5xx_HAL_Driver/Src/stm32l5xx_hal_pka.c ****     [..]
 185:../../Drivers/STM32L5xx_HAL_Driver/Src/stm32l5xx_hal_pka.c **** 
 186:../../Drivers/STM32L5xx_HAL_Driver/Src/stm32l5xx_hal_pka.c ****      The compilation flag USE_HAL_PKA_REGISTER_CALLBACKS, when set to 1,
 187:../../Drivers/STM32L5xx_HAL_Driver/Src/stm32l5xx_hal_pka.c ****      allows the user to configure dynamically the driver callbacks.
 188:../../Drivers/STM32L5xx_HAL_Driver/Src/stm32l5xx_hal_pka.c ****      Use Functions HAL_PKA_RegisterCallback()
 189:../../Drivers/STM32L5xx_HAL_Driver/Src/stm32l5xx_hal_pka.c ****      to register an interrupt callback.
 190:../../Drivers/STM32L5xx_HAL_Driver/Src/stm32l5xx_hal_pka.c ****     [..]
 191:../../Drivers/STM32L5xx_HAL_Driver/Src/stm32l5xx_hal_pka.c **** 
 192:../../Drivers/STM32L5xx_HAL_Driver/Src/stm32l5xx_hal_pka.c ****      Function HAL_PKA_RegisterCallback() allows to register following callbacks:
 193:../../Drivers/STM32L5xx_HAL_Driver/Src/stm32l5xx_hal_pka.c ****        (+) OperationCpltCallback : callback for End of operation.
 194:../../Drivers/STM32L5xx_HAL_Driver/Src/stm32l5xx_hal_pka.c ****        (+) ErrorCallback         : callback for error detection.
 195:../../Drivers/STM32L5xx_HAL_Driver/Src/stm32l5xx_hal_pka.c ****        (+) MspInitCallback       : callback for Msp Init.
 196:../../Drivers/STM32L5xx_HAL_Driver/Src/stm32l5xx_hal_pka.c ****        (+) MspDeInitCallback     : callback for Msp DeInit.
 197:../../Drivers/STM32L5xx_HAL_Driver/Src/stm32l5xx_hal_pka.c ****      This function takes as parameters the HAL peripheral handle, the Callback ID
 198:../../Drivers/STM32L5xx_HAL_Driver/Src/stm32l5xx_hal_pka.c ****      and a pointer to the user callback function.
 199:../../Drivers/STM32L5xx_HAL_Driver/Src/stm32l5xx_hal_pka.c ****     [..]
ARM GAS  /tmp/cc0Rn02K.s 			page 5


 200:../../Drivers/STM32L5xx_HAL_Driver/Src/stm32l5xx_hal_pka.c **** 
 201:../../Drivers/STM32L5xx_HAL_Driver/Src/stm32l5xx_hal_pka.c ****      Use function HAL_PKA_UnRegisterCallback to reset a callback to the default
 202:../../Drivers/STM32L5xx_HAL_Driver/Src/stm32l5xx_hal_pka.c ****      weak function.
 203:../../Drivers/STM32L5xx_HAL_Driver/Src/stm32l5xx_hal_pka.c ****     [..]
 204:../../Drivers/STM32L5xx_HAL_Driver/Src/stm32l5xx_hal_pka.c **** 
 205:../../Drivers/STM32L5xx_HAL_Driver/Src/stm32l5xx_hal_pka.c ****      HAL_PKA_UnRegisterCallback takes as parameters the HAL peripheral handle,
 206:../../Drivers/STM32L5xx_HAL_Driver/Src/stm32l5xx_hal_pka.c ****      and the Callback ID.
 207:../../Drivers/STM32L5xx_HAL_Driver/Src/stm32l5xx_hal_pka.c ****      This function allows to reset following callbacks:
 208:../../Drivers/STM32L5xx_HAL_Driver/Src/stm32l5xx_hal_pka.c ****        (+) OperationCpltCallback : callback for End of operation.
 209:../../Drivers/STM32L5xx_HAL_Driver/Src/stm32l5xx_hal_pka.c ****        (+) ErrorCallback         : callback for error detection.
 210:../../Drivers/STM32L5xx_HAL_Driver/Src/stm32l5xx_hal_pka.c ****        (+) MspInitCallback       : callback for Msp Init.
 211:../../Drivers/STM32L5xx_HAL_Driver/Src/stm32l5xx_hal_pka.c ****        (+) MspDeInitCallback     : callback for Msp DeInit.
 212:../../Drivers/STM32L5xx_HAL_Driver/Src/stm32l5xx_hal_pka.c ****      [..]
 213:../../Drivers/STM32L5xx_HAL_Driver/Src/stm32l5xx_hal_pka.c **** 
 214:../../Drivers/STM32L5xx_HAL_Driver/Src/stm32l5xx_hal_pka.c ****      By default, after the HAL_PKA_Init() and when the state is HAL_PKA_STATE_RESET
 215:../../Drivers/STM32L5xx_HAL_Driver/Src/stm32l5xx_hal_pka.c ****      all callbacks are set to the corresponding weak functions:
 216:../../Drivers/STM32L5xx_HAL_Driver/Src/stm32l5xx_hal_pka.c ****      examples HAL_PKA_OperationCpltCallback(), HAL_PKA_ErrorCallback().
 217:../../Drivers/STM32L5xx_HAL_Driver/Src/stm32l5xx_hal_pka.c ****      Exception done for MspInit and MspDeInit functions that are
 218:../../Drivers/STM32L5xx_HAL_Driver/Src/stm32l5xx_hal_pka.c ****      reset to the legacy weak functions in the HAL_PKA_Init()/ HAL_PKA_DeInit() only when
 219:../../Drivers/STM32L5xx_HAL_Driver/Src/stm32l5xx_hal_pka.c ****      these callbacks are null (not registered beforehand).
 220:../../Drivers/STM32L5xx_HAL_Driver/Src/stm32l5xx_hal_pka.c ****     [..]
 221:../../Drivers/STM32L5xx_HAL_Driver/Src/stm32l5xx_hal_pka.c **** 
 222:../../Drivers/STM32L5xx_HAL_Driver/Src/stm32l5xx_hal_pka.c ****      If MspInit or MspDeInit are not null, the HAL_PKA_Init()/ HAL_PKA_DeInit()
 223:../../Drivers/STM32L5xx_HAL_Driver/Src/stm32l5xx_hal_pka.c ****      keep and use the user MspInit/MspDeInit callbacks (registered beforehand) whatever the state.
 224:../../Drivers/STM32L5xx_HAL_Driver/Src/stm32l5xx_hal_pka.c ****      [..]
 225:../../Drivers/STM32L5xx_HAL_Driver/Src/stm32l5xx_hal_pka.c **** 
 226:../../Drivers/STM32L5xx_HAL_Driver/Src/stm32l5xx_hal_pka.c ****      Callbacks can be registered/unregistered in HAL_PKA_STATE_READY state only.
 227:../../Drivers/STM32L5xx_HAL_Driver/Src/stm32l5xx_hal_pka.c ****      Exception done MspInit/MspDeInit functions that can be registered/unregistered
 228:../../Drivers/STM32L5xx_HAL_Driver/Src/stm32l5xx_hal_pka.c ****      in HAL_PKA_STATE_READY or HAL_PKA_STATE_RESET state,
 229:../../Drivers/STM32L5xx_HAL_Driver/Src/stm32l5xx_hal_pka.c ****      thus registered (user) MspInit/DeInit callbacks can be used during the Init/DeInit.
 230:../../Drivers/STM32L5xx_HAL_Driver/Src/stm32l5xx_hal_pka.c ****     [..]
 231:../../Drivers/STM32L5xx_HAL_Driver/Src/stm32l5xx_hal_pka.c **** 
 232:../../Drivers/STM32L5xx_HAL_Driver/Src/stm32l5xx_hal_pka.c ****      Then, the user first registers the MspInit/MspDeInit user callbacks
 233:../../Drivers/STM32L5xx_HAL_Driver/Src/stm32l5xx_hal_pka.c ****      using HAL_PKA_RegisterCallback() before calling HAL_PKA_DeInit()
 234:../../Drivers/STM32L5xx_HAL_Driver/Src/stm32l5xx_hal_pka.c ****      or HAL_PKA_Init() function.
 235:../../Drivers/STM32L5xx_HAL_Driver/Src/stm32l5xx_hal_pka.c ****      [..]
 236:../../Drivers/STM32L5xx_HAL_Driver/Src/stm32l5xx_hal_pka.c **** 
 237:../../Drivers/STM32L5xx_HAL_Driver/Src/stm32l5xx_hal_pka.c ****      When the compilation flag USE_HAL_PKA_REGISTER_CALLBACKS is set to 0 or
 238:../../Drivers/STM32L5xx_HAL_Driver/Src/stm32l5xx_hal_pka.c ****      not defined, the callback registration feature is not available and all callbacks
 239:../../Drivers/STM32L5xx_HAL_Driver/Src/stm32l5xx_hal_pka.c ****      are set to the corresponding weak functions.
 240:../../Drivers/STM32L5xx_HAL_Driver/Src/stm32l5xx_hal_pka.c **** 
 241:../../Drivers/STM32L5xx_HAL_Driver/Src/stm32l5xx_hal_pka.c ****   @endverbatim
 242:../../Drivers/STM32L5xx_HAL_Driver/Src/stm32l5xx_hal_pka.c ****   ******************************************************************************
 243:../../Drivers/STM32L5xx_HAL_Driver/Src/stm32l5xx_hal_pka.c ****   */
 244:../../Drivers/STM32L5xx_HAL_Driver/Src/stm32l5xx_hal_pka.c **** 
 245:../../Drivers/STM32L5xx_HAL_Driver/Src/stm32l5xx_hal_pka.c **** /* Includes ------------------------------------------------------------------*/
 246:../../Drivers/STM32L5xx_HAL_Driver/Src/stm32l5xx_hal_pka.c **** #include "stm32l5xx_hal.h"
 247:../../Drivers/STM32L5xx_HAL_Driver/Src/stm32l5xx_hal_pka.c **** 
 248:../../Drivers/STM32L5xx_HAL_Driver/Src/stm32l5xx_hal_pka.c **** /** @addtogroup STM32L5xx_HAL_Driver
 249:../../Drivers/STM32L5xx_HAL_Driver/Src/stm32l5xx_hal_pka.c ****   * @{
 250:../../Drivers/STM32L5xx_HAL_Driver/Src/stm32l5xx_hal_pka.c ****   */
 251:../../Drivers/STM32L5xx_HAL_Driver/Src/stm32l5xx_hal_pka.c **** 
 252:../../Drivers/STM32L5xx_HAL_Driver/Src/stm32l5xx_hal_pka.c **** #if defined(PKA) && defined(HAL_PKA_MODULE_ENABLED)
 253:../../Drivers/STM32L5xx_HAL_Driver/Src/stm32l5xx_hal_pka.c **** 
 254:../../Drivers/STM32L5xx_HAL_Driver/Src/stm32l5xx_hal_pka.c **** /** @defgroup PKA PKA
 255:../../Drivers/STM32L5xx_HAL_Driver/Src/stm32l5xx_hal_pka.c ****   * @brief    PKA HAL module driver.
 256:../../Drivers/STM32L5xx_HAL_Driver/Src/stm32l5xx_hal_pka.c ****   * @{
ARM GAS  /tmp/cc0Rn02K.s 			page 6


 257:../../Drivers/STM32L5xx_HAL_Driver/Src/stm32l5xx_hal_pka.c ****   */
 258:../../Drivers/STM32L5xx_HAL_Driver/Src/stm32l5xx_hal_pka.c **** 
 259:../../Drivers/STM32L5xx_HAL_Driver/Src/stm32l5xx_hal_pka.c **** /* Private typedef -----------------------------------------------------------*/
 260:../../Drivers/STM32L5xx_HAL_Driver/Src/stm32l5xx_hal_pka.c **** /* Private define ------------------------------------------------------------*/
 261:../../Drivers/STM32L5xx_HAL_Driver/Src/stm32l5xx_hal_pka.c **** /** @defgroup PKA_Private_Define PKA Private Define
 262:../../Drivers/STM32L5xx_HAL_Driver/Src/stm32l5xx_hal_pka.c ****   * @{
 263:../../Drivers/STM32L5xx_HAL_Driver/Src/stm32l5xx_hal_pka.c ****   */
 264:../../Drivers/STM32L5xx_HAL_Driver/Src/stm32l5xx_hal_pka.c **** #define PKA_RAM_SIZE 894U
 265:../../Drivers/STM32L5xx_HAL_Driver/Src/stm32l5xx_hal_pka.c **** #define PKA_RAM_ERASE_TIMEOUT 1000U
 266:../../Drivers/STM32L5xx_HAL_Driver/Src/stm32l5xx_hal_pka.c **** 
 267:../../Drivers/STM32L5xx_HAL_Driver/Src/stm32l5xx_hal_pka.c **** /* Private macro -------------------------------------------------------------*/
 268:../../Drivers/STM32L5xx_HAL_Driver/Src/stm32l5xx_hal_pka.c **** #define __PKA_RAM_PARAM_END(TAB,INDEX)                do{                                   \
 269:../../Drivers/STM32L5xx_HAL_Driver/Src/stm32l5xx_hal_pka.c ****                                                                     TAB[INDEX] = 0UL;       \
 270:../../Drivers/STM32L5xx_HAL_Driver/Src/stm32l5xx_hal_pka.c ****                                                                   } while(0)
 271:../../Drivers/STM32L5xx_HAL_Driver/Src/stm32l5xx_hal_pka.c **** /**
 272:../../Drivers/STM32L5xx_HAL_Driver/Src/stm32l5xx_hal_pka.c ****   * @}
 273:../../Drivers/STM32L5xx_HAL_Driver/Src/stm32l5xx_hal_pka.c ****   */
 274:../../Drivers/STM32L5xx_HAL_Driver/Src/stm32l5xx_hal_pka.c **** 
 275:../../Drivers/STM32L5xx_HAL_Driver/Src/stm32l5xx_hal_pka.c **** /* Private variables ---------------------------------------------------------*/
 276:../../Drivers/STM32L5xx_HAL_Driver/Src/stm32l5xx_hal_pka.c **** /* Private function prototypes -----------------------------------------------*/
 277:../../Drivers/STM32L5xx_HAL_Driver/Src/stm32l5xx_hal_pka.c **** /** @defgroup PKA_Private_Functions PKA Private Functions
 278:../../Drivers/STM32L5xx_HAL_Driver/Src/stm32l5xx_hal_pka.c ****   * @{
 279:../../Drivers/STM32L5xx_HAL_Driver/Src/stm32l5xx_hal_pka.c ****   */
 280:../../Drivers/STM32L5xx_HAL_Driver/Src/stm32l5xx_hal_pka.c **** uint32_t PKA_GetMode(const PKA_HandleTypeDef *hpka);
 281:../../Drivers/STM32L5xx_HAL_Driver/Src/stm32l5xx_hal_pka.c **** HAL_StatusTypeDef PKA_PollEndOfOperation(const PKA_HandleTypeDef *hpka, uint32_t Timeout, uint32_t 
 282:../../Drivers/STM32L5xx_HAL_Driver/Src/stm32l5xx_hal_pka.c **** uint32_t PKA_CheckError(const PKA_HandleTypeDef *hpka, uint32_t mode);
 283:../../Drivers/STM32L5xx_HAL_Driver/Src/stm32l5xx_hal_pka.c **** uint32_t PKA_GetBitSize_u8(uint32_t byteNumber);
 284:../../Drivers/STM32L5xx_HAL_Driver/Src/stm32l5xx_hal_pka.c **** uint32_t PKA_GetOptBitSize_u8(uint32_t byteNumber, uint8_t msb);
 285:../../Drivers/STM32L5xx_HAL_Driver/Src/stm32l5xx_hal_pka.c **** uint32_t PKA_GetBitSize_u32(uint32_t wordNumber);
 286:../../Drivers/STM32L5xx_HAL_Driver/Src/stm32l5xx_hal_pka.c **** uint32_t PKA_GetArraySize_u8(uint32_t bitSize);
 287:../../Drivers/STM32L5xx_HAL_Driver/Src/stm32l5xx_hal_pka.c **** void PKA_Memcpy_u32_to_u8(uint8_t dst[], __IO const uint32_t src[], size_t n);
 288:../../Drivers/STM32L5xx_HAL_Driver/Src/stm32l5xx_hal_pka.c **** void PKA_Memcpy_u8_to_u32(__IO uint32_t dst[], const uint8_t src[], size_t n);
 289:../../Drivers/STM32L5xx_HAL_Driver/Src/stm32l5xx_hal_pka.c **** void PKA_Memcpy_u32_to_u32(__IO uint32_t dst[], __IO const uint32_t src[], size_t n);
 290:../../Drivers/STM32L5xx_HAL_Driver/Src/stm32l5xx_hal_pka.c **** HAL_StatusTypeDef PKA_Process(PKA_HandleTypeDef *hpka, uint32_t mode, uint32_t Timeout);
 291:../../Drivers/STM32L5xx_HAL_Driver/Src/stm32l5xx_hal_pka.c **** HAL_StatusTypeDef PKA_Process_IT(PKA_HandleTypeDef *hpka, uint32_t mode);
 292:../../Drivers/STM32L5xx_HAL_Driver/Src/stm32l5xx_hal_pka.c **** void PKA_ModExp_Set(PKA_HandleTypeDef *hpka, PKA_ModExpInTypeDef *in);
 293:../../Drivers/STM32L5xx_HAL_Driver/Src/stm32l5xx_hal_pka.c **** void PKA_ModExpFastMode_Set(PKA_HandleTypeDef *hpka, PKA_ModExpFastModeInTypeDef *in);
 294:../../Drivers/STM32L5xx_HAL_Driver/Src/stm32l5xx_hal_pka.c **** void PKA_ECDSASign_Set(PKA_HandleTypeDef *hpka, PKA_ECDSASignInTypeDef *in);
 295:../../Drivers/STM32L5xx_HAL_Driver/Src/stm32l5xx_hal_pka.c **** void PKA_ECDSAVerif_Set(PKA_HandleTypeDef *hpka, PKA_ECDSAVerifInTypeDef *in);
 296:../../Drivers/STM32L5xx_HAL_Driver/Src/stm32l5xx_hal_pka.c **** void PKA_RSACRTExp_Set(PKA_HandleTypeDef *hpka, PKA_RSACRTExpInTypeDef *in);
 297:../../Drivers/STM32L5xx_HAL_Driver/Src/stm32l5xx_hal_pka.c **** void PKA_PointCheck_Set(PKA_HandleTypeDef *hpka, PKA_PointCheckInTypeDef *in);
 298:../../Drivers/STM32L5xx_HAL_Driver/Src/stm32l5xx_hal_pka.c **** void PKA_ECCMul_Set(PKA_HandleTypeDef *hpka, PKA_ECCMulInTypeDef *in);
 299:../../Drivers/STM32L5xx_HAL_Driver/Src/stm32l5xx_hal_pka.c **** void PKA_ECCMulFastMode_Set(PKA_HandleTypeDef *hpka, PKA_ECCMulFastModeInTypeDef *in);
 300:../../Drivers/STM32L5xx_HAL_Driver/Src/stm32l5xx_hal_pka.c **** void PKA_ModRed_Set(PKA_HandleTypeDef *hpka, PKA_ModRedInTypeDef *in);
 301:../../Drivers/STM32L5xx_HAL_Driver/Src/stm32l5xx_hal_pka.c **** void PKA_ModInv_Set(PKA_HandleTypeDef *hpka, PKA_ModInvInTypeDef *in);
 302:../../Drivers/STM32L5xx_HAL_Driver/Src/stm32l5xx_hal_pka.c **** void PKA_MontgomeryParam_Set(PKA_HandleTypeDef *hpka, const uint32_t size, const uint8_t *pOp1);
 303:../../Drivers/STM32L5xx_HAL_Driver/Src/stm32l5xx_hal_pka.c **** void PKA_ARI_Set(PKA_HandleTypeDef *hpka, const uint32_t size, const uint32_t *pOp1, const uint32_t
 304:../../Drivers/STM32L5xx_HAL_Driver/Src/stm32l5xx_hal_pka.c ****                  const uint8_t *pOp3);
 305:../../Drivers/STM32L5xx_HAL_Driver/Src/stm32l5xx_hal_pka.c **** /**
 306:../../Drivers/STM32L5xx_HAL_Driver/Src/stm32l5xx_hal_pka.c ****   * @}
 307:../../Drivers/STM32L5xx_HAL_Driver/Src/stm32l5xx_hal_pka.c ****   */
 308:../../Drivers/STM32L5xx_HAL_Driver/Src/stm32l5xx_hal_pka.c **** 
 309:../../Drivers/STM32L5xx_HAL_Driver/Src/stm32l5xx_hal_pka.c **** /* Exported functions --------------------------------------------------------*/
 310:../../Drivers/STM32L5xx_HAL_Driver/Src/stm32l5xx_hal_pka.c **** 
 311:../../Drivers/STM32L5xx_HAL_Driver/Src/stm32l5xx_hal_pka.c **** /** @defgroup PKA_Exported_Functions PKA Exported Functions
 312:../../Drivers/STM32L5xx_HAL_Driver/Src/stm32l5xx_hal_pka.c ****   * @{
 313:../../Drivers/STM32L5xx_HAL_Driver/Src/stm32l5xx_hal_pka.c ****   */
ARM GAS  /tmp/cc0Rn02K.s 			page 7


 314:../../Drivers/STM32L5xx_HAL_Driver/Src/stm32l5xx_hal_pka.c **** 
 315:../../Drivers/STM32L5xx_HAL_Driver/Src/stm32l5xx_hal_pka.c **** /** @defgroup PKA_Exported_Functions_Group1 Initialization and de-initialization functions
 316:../../Drivers/STM32L5xx_HAL_Driver/Src/stm32l5xx_hal_pka.c ****   * @brief    Initialization and de-initialization functions
 317:../../Drivers/STM32L5xx_HAL_Driver/Src/stm32l5xx_hal_pka.c ****   *
 318:../../Drivers/STM32L5xx_HAL_Driver/Src/stm32l5xx_hal_pka.c **** @verbatim
 319:../../Drivers/STM32L5xx_HAL_Driver/Src/stm32l5xx_hal_pka.c ****  ===============================================================================
 320:../../Drivers/STM32L5xx_HAL_Driver/Src/stm32l5xx_hal_pka.c ****              ##### Initialization and de-initialization functions  #####
 321:../../Drivers/STM32L5xx_HAL_Driver/Src/stm32l5xx_hal_pka.c ****  ===============================================================================
 322:../../Drivers/STM32L5xx_HAL_Driver/Src/stm32l5xx_hal_pka.c ****     [..]  This subsection provides a set of functions allowing to initialize and
 323:../../Drivers/STM32L5xx_HAL_Driver/Src/stm32l5xx_hal_pka.c ****           deinitialize the PKAx peripheral:
 324:../../Drivers/STM32L5xx_HAL_Driver/Src/stm32l5xx_hal_pka.c **** 
 325:../../Drivers/STM32L5xx_HAL_Driver/Src/stm32l5xx_hal_pka.c ****       (+) User must implement HAL_PKA_MspInit() function in which he configures
 326:../../Drivers/STM32L5xx_HAL_Driver/Src/stm32l5xx_hal_pka.c ****           all related peripherals resources (CLOCK, IT and NVIC ).
 327:../../Drivers/STM32L5xx_HAL_Driver/Src/stm32l5xx_hal_pka.c **** 
 328:../../Drivers/STM32L5xx_HAL_Driver/Src/stm32l5xx_hal_pka.c ****       (+) Call the function HAL_PKA_Init() to configure the device.
 329:../../Drivers/STM32L5xx_HAL_Driver/Src/stm32l5xx_hal_pka.c **** 
 330:../../Drivers/STM32L5xx_HAL_Driver/Src/stm32l5xx_hal_pka.c ****       (+) Call the function HAL_PKA_DeInit() to restore the default configuration
 331:../../Drivers/STM32L5xx_HAL_Driver/Src/stm32l5xx_hal_pka.c ****           of the selected PKAx peripheral.
 332:../../Drivers/STM32L5xx_HAL_Driver/Src/stm32l5xx_hal_pka.c **** 
 333:../../Drivers/STM32L5xx_HAL_Driver/Src/stm32l5xx_hal_pka.c **** @endverbatim
 334:../../Drivers/STM32L5xx_HAL_Driver/Src/stm32l5xx_hal_pka.c ****   * @{
 335:../../Drivers/STM32L5xx_HAL_Driver/Src/stm32l5xx_hal_pka.c ****   */
 336:../../Drivers/STM32L5xx_HAL_Driver/Src/stm32l5xx_hal_pka.c **** 
 337:../../Drivers/STM32L5xx_HAL_Driver/Src/stm32l5xx_hal_pka.c **** /**
 338:../../Drivers/STM32L5xx_HAL_Driver/Src/stm32l5xx_hal_pka.c ****   * @brief  Initialize the PKA according to the specified
 339:../../Drivers/STM32L5xx_HAL_Driver/Src/stm32l5xx_hal_pka.c ****   *         parameters in the PKA_InitTypeDef and initialize the associated handle.
 340:../../Drivers/STM32L5xx_HAL_Driver/Src/stm32l5xx_hal_pka.c ****   * @param  hpka PKA handle
 341:../../Drivers/STM32L5xx_HAL_Driver/Src/stm32l5xx_hal_pka.c ****   * @retval HAL status
 342:../../Drivers/STM32L5xx_HAL_Driver/Src/stm32l5xx_hal_pka.c ****   */
 343:../../Drivers/STM32L5xx_HAL_Driver/Src/stm32l5xx_hal_pka.c **** HAL_StatusTypeDef HAL_PKA_Init(PKA_HandleTypeDef *hpka)
 344:../../Drivers/STM32L5xx_HAL_Driver/Src/stm32l5xx_hal_pka.c **** {
 345:../../Drivers/STM32L5xx_HAL_Driver/Src/stm32l5xx_hal_pka.c ****   HAL_StatusTypeDef err = HAL_OK;
 346:../../Drivers/STM32L5xx_HAL_Driver/Src/stm32l5xx_hal_pka.c ****   uint32_t tickstart;
 347:../../Drivers/STM32L5xx_HAL_Driver/Src/stm32l5xx_hal_pka.c **** 
 348:../../Drivers/STM32L5xx_HAL_Driver/Src/stm32l5xx_hal_pka.c ****   /* Check the PKA handle allocation */
 349:../../Drivers/STM32L5xx_HAL_Driver/Src/stm32l5xx_hal_pka.c ****   if (hpka != NULL)
 350:../../Drivers/STM32L5xx_HAL_Driver/Src/stm32l5xx_hal_pka.c ****   {
 351:../../Drivers/STM32L5xx_HAL_Driver/Src/stm32l5xx_hal_pka.c ****     /* Check the parameters */
 352:../../Drivers/STM32L5xx_HAL_Driver/Src/stm32l5xx_hal_pka.c ****     assert_param(IS_PKA_ALL_INSTANCE(hpka->Instance));
 353:../../Drivers/STM32L5xx_HAL_Driver/Src/stm32l5xx_hal_pka.c **** 
 354:../../Drivers/STM32L5xx_HAL_Driver/Src/stm32l5xx_hal_pka.c ****     if (hpka->State == HAL_PKA_STATE_RESET)
 355:../../Drivers/STM32L5xx_HAL_Driver/Src/stm32l5xx_hal_pka.c ****     {
 356:../../Drivers/STM32L5xx_HAL_Driver/Src/stm32l5xx_hal_pka.c **** 
 357:../../Drivers/STM32L5xx_HAL_Driver/Src/stm32l5xx_hal_pka.c **** #if (USE_HAL_PKA_REGISTER_CALLBACKS == 1)
 358:../../Drivers/STM32L5xx_HAL_Driver/Src/stm32l5xx_hal_pka.c ****       /* Init the PKA Callback settings */
 359:../../Drivers/STM32L5xx_HAL_Driver/Src/stm32l5xx_hal_pka.c ****       hpka->OperationCpltCallback = HAL_PKA_OperationCpltCallback; /* Legacy weak OperationCpltCall
 360:../../Drivers/STM32L5xx_HAL_Driver/Src/stm32l5xx_hal_pka.c ****       hpka->ErrorCallback         = HAL_PKA_ErrorCallback;         /* Legacy weak ErrorCallback    
 361:../../Drivers/STM32L5xx_HAL_Driver/Src/stm32l5xx_hal_pka.c **** 
 362:../../Drivers/STM32L5xx_HAL_Driver/Src/stm32l5xx_hal_pka.c ****       if (hpka->MspInitCallback == NULL)
 363:../../Drivers/STM32L5xx_HAL_Driver/Src/stm32l5xx_hal_pka.c ****       {
 364:../../Drivers/STM32L5xx_HAL_Driver/Src/stm32l5xx_hal_pka.c ****         hpka->MspInitCallback = HAL_PKA_MspInit; /* Legacy weak MspInit  */
 365:../../Drivers/STM32L5xx_HAL_Driver/Src/stm32l5xx_hal_pka.c ****       }
 366:../../Drivers/STM32L5xx_HAL_Driver/Src/stm32l5xx_hal_pka.c **** 
 367:../../Drivers/STM32L5xx_HAL_Driver/Src/stm32l5xx_hal_pka.c ****       /* Init the low level hardware */
 368:../../Drivers/STM32L5xx_HAL_Driver/Src/stm32l5xx_hal_pka.c ****       hpka->MspInitCallback(hpka);
 369:../../Drivers/STM32L5xx_HAL_Driver/Src/stm32l5xx_hal_pka.c **** #else
 370:../../Drivers/STM32L5xx_HAL_Driver/Src/stm32l5xx_hal_pka.c ****       /* Init the low level hardware */
ARM GAS  /tmp/cc0Rn02K.s 			page 8


 371:../../Drivers/STM32L5xx_HAL_Driver/Src/stm32l5xx_hal_pka.c ****       HAL_PKA_MspInit(hpka);
 372:../../Drivers/STM32L5xx_HAL_Driver/Src/stm32l5xx_hal_pka.c **** #endif /* USE_HAL_PKA_REGISTER_CALLBACKS */
 373:../../Drivers/STM32L5xx_HAL_Driver/Src/stm32l5xx_hal_pka.c ****     }
 374:../../Drivers/STM32L5xx_HAL_Driver/Src/stm32l5xx_hal_pka.c **** 
 375:../../Drivers/STM32L5xx_HAL_Driver/Src/stm32l5xx_hal_pka.c ****     /* Set the state to busy */
 376:../../Drivers/STM32L5xx_HAL_Driver/Src/stm32l5xx_hal_pka.c ****     hpka->State = HAL_PKA_STATE_BUSY;
 377:../../Drivers/STM32L5xx_HAL_Driver/Src/stm32l5xx_hal_pka.c **** 
 378:../../Drivers/STM32L5xx_HAL_Driver/Src/stm32l5xx_hal_pka.c ****     /* Get current tick */
 379:../../Drivers/STM32L5xx_HAL_Driver/Src/stm32l5xx_hal_pka.c ****     tickstart = HAL_GetTick();
 380:../../Drivers/STM32L5xx_HAL_Driver/Src/stm32l5xx_hal_pka.c **** 
 381:../../Drivers/STM32L5xx_HAL_Driver/Src/stm32l5xx_hal_pka.c ****     /* Reset the control register and enable the PKA (wait the end of PKA RAM erase) */
 382:../../Drivers/STM32L5xx_HAL_Driver/Src/stm32l5xx_hal_pka.c ****     while ((hpka->Instance->CR & PKA_CR_EN) != PKA_CR_EN)
 383:../../Drivers/STM32L5xx_HAL_Driver/Src/stm32l5xx_hal_pka.c ****     {
 384:../../Drivers/STM32L5xx_HAL_Driver/Src/stm32l5xx_hal_pka.c ****       hpka->Instance->CR = PKA_CR_EN;
 385:../../Drivers/STM32L5xx_HAL_Driver/Src/stm32l5xx_hal_pka.c **** 
 386:../../Drivers/STM32L5xx_HAL_Driver/Src/stm32l5xx_hal_pka.c ****       /* Check the Timeout */
 387:../../Drivers/STM32L5xx_HAL_Driver/Src/stm32l5xx_hal_pka.c ****       if ((HAL_GetTick() - tickstart) > PKA_RAM_ERASE_TIMEOUT)
 388:../../Drivers/STM32L5xx_HAL_Driver/Src/stm32l5xx_hal_pka.c ****       {
 389:../../Drivers/STM32L5xx_HAL_Driver/Src/stm32l5xx_hal_pka.c ****         /* Set timeout status */
 390:../../Drivers/STM32L5xx_HAL_Driver/Src/stm32l5xx_hal_pka.c ****         err = HAL_TIMEOUT;
 391:../../Drivers/STM32L5xx_HAL_Driver/Src/stm32l5xx_hal_pka.c ****         break;
 392:../../Drivers/STM32L5xx_HAL_Driver/Src/stm32l5xx_hal_pka.c ****       }
 393:../../Drivers/STM32L5xx_HAL_Driver/Src/stm32l5xx_hal_pka.c ****     }
 394:../../Drivers/STM32L5xx_HAL_Driver/Src/stm32l5xx_hal_pka.c **** 
 395:../../Drivers/STM32L5xx_HAL_Driver/Src/stm32l5xx_hal_pka.c ****     if (err == HAL_OK)
 396:../../Drivers/STM32L5xx_HAL_Driver/Src/stm32l5xx_hal_pka.c ****     {
 397:../../Drivers/STM32L5xx_HAL_Driver/Src/stm32l5xx_hal_pka.c ****       /* Reset any pending flag */
 398:../../Drivers/STM32L5xx_HAL_Driver/Src/stm32l5xx_hal_pka.c ****       SET_BIT(hpka->Instance->CLRFR, PKA_CLRFR_PROCENDFC | PKA_CLRFR_RAMERRFC | PKA_CLRFR_ADDRERRFC
 399:../../Drivers/STM32L5xx_HAL_Driver/Src/stm32l5xx_hal_pka.c **** 
 400:../../Drivers/STM32L5xx_HAL_Driver/Src/stm32l5xx_hal_pka.c ****       /* Initialize the error code */
 401:../../Drivers/STM32L5xx_HAL_Driver/Src/stm32l5xx_hal_pka.c ****       hpka->ErrorCode = HAL_PKA_ERROR_NONE;
 402:../../Drivers/STM32L5xx_HAL_Driver/Src/stm32l5xx_hal_pka.c **** 
 403:../../Drivers/STM32L5xx_HAL_Driver/Src/stm32l5xx_hal_pka.c ****       /* Set the state to ready */
 404:../../Drivers/STM32L5xx_HAL_Driver/Src/stm32l5xx_hal_pka.c ****       hpka->State = HAL_PKA_STATE_READY;
 405:../../Drivers/STM32L5xx_HAL_Driver/Src/stm32l5xx_hal_pka.c ****     }
 406:../../Drivers/STM32L5xx_HAL_Driver/Src/stm32l5xx_hal_pka.c ****     else
 407:../../Drivers/STM32L5xx_HAL_Driver/Src/stm32l5xx_hal_pka.c ****     {
 408:../../Drivers/STM32L5xx_HAL_Driver/Src/stm32l5xx_hal_pka.c ****       /* Set the error code to timeout error */
 409:../../Drivers/STM32L5xx_HAL_Driver/Src/stm32l5xx_hal_pka.c ****       hpka->ErrorCode = HAL_PKA_ERROR_TIMEOUT;
 410:../../Drivers/STM32L5xx_HAL_Driver/Src/stm32l5xx_hal_pka.c **** 
 411:../../Drivers/STM32L5xx_HAL_Driver/Src/stm32l5xx_hal_pka.c ****       /* Set the state to error */
 412:../../Drivers/STM32L5xx_HAL_Driver/Src/stm32l5xx_hal_pka.c ****       hpka->State = HAL_PKA_STATE_ERROR;
 413:../../Drivers/STM32L5xx_HAL_Driver/Src/stm32l5xx_hal_pka.c ****     }
 414:../../Drivers/STM32L5xx_HAL_Driver/Src/stm32l5xx_hal_pka.c ****   }
 415:../../Drivers/STM32L5xx_HAL_Driver/Src/stm32l5xx_hal_pka.c ****   else
 416:../../Drivers/STM32L5xx_HAL_Driver/Src/stm32l5xx_hal_pka.c ****   {
 417:../../Drivers/STM32L5xx_HAL_Driver/Src/stm32l5xx_hal_pka.c ****     err = HAL_ERROR;
 418:../../Drivers/STM32L5xx_HAL_Driver/Src/stm32l5xx_hal_pka.c ****   }
 419:../../Drivers/STM32L5xx_HAL_Driver/Src/stm32l5xx_hal_pka.c **** 
 420:../../Drivers/STM32L5xx_HAL_Driver/Src/stm32l5xx_hal_pka.c ****   return err;
 421:../../Drivers/STM32L5xx_HAL_Driver/Src/stm32l5xx_hal_pka.c **** }
 422:../../Drivers/STM32L5xx_HAL_Driver/Src/stm32l5xx_hal_pka.c **** 
 423:../../Drivers/STM32L5xx_HAL_Driver/Src/stm32l5xx_hal_pka.c **** /**
 424:../../Drivers/STM32L5xx_HAL_Driver/Src/stm32l5xx_hal_pka.c ****   * @brief  DeInitialize the PKA peripheral.
 425:../../Drivers/STM32L5xx_HAL_Driver/Src/stm32l5xx_hal_pka.c ****   * @param  hpka PKA handle
 426:../../Drivers/STM32L5xx_HAL_Driver/Src/stm32l5xx_hal_pka.c ****   * @retval HAL status
 427:../../Drivers/STM32L5xx_HAL_Driver/Src/stm32l5xx_hal_pka.c ****   */
ARM GAS  /tmp/cc0Rn02K.s 			page 9


 428:../../Drivers/STM32L5xx_HAL_Driver/Src/stm32l5xx_hal_pka.c **** HAL_StatusTypeDef HAL_PKA_DeInit(PKA_HandleTypeDef *hpka)
 429:../../Drivers/STM32L5xx_HAL_Driver/Src/stm32l5xx_hal_pka.c **** {
 430:../../Drivers/STM32L5xx_HAL_Driver/Src/stm32l5xx_hal_pka.c ****   HAL_StatusTypeDef err = HAL_OK;
 431:../../Drivers/STM32L5xx_HAL_Driver/Src/stm32l5xx_hal_pka.c **** 
 432:../../Drivers/STM32L5xx_HAL_Driver/Src/stm32l5xx_hal_pka.c ****   /* Check the PKA handle allocation */
 433:../../Drivers/STM32L5xx_HAL_Driver/Src/stm32l5xx_hal_pka.c ****   if (hpka != NULL)
 434:../../Drivers/STM32L5xx_HAL_Driver/Src/stm32l5xx_hal_pka.c ****   {
 435:../../Drivers/STM32L5xx_HAL_Driver/Src/stm32l5xx_hal_pka.c ****     /* Check the parameters */
 436:../../Drivers/STM32L5xx_HAL_Driver/Src/stm32l5xx_hal_pka.c ****     assert_param(IS_PKA_ALL_INSTANCE(hpka->Instance));
 437:../../Drivers/STM32L5xx_HAL_Driver/Src/stm32l5xx_hal_pka.c **** 
 438:../../Drivers/STM32L5xx_HAL_Driver/Src/stm32l5xx_hal_pka.c ****     /* Set the state to busy */
 439:../../Drivers/STM32L5xx_HAL_Driver/Src/stm32l5xx_hal_pka.c ****     hpka->State = HAL_PKA_STATE_BUSY;
 440:../../Drivers/STM32L5xx_HAL_Driver/Src/stm32l5xx_hal_pka.c **** 
 441:../../Drivers/STM32L5xx_HAL_Driver/Src/stm32l5xx_hal_pka.c ****     /* Reset the control register */
 442:../../Drivers/STM32L5xx_HAL_Driver/Src/stm32l5xx_hal_pka.c ****     /* This abort any operation in progress (PKA RAM content is not guaranteed in this case) */
 443:../../Drivers/STM32L5xx_HAL_Driver/Src/stm32l5xx_hal_pka.c ****     hpka->Instance->CR = 0;
 444:../../Drivers/STM32L5xx_HAL_Driver/Src/stm32l5xx_hal_pka.c **** 
 445:../../Drivers/STM32L5xx_HAL_Driver/Src/stm32l5xx_hal_pka.c ****     /* Reset any pending flag */
 446:../../Drivers/STM32L5xx_HAL_Driver/Src/stm32l5xx_hal_pka.c ****     SET_BIT(hpka->Instance->CLRFR, PKA_CLRFR_PROCENDFC | PKA_CLRFR_RAMERRFC | PKA_CLRFR_ADDRERRFC);
 447:../../Drivers/STM32L5xx_HAL_Driver/Src/stm32l5xx_hal_pka.c **** 
 448:../../Drivers/STM32L5xx_HAL_Driver/Src/stm32l5xx_hal_pka.c **** #if (USE_HAL_PKA_REGISTER_CALLBACKS == 1)
 449:../../Drivers/STM32L5xx_HAL_Driver/Src/stm32l5xx_hal_pka.c ****     if (hpka->MspDeInitCallback == NULL)
 450:../../Drivers/STM32L5xx_HAL_Driver/Src/stm32l5xx_hal_pka.c ****     {
 451:../../Drivers/STM32L5xx_HAL_Driver/Src/stm32l5xx_hal_pka.c ****       hpka->MspDeInitCallback = HAL_PKA_MspDeInit; /* Legacy weak MspDeInit  */
 452:../../Drivers/STM32L5xx_HAL_Driver/Src/stm32l5xx_hal_pka.c ****     }
 453:../../Drivers/STM32L5xx_HAL_Driver/Src/stm32l5xx_hal_pka.c **** 
 454:../../Drivers/STM32L5xx_HAL_Driver/Src/stm32l5xx_hal_pka.c ****     /* DeInit the low level hardware: GPIO, CLOCK, NVIC */
 455:../../Drivers/STM32L5xx_HAL_Driver/Src/stm32l5xx_hal_pka.c ****     hpka->MspDeInitCallback(hpka);
 456:../../Drivers/STM32L5xx_HAL_Driver/Src/stm32l5xx_hal_pka.c **** #else
 457:../../Drivers/STM32L5xx_HAL_Driver/Src/stm32l5xx_hal_pka.c ****     /* DeInit the low level hardware: CLOCK, NVIC */
 458:../../Drivers/STM32L5xx_HAL_Driver/Src/stm32l5xx_hal_pka.c ****     HAL_PKA_MspDeInit(hpka);
 459:../../Drivers/STM32L5xx_HAL_Driver/Src/stm32l5xx_hal_pka.c **** #endif /* USE_HAL_PKA_REGISTER_CALLBACKS */
 460:../../Drivers/STM32L5xx_HAL_Driver/Src/stm32l5xx_hal_pka.c **** 
 461:../../Drivers/STM32L5xx_HAL_Driver/Src/stm32l5xx_hal_pka.c ****     /* Reset the error code */
 462:../../Drivers/STM32L5xx_HAL_Driver/Src/stm32l5xx_hal_pka.c ****     hpka->ErrorCode = HAL_PKA_ERROR_NONE;
 463:../../Drivers/STM32L5xx_HAL_Driver/Src/stm32l5xx_hal_pka.c **** 
 464:../../Drivers/STM32L5xx_HAL_Driver/Src/stm32l5xx_hal_pka.c ****     /* Reset the state */
 465:../../Drivers/STM32L5xx_HAL_Driver/Src/stm32l5xx_hal_pka.c ****     hpka->State = HAL_PKA_STATE_RESET;
 466:../../Drivers/STM32L5xx_HAL_Driver/Src/stm32l5xx_hal_pka.c ****   }
 467:../../Drivers/STM32L5xx_HAL_Driver/Src/stm32l5xx_hal_pka.c ****   else
 468:../../Drivers/STM32L5xx_HAL_Driver/Src/stm32l5xx_hal_pka.c ****   {
 469:../../Drivers/STM32L5xx_HAL_Driver/Src/stm32l5xx_hal_pka.c ****     err = HAL_ERROR;
 470:../../Drivers/STM32L5xx_HAL_Driver/Src/stm32l5xx_hal_pka.c ****   }
 471:../../Drivers/STM32L5xx_HAL_Driver/Src/stm32l5xx_hal_pka.c **** 
 472:../../Drivers/STM32L5xx_HAL_Driver/Src/stm32l5xx_hal_pka.c ****   return err;
 473:../../Drivers/STM32L5xx_HAL_Driver/Src/stm32l5xx_hal_pka.c **** }
 474:../../Drivers/STM32L5xx_HAL_Driver/Src/stm32l5xx_hal_pka.c **** 
 475:../../Drivers/STM32L5xx_HAL_Driver/Src/stm32l5xx_hal_pka.c **** /**
 476:../../Drivers/STM32L5xx_HAL_Driver/Src/stm32l5xx_hal_pka.c ****   * @brief  Initialize the PKA MSP.
 477:../../Drivers/STM32L5xx_HAL_Driver/Src/stm32l5xx_hal_pka.c ****   * @param  hpka PKA handle
 478:../../Drivers/STM32L5xx_HAL_Driver/Src/stm32l5xx_hal_pka.c ****   * @retval None
 479:../../Drivers/STM32L5xx_HAL_Driver/Src/stm32l5xx_hal_pka.c ****   */
 480:../../Drivers/STM32L5xx_HAL_Driver/Src/stm32l5xx_hal_pka.c **** __weak void HAL_PKA_MspInit(PKA_HandleTypeDef *hpka)
 481:../../Drivers/STM32L5xx_HAL_Driver/Src/stm32l5xx_hal_pka.c **** {
  31              		.loc 1 481 1 view -0
  32              		.cfi_startproc
  33              		@ args = 0, pretend = 0, frame = 0
ARM GAS  /tmp/cc0Rn02K.s 			page 10


  34              		@ frame_needed = 0, uses_anonymous_args = 0
  35              		@ link register save eliminated.
 482:../../Drivers/STM32L5xx_HAL_Driver/Src/stm32l5xx_hal_pka.c ****   /* Prevent unused argument(s) compilation warning */
 483:../../Drivers/STM32L5xx_HAL_Driver/Src/stm32l5xx_hal_pka.c ****   UNUSED(hpka);
  36              		.loc 1 483 3 view .LVU1
 484:../../Drivers/STM32L5xx_HAL_Driver/Src/stm32l5xx_hal_pka.c **** 
 485:../../Drivers/STM32L5xx_HAL_Driver/Src/stm32l5xx_hal_pka.c ****   /* NOTE : This function should not be modified, when the callback is needed,
 486:../../Drivers/STM32L5xx_HAL_Driver/Src/stm32l5xx_hal_pka.c ****             the HAL_PKA_MspInit can be implemented in the user file
 487:../../Drivers/STM32L5xx_HAL_Driver/Src/stm32l5xx_hal_pka.c ****    */
 488:../../Drivers/STM32L5xx_HAL_Driver/Src/stm32l5xx_hal_pka.c **** }
  37              		.loc 1 488 1 is_stmt 0 view .LVU2
  38 0000 7047     		bx	lr
  39              		.cfi_endproc
  40              	.LFE204:
  42              		.section	.text.HAL_PKA_Init,"ax",%progbits
  43              		.align	1
  44              		.global	HAL_PKA_Init
  45              		.syntax unified
  46              		.thumb
  47              		.thumb_func
  49              	HAL_PKA_Init:
  50              	.LVL1:
  51              	.LFB202:
 344:../../Drivers/STM32L5xx_HAL_Driver/Src/stm32l5xx_hal_pka.c ****   HAL_StatusTypeDef err = HAL_OK;
  52              		.loc 1 344 1 is_stmt 1 view -0
  53              		.cfi_startproc
  54              		@ args = 0, pretend = 0, frame = 0
  55              		@ frame_needed = 0, uses_anonymous_args = 0
 345:../../Drivers/STM32L5xx_HAL_Driver/Src/stm32l5xx_hal_pka.c ****   uint32_t tickstart;
  56              		.loc 1 345 3 view .LVU4
 346:../../Drivers/STM32L5xx_HAL_Driver/Src/stm32l5xx_hal_pka.c **** 
  57              		.loc 1 346 3 view .LVU5
 349:../../Drivers/STM32L5xx_HAL_Driver/Src/stm32l5xx_hal_pka.c ****   {
  58              		.loc 1 349 3 view .LVU6
 349:../../Drivers/STM32L5xx_HAL_Driver/Src/stm32l5xx_hal_pka.c ****   {
  59              		.loc 1 349 6 is_stmt 0 view .LVU7
  60 0000 58B3     		cbz	r0, .L9
 344:../../Drivers/STM32L5xx_HAL_Driver/Src/stm32l5xx_hal_pka.c ****   HAL_StatusTypeDef err = HAL_OK;
  61              		.loc 1 344 1 view .LVU8
  62 0002 38B5     		push	{r3, r4, r5, lr}
  63              	.LCFI0:
  64              		.cfi_def_cfa_offset 16
  65              		.cfi_offset 3, -16
  66              		.cfi_offset 4, -12
  67              		.cfi_offset 5, -8
  68              		.cfi_offset 14, -4
  69 0004 0446     		mov	r4, r0
 352:../../Drivers/STM32L5xx_HAL_Driver/Src/stm32l5xx_hal_pka.c **** 
  70              		.loc 1 352 5 is_stmt 1 view .LVU9
 354:../../Drivers/STM32L5xx_HAL_Driver/Src/stm32l5xx_hal_pka.c ****     {
  71              		.loc 1 354 5 view .LVU10
 354:../../Drivers/STM32L5xx_HAL_Driver/Src/stm32l5xx_hal_pka.c ****     {
  72              		.loc 1 354 13 is_stmt 0 view .LVU11
  73 0006 0379     		ldrb	r3, [r0, #4]	@ zero_extendqisi2
 354:../../Drivers/STM32L5xx_HAL_Driver/Src/stm32l5xx_hal_pka.c ****     {
  74              		.loc 1 354 8 view .LVU12
  75 0008 9BB1     		cbz	r3, .L15
ARM GAS  /tmp/cc0Rn02K.s 			page 11


  76              	.LVL2:
  77              	.L4:
 376:../../Drivers/STM32L5xx_HAL_Driver/Src/stm32l5xx_hal_pka.c **** 
  78              		.loc 1 376 5 is_stmt 1 view .LVU13
 376:../../Drivers/STM32L5xx_HAL_Driver/Src/stm32l5xx_hal_pka.c **** 
  79              		.loc 1 376 17 is_stmt 0 view .LVU14
  80 000a 0223     		movs	r3, #2
  81 000c 2371     		strb	r3, [r4, #4]
 379:../../Drivers/STM32L5xx_HAL_Driver/Src/stm32l5xx_hal_pka.c **** 
  82              		.loc 1 379 5 is_stmt 1 view .LVU15
 379:../../Drivers/STM32L5xx_HAL_Driver/Src/stm32l5xx_hal_pka.c **** 
  83              		.loc 1 379 17 is_stmt 0 view .LVU16
  84 000e FFF7FEFF 		bl	HAL_GetTick
  85              	.LVL3:
  86 0012 0546     		mov	r5, r0
  87              	.LVL4:
 382:../../Drivers/STM32L5xx_HAL_Driver/Src/stm32l5xx_hal_pka.c ****     {
  88              		.loc 1 382 5 is_stmt 1 view .LVU17
  89              	.L5:
 382:../../Drivers/STM32L5xx_HAL_Driver/Src/stm32l5xx_hal_pka.c ****     {
  90              		.loc 1 382 45 view .LVU18
 382:../../Drivers/STM32L5xx_HAL_Driver/Src/stm32l5xx_hal_pka.c ****     {
  91              		.loc 1 382 17 is_stmt 0 view .LVU19
  92 0014 2368     		ldr	r3, [r4]
 382:../../Drivers/STM32L5xx_HAL_Driver/Src/stm32l5xx_hal_pka.c ****     {
  93              		.loc 1 382 27 view .LVU20
  94 0016 1A68     		ldr	r2, [r3]
 382:../../Drivers/STM32L5xx_HAL_Driver/Src/stm32l5xx_hal_pka.c ****     {
  95              		.loc 1 382 45 view .LVU21
  96 0018 12F0010F 		tst	r2, #1
  97 001c 0CD1     		bne	.L16
 384:../../Drivers/STM32L5xx_HAL_Driver/Src/stm32l5xx_hal_pka.c **** 
  98              		.loc 1 384 7 is_stmt 1 view .LVU22
 384:../../Drivers/STM32L5xx_HAL_Driver/Src/stm32l5xx_hal_pka.c **** 
  99              		.loc 1 384 26 is_stmt 0 view .LVU23
 100 001e 0122     		movs	r2, #1
 101 0020 1A60     		str	r2, [r3]
 387:../../Drivers/STM32L5xx_HAL_Driver/Src/stm32l5xx_hal_pka.c ****       {
 102              		.loc 1 387 7 is_stmt 1 view .LVU24
 387:../../Drivers/STM32L5xx_HAL_Driver/Src/stm32l5xx_hal_pka.c ****       {
 103              		.loc 1 387 12 is_stmt 0 view .LVU25
 104 0022 FFF7FEFF 		bl	HAL_GetTick
 105              	.LVL5:
 387:../../Drivers/STM32L5xx_HAL_Driver/Src/stm32l5xx_hal_pka.c ****       {
 106              		.loc 1 387 26 view .LVU26
 107 0026 401B     		subs	r0, r0, r5
 387:../../Drivers/STM32L5xx_HAL_Driver/Src/stm32l5xx_hal_pka.c ****       {
 108              		.loc 1 387 10 view .LVU27
 109 0028 B0F57A7F 		cmp	r0, #1000
 110 002c F2D9     		bls	.L5
 390:../../Drivers/STM32L5xx_HAL_Driver/Src/stm32l5xx_hal_pka.c ****         break;
 111              		.loc 1 390 13 view .LVU28
 112 002e 0320     		movs	r0, #3
 113 0030 03E0     		b	.L6
 114              	.LVL6:
 115              	.L15:
 371:../../Drivers/STM32L5xx_HAL_Driver/Src/stm32l5xx_hal_pka.c **** #endif /* USE_HAL_PKA_REGISTER_CALLBACKS */
ARM GAS  /tmp/cc0Rn02K.s 			page 12


 116              		.loc 1 371 7 is_stmt 1 view .LVU29
 117 0032 FFF7FEFF 		bl	HAL_PKA_MspInit
 118              	.LVL7:
 371:../../Drivers/STM32L5xx_HAL_Driver/Src/stm32l5xx_hal_pka.c **** #endif /* USE_HAL_PKA_REGISTER_CALLBACKS */
 119              		.loc 1 371 7 is_stmt 0 view .LVU30
 120 0036 E8E7     		b	.L4
 121              	.LVL8:
 122              	.L16:
 345:../../Drivers/STM32L5xx_HAL_Driver/Src/stm32l5xx_hal_pka.c ****   uint32_t tickstart;
 123              		.loc 1 345 21 view .LVU31
 124 0038 0020     		movs	r0, #0
 125              	.L6:
 126              	.LVL9:
 395:../../Drivers/STM32L5xx_HAL_Driver/Src/stm32l5xx_hal_pka.c ****     {
 127              		.loc 1 395 5 is_stmt 1 view .LVU32
 395:../../Drivers/STM32L5xx_HAL_Driver/Src/stm32l5xx_hal_pka.c ****     {
 128              		.loc 1 395 8 is_stmt 0 view .LVU33
 129 003a 48B9     		cbnz	r0, .L8
 398:../../Drivers/STM32L5xx_HAL_Driver/Src/stm32l5xx_hal_pka.c **** 
 130              		.loc 1 398 7 is_stmt 1 view .LVU34
 131 003c 2268     		ldr	r2, [r4]
 132 003e 9368     		ldr	r3, [r2, #8]
 133 0040 43F4D013 		orr	r3, r3, #1703936
 134 0044 9360     		str	r3, [r2, #8]
 401:../../Drivers/STM32L5xx_HAL_Driver/Src/stm32l5xx_hal_pka.c **** 
 135              		.loc 1 401 7 view .LVU35
 401:../../Drivers/STM32L5xx_HAL_Driver/Src/stm32l5xx_hal_pka.c **** 
 136              		.loc 1 401 23 is_stmt 0 view .LVU36
 137 0046 0023     		movs	r3, #0
 138 0048 A360     		str	r3, [r4, #8]
 404:../../Drivers/STM32L5xx_HAL_Driver/Src/stm32l5xx_hal_pka.c ****     }
 139              		.loc 1 404 7 is_stmt 1 view .LVU37
 404:../../Drivers/STM32L5xx_HAL_Driver/Src/stm32l5xx_hal_pka.c ****     }
 140              		.loc 1 404 19 is_stmt 0 view .LVU38
 141 004a 0123     		movs	r3, #1
 142 004c 2371     		strb	r3, [r4, #4]
 143              	.L3:
 420:../../Drivers/STM32L5xx_HAL_Driver/Src/stm32l5xx_hal_pka.c **** }
 144              		.loc 1 420 3 is_stmt 1 view .LVU39
 421:../../Drivers/STM32L5xx_HAL_Driver/Src/stm32l5xx_hal_pka.c **** 
 145              		.loc 1 421 1 is_stmt 0 view .LVU40
 146 004e 38BD     		pop	{r3, r4, r5, pc}
 147              	.LVL10:
 148              	.L8:
 409:../../Drivers/STM32L5xx_HAL_Driver/Src/stm32l5xx_hal_pka.c **** 
 149              		.loc 1 409 7 is_stmt 1 view .LVU41
 409:../../Drivers/STM32L5xx_HAL_Driver/Src/stm32l5xx_hal_pka.c **** 
 150              		.loc 1 409 23 is_stmt 0 view .LVU42
 151 0050 0423     		movs	r3, #4
 152 0052 A360     		str	r3, [r4, #8]
 412:../../Drivers/STM32L5xx_HAL_Driver/Src/stm32l5xx_hal_pka.c ****     }
 153              		.loc 1 412 7 is_stmt 1 view .LVU43
 412:../../Drivers/STM32L5xx_HAL_Driver/Src/stm32l5xx_hal_pka.c ****     }
 154              		.loc 1 412 19 is_stmt 0 view .LVU44
 155 0054 0323     		movs	r3, #3
 156 0056 2371     		strb	r3, [r4, #4]
 157 0058 F9E7     		b	.L3
ARM GAS  /tmp/cc0Rn02K.s 			page 13


 158              	.LVL11:
 159              	.L9:
 160              	.LCFI1:
 161              		.cfi_def_cfa_offset 0
 162              		.cfi_restore 3
 163              		.cfi_restore 4
 164              		.cfi_restore 5
 165              		.cfi_restore 14
 417:../../Drivers/STM32L5xx_HAL_Driver/Src/stm32l5xx_hal_pka.c ****   }
 166              		.loc 1 417 9 view .LVU45
 167 005a 0120     		movs	r0, #1
 168              	.LVL12:
 420:../../Drivers/STM32L5xx_HAL_Driver/Src/stm32l5xx_hal_pka.c **** }
 169              		.loc 1 420 3 is_stmt 1 view .LVU46
 421:../../Drivers/STM32L5xx_HAL_Driver/Src/stm32l5xx_hal_pka.c **** 
 170              		.loc 1 421 1 is_stmt 0 view .LVU47
 171 005c 7047     		bx	lr
 172              		.cfi_endproc
 173              	.LFE202:
 175              		.section	.text.HAL_PKA_MspDeInit,"ax",%progbits
 176              		.align	1
 177              		.weak	HAL_PKA_MspDeInit
 178              		.syntax unified
 179              		.thumb
 180              		.thumb_func
 182              	HAL_PKA_MspDeInit:
 183              	.LVL13:
 184              	.LFB205:
 489:../../Drivers/STM32L5xx_HAL_Driver/Src/stm32l5xx_hal_pka.c **** 
 490:../../Drivers/STM32L5xx_HAL_Driver/Src/stm32l5xx_hal_pka.c **** /**
 491:../../Drivers/STM32L5xx_HAL_Driver/Src/stm32l5xx_hal_pka.c ****   * @brief  DeInitialize the PKA MSP.
 492:../../Drivers/STM32L5xx_HAL_Driver/Src/stm32l5xx_hal_pka.c ****   * @param  hpka PKA handle
 493:../../Drivers/STM32L5xx_HAL_Driver/Src/stm32l5xx_hal_pka.c ****   * @retval None
 494:../../Drivers/STM32L5xx_HAL_Driver/Src/stm32l5xx_hal_pka.c ****   */
 495:../../Drivers/STM32L5xx_HAL_Driver/Src/stm32l5xx_hal_pka.c **** __weak void HAL_PKA_MspDeInit(PKA_HandleTypeDef *hpka)
 496:../../Drivers/STM32L5xx_HAL_Driver/Src/stm32l5xx_hal_pka.c **** {
 185              		.loc 1 496 1 is_stmt 1 view -0
 186              		.cfi_startproc
 187              		@ args = 0, pretend = 0, frame = 0
 188              		@ frame_needed = 0, uses_anonymous_args = 0
 189              		@ link register save eliminated.
 497:../../Drivers/STM32L5xx_HAL_Driver/Src/stm32l5xx_hal_pka.c ****   /* Prevent unused argument(s) compilation warning */
 498:../../Drivers/STM32L5xx_HAL_Driver/Src/stm32l5xx_hal_pka.c ****   UNUSED(hpka);
 190              		.loc 1 498 3 view .LVU49
 499:../../Drivers/STM32L5xx_HAL_Driver/Src/stm32l5xx_hal_pka.c **** 
 500:../../Drivers/STM32L5xx_HAL_Driver/Src/stm32l5xx_hal_pka.c ****   /* NOTE : This function should not be modified, when the callback is needed,
 501:../../Drivers/STM32L5xx_HAL_Driver/Src/stm32l5xx_hal_pka.c ****             the HAL_PKA_MspDeInit can be implemented in the user file
 502:../../Drivers/STM32L5xx_HAL_Driver/Src/stm32l5xx_hal_pka.c ****    */
 503:../../Drivers/STM32L5xx_HAL_Driver/Src/stm32l5xx_hal_pka.c **** }
 191              		.loc 1 503 1 is_stmt 0 view .LVU50
 192 0000 7047     		bx	lr
 193              		.cfi_endproc
 194              	.LFE205:
 196              		.section	.text.HAL_PKA_DeInit,"ax",%progbits
 197              		.align	1
 198              		.global	HAL_PKA_DeInit
 199              		.syntax unified
ARM GAS  /tmp/cc0Rn02K.s 			page 14


 200              		.thumb
 201              		.thumb_func
 203              	HAL_PKA_DeInit:
 204              	.LVL14:
 205              	.LFB203:
 429:../../Drivers/STM32L5xx_HAL_Driver/Src/stm32l5xx_hal_pka.c ****   HAL_StatusTypeDef err = HAL_OK;
 206              		.loc 1 429 1 is_stmt 1 view -0
 207              		.cfi_startproc
 208              		@ args = 0, pretend = 0, frame = 0
 209              		@ frame_needed = 0, uses_anonymous_args = 0
 430:../../Drivers/STM32L5xx_HAL_Driver/Src/stm32l5xx_hal_pka.c **** 
 210              		.loc 1 430 3 view .LVU52
 433:../../Drivers/STM32L5xx_HAL_Driver/Src/stm32l5xx_hal_pka.c ****   {
 211              		.loc 1 433 3 view .LVU53
 433:../../Drivers/STM32L5xx_HAL_Driver/Src/stm32l5xx_hal_pka.c ****   {
 212              		.loc 1 433 6 is_stmt 0 view .LVU54
 213 0000 88B1     		cbz	r0, .L20
 429:../../Drivers/STM32L5xx_HAL_Driver/Src/stm32l5xx_hal_pka.c ****   HAL_StatusTypeDef err = HAL_OK;
 214              		.loc 1 429 1 view .LVU55
 215 0002 38B5     		push	{r3, r4, r5, lr}
 216              	.LCFI2:
 217              		.cfi_def_cfa_offset 16
 218              		.cfi_offset 3, -16
 219              		.cfi_offset 4, -12
 220              		.cfi_offset 5, -8
 221              		.cfi_offset 14, -4
 222 0004 0546     		mov	r5, r0
 436:../../Drivers/STM32L5xx_HAL_Driver/Src/stm32l5xx_hal_pka.c **** 
 223              		.loc 1 436 5 is_stmt 1 view .LVU56
 439:../../Drivers/STM32L5xx_HAL_Driver/Src/stm32l5xx_hal_pka.c **** 
 224              		.loc 1 439 5 view .LVU57
 439:../../Drivers/STM32L5xx_HAL_Driver/Src/stm32l5xx_hal_pka.c **** 
 225              		.loc 1 439 17 is_stmt 0 view .LVU58
 226 0006 0223     		movs	r3, #2
 227 0008 0371     		strb	r3, [r0, #4]
 443:../../Drivers/STM32L5xx_HAL_Driver/Src/stm32l5xx_hal_pka.c **** 
 228              		.loc 1 443 5 is_stmt 1 view .LVU59
 443:../../Drivers/STM32L5xx_HAL_Driver/Src/stm32l5xx_hal_pka.c **** 
 229              		.loc 1 443 9 is_stmt 0 view .LVU60
 230 000a 0368     		ldr	r3, [r0]
 443:../../Drivers/STM32L5xx_HAL_Driver/Src/stm32l5xx_hal_pka.c **** 
 231              		.loc 1 443 24 view .LVU61
 232 000c 0024     		movs	r4, #0
 233 000e 1C60     		str	r4, [r3]
 446:../../Drivers/STM32L5xx_HAL_Driver/Src/stm32l5xx_hal_pka.c **** 
 234              		.loc 1 446 5 is_stmt 1 view .LVU62
 235 0010 0268     		ldr	r2, [r0]
 236 0012 9368     		ldr	r3, [r2, #8]
 237 0014 43F4D013 		orr	r3, r3, #1703936
 238 0018 9360     		str	r3, [r2, #8]
 458:../../Drivers/STM32L5xx_HAL_Driver/Src/stm32l5xx_hal_pka.c **** #endif /* USE_HAL_PKA_REGISTER_CALLBACKS */
 239              		.loc 1 458 5 view .LVU63
 240 001a FFF7FEFF 		bl	HAL_PKA_MspDeInit
 241              	.LVL15:
 462:../../Drivers/STM32L5xx_HAL_Driver/Src/stm32l5xx_hal_pka.c **** 
 242              		.loc 1 462 5 view .LVU64
 462:../../Drivers/STM32L5xx_HAL_Driver/Src/stm32l5xx_hal_pka.c **** 
ARM GAS  /tmp/cc0Rn02K.s 			page 15


 243              		.loc 1 462 21 is_stmt 0 view .LVU65
 244 001e AC60     		str	r4, [r5, #8]
 465:../../Drivers/STM32L5xx_HAL_Driver/Src/stm32l5xx_hal_pka.c ****   }
 245              		.loc 1 465 5 is_stmt 1 view .LVU66
 465:../../Drivers/STM32L5xx_HAL_Driver/Src/stm32l5xx_hal_pka.c ****   }
 246              		.loc 1 465 17 is_stmt 0 view .LVU67
 247 0020 2C71     		strb	r4, [r5, #4]
 430:../../Drivers/STM32L5xx_HAL_Driver/Src/stm32l5xx_hal_pka.c **** 
 248              		.loc 1 430 21 view .LVU68
 249 0022 2046     		mov	r0, r4
 250              	.LVL16:
 472:../../Drivers/STM32L5xx_HAL_Driver/Src/stm32l5xx_hal_pka.c **** }
 251              		.loc 1 472 3 is_stmt 1 view .LVU69
 473:../../Drivers/STM32L5xx_HAL_Driver/Src/stm32l5xx_hal_pka.c **** 
 252              		.loc 1 473 1 is_stmt 0 view .LVU70
 253 0024 38BD     		pop	{r3, r4, r5, pc}
 254              	.LVL17:
 255              	.L20:
 256              	.LCFI3:
 257              		.cfi_def_cfa_offset 0
 258              		.cfi_restore 3
 259              		.cfi_restore 4
 260              		.cfi_restore 5
 261              		.cfi_restore 14
 469:../../Drivers/STM32L5xx_HAL_Driver/Src/stm32l5xx_hal_pka.c ****   }
 262              		.loc 1 469 9 view .LVU71
 263 0026 0120     		movs	r0, #1
 264              	.LVL18:
 472:../../Drivers/STM32L5xx_HAL_Driver/Src/stm32l5xx_hal_pka.c **** }
 265              		.loc 1 472 3 is_stmt 1 view .LVU72
 473:../../Drivers/STM32L5xx_HAL_Driver/Src/stm32l5xx_hal_pka.c **** 
 266              		.loc 1 473 1 is_stmt 0 view .LVU73
 267 0028 7047     		bx	lr
 268              		.cfi_endproc
 269              	.LFE203:
 271              		.section	.text.HAL_PKA_ECDSAVerif_IsValidSignature,"ax",%progbits
 272              		.align	1
 273              		.global	HAL_PKA_ECDSAVerif_IsValidSignature
 274              		.syntax unified
 275              		.thumb
 276              		.thumb_func
 278              	HAL_PKA_ECDSAVerif_IsValidSignature:
 279              	.LVL19:
 280              	.LFB216:
 504:../../Drivers/STM32L5xx_HAL_Driver/Src/stm32l5xx_hal_pka.c **** 
 505:../../Drivers/STM32L5xx_HAL_Driver/Src/stm32l5xx_hal_pka.c **** #if (USE_HAL_PKA_REGISTER_CALLBACKS == 1)
 506:../../Drivers/STM32L5xx_HAL_Driver/Src/stm32l5xx_hal_pka.c **** /**
 507:../../Drivers/STM32L5xx_HAL_Driver/Src/stm32l5xx_hal_pka.c ****   * @brief  Register a User PKA Callback
 508:../../Drivers/STM32L5xx_HAL_Driver/Src/stm32l5xx_hal_pka.c ****   *         To be used instead of the weak predefined callback
 509:../../Drivers/STM32L5xx_HAL_Driver/Src/stm32l5xx_hal_pka.c ****   * @param  hpka Pointer to a PKA_HandleTypeDef structure that contains
 510:../../Drivers/STM32L5xx_HAL_Driver/Src/stm32l5xx_hal_pka.c ****   *                the configuration information for the specified PKA.
 511:../../Drivers/STM32L5xx_HAL_Driver/Src/stm32l5xx_hal_pka.c ****   * @param  CallbackID ID of the callback to be registered
 512:../../Drivers/STM32L5xx_HAL_Driver/Src/stm32l5xx_hal_pka.c ****   *         This parameter can be one of the following values:
 513:../../Drivers/STM32L5xx_HAL_Driver/Src/stm32l5xx_hal_pka.c ****   *          @arg @ref HAL_PKA_OPERATION_COMPLETE_CB_ID End of operation callback ID
 514:../../Drivers/STM32L5xx_HAL_Driver/Src/stm32l5xx_hal_pka.c ****   *          @arg @ref HAL_PKA_ERROR_CB_ID Error callback ID
 515:../../Drivers/STM32L5xx_HAL_Driver/Src/stm32l5xx_hal_pka.c ****   *          @arg @ref HAL_PKA_MSPINIT_CB_ID MspInit callback ID
 516:../../Drivers/STM32L5xx_HAL_Driver/Src/stm32l5xx_hal_pka.c ****   *          @arg @ref HAL_PKA_MSPDEINIT_CB_ID MspDeInit callback ID
ARM GAS  /tmp/cc0Rn02K.s 			page 16


 517:../../Drivers/STM32L5xx_HAL_Driver/Src/stm32l5xx_hal_pka.c ****   * @param  pCallback pointer to the Callback function
 518:../../Drivers/STM32L5xx_HAL_Driver/Src/stm32l5xx_hal_pka.c ****   * @retval HAL status
 519:../../Drivers/STM32L5xx_HAL_Driver/Src/stm32l5xx_hal_pka.c ****   */
 520:../../Drivers/STM32L5xx_HAL_Driver/Src/stm32l5xx_hal_pka.c **** HAL_StatusTypeDef HAL_PKA_RegisterCallback(PKA_HandleTypeDef *hpka, HAL_PKA_CallbackIDTypeDef Callb
 521:../../Drivers/STM32L5xx_HAL_Driver/Src/stm32l5xx_hal_pka.c ****                                            pPKA_CallbackTypeDef pCallback)
 522:../../Drivers/STM32L5xx_HAL_Driver/Src/stm32l5xx_hal_pka.c **** {
 523:../../Drivers/STM32L5xx_HAL_Driver/Src/stm32l5xx_hal_pka.c ****   HAL_StatusTypeDef status = HAL_OK;
 524:../../Drivers/STM32L5xx_HAL_Driver/Src/stm32l5xx_hal_pka.c **** 
 525:../../Drivers/STM32L5xx_HAL_Driver/Src/stm32l5xx_hal_pka.c ****   if (pCallback == NULL)
 526:../../Drivers/STM32L5xx_HAL_Driver/Src/stm32l5xx_hal_pka.c ****   {
 527:../../Drivers/STM32L5xx_HAL_Driver/Src/stm32l5xx_hal_pka.c ****     /* Update the error code */
 528:../../Drivers/STM32L5xx_HAL_Driver/Src/stm32l5xx_hal_pka.c ****     hpka->ErrorCode |= HAL_PKA_ERROR_INVALID_CALLBACK;
 529:../../Drivers/STM32L5xx_HAL_Driver/Src/stm32l5xx_hal_pka.c **** 
 530:../../Drivers/STM32L5xx_HAL_Driver/Src/stm32l5xx_hal_pka.c ****     return HAL_ERROR;
 531:../../Drivers/STM32L5xx_HAL_Driver/Src/stm32l5xx_hal_pka.c ****   }
 532:../../Drivers/STM32L5xx_HAL_Driver/Src/stm32l5xx_hal_pka.c **** 
 533:../../Drivers/STM32L5xx_HAL_Driver/Src/stm32l5xx_hal_pka.c ****   if (HAL_PKA_STATE_READY == hpka->State)
 534:../../Drivers/STM32L5xx_HAL_Driver/Src/stm32l5xx_hal_pka.c ****   {
 535:../../Drivers/STM32L5xx_HAL_Driver/Src/stm32l5xx_hal_pka.c ****     switch (CallbackID)
 536:../../Drivers/STM32L5xx_HAL_Driver/Src/stm32l5xx_hal_pka.c ****     {
 537:../../Drivers/STM32L5xx_HAL_Driver/Src/stm32l5xx_hal_pka.c ****       case HAL_PKA_OPERATION_COMPLETE_CB_ID :
 538:../../Drivers/STM32L5xx_HAL_Driver/Src/stm32l5xx_hal_pka.c ****         hpka->OperationCpltCallback = pCallback;
 539:../../Drivers/STM32L5xx_HAL_Driver/Src/stm32l5xx_hal_pka.c ****         break;
 540:../../Drivers/STM32L5xx_HAL_Driver/Src/stm32l5xx_hal_pka.c **** 
 541:../../Drivers/STM32L5xx_HAL_Driver/Src/stm32l5xx_hal_pka.c ****       case HAL_PKA_ERROR_CB_ID :
 542:../../Drivers/STM32L5xx_HAL_Driver/Src/stm32l5xx_hal_pka.c ****         hpka->ErrorCallback = pCallback;
 543:../../Drivers/STM32L5xx_HAL_Driver/Src/stm32l5xx_hal_pka.c ****         break;
 544:../../Drivers/STM32L5xx_HAL_Driver/Src/stm32l5xx_hal_pka.c **** 
 545:../../Drivers/STM32L5xx_HAL_Driver/Src/stm32l5xx_hal_pka.c ****       case HAL_PKA_MSPINIT_CB_ID :
 546:../../Drivers/STM32L5xx_HAL_Driver/Src/stm32l5xx_hal_pka.c ****         hpka->MspInitCallback = pCallback;
 547:../../Drivers/STM32L5xx_HAL_Driver/Src/stm32l5xx_hal_pka.c ****         break;
 548:../../Drivers/STM32L5xx_HAL_Driver/Src/stm32l5xx_hal_pka.c **** 
 549:../../Drivers/STM32L5xx_HAL_Driver/Src/stm32l5xx_hal_pka.c ****       case HAL_PKA_MSPDEINIT_CB_ID :
 550:../../Drivers/STM32L5xx_HAL_Driver/Src/stm32l5xx_hal_pka.c ****         hpka->MspDeInitCallback = pCallback;
 551:../../Drivers/STM32L5xx_HAL_Driver/Src/stm32l5xx_hal_pka.c ****         break;
 552:../../Drivers/STM32L5xx_HAL_Driver/Src/stm32l5xx_hal_pka.c **** 
 553:../../Drivers/STM32L5xx_HAL_Driver/Src/stm32l5xx_hal_pka.c ****       default :
 554:../../Drivers/STM32L5xx_HAL_Driver/Src/stm32l5xx_hal_pka.c ****         /* Update the error code */
 555:../../Drivers/STM32L5xx_HAL_Driver/Src/stm32l5xx_hal_pka.c ****         hpka->ErrorCode |= HAL_PKA_ERROR_INVALID_CALLBACK;
 556:../../Drivers/STM32L5xx_HAL_Driver/Src/stm32l5xx_hal_pka.c **** 
 557:../../Drivers/STM32L5xx_HAL_Driver/Src/stm32l5xx_hal_pka.c ****         /* Return error status */
 558:../../Drivers/STM32L5xx_HAL_Driver/Src/stm32l5xx_hal_pka.c ****         status = HAL_ERROR;
 559:../../Drivers/STM32L5xx_HAL_Driver/Src/stm32l5xx_hal_pka.c ****         break;
 560:../../Drivers/STM32L5xx_HAL_Driver/Src/stm32l5xx_hal_pka.c ****     }
 561:../../Drivers/STM32L5xx_HAL_Driver/Src/stm32l5xx_hal_pka.c ****   }
 562:../../Drivers/STM32L5xx_HAL_Driver/Src/stm32l5xx_hal_pka.c ****   else if (HAL_PKA_STATE_RESET == hpka->State)
 563:../../Drivers/STM32L5xx_HAL_Driver/Src/stm32l5xx_hal_pka.c ****   {
 564:../../Drivers/STM32L5xx_HAL_Driver/Src/stm32l5xx_hal_pka.c ****     switch (CallbackID)
 565:../../Drivers/STM32L5xx_HAL_Driver/Src/stm32l5xx_hal_pka.c ****     {
 566:../../Drivers/STM32L5xx_HAL_Driver/Src/stm32l5xx_hal_pka.c ****       case HAL_PKA_MSPINIT_CB_ID :
 567:../../Drivers/STM32L5xx_HAL_Driver/Src/stm32l5xx_hal_pka.c ****         hpka->MspInitCallback = pCallback;
 568:../../Drivers/STM32L5xx_HAL_Driver/Src/stm32l5xx_hal_pka.c ****         break;
 569:../../Drivers/STM32L5xx_HAL_Driver/Src/stm32l5xx_hal_pka.c **** 
 570:../../Drivers/STM32L5xx_HAL_Driver/Src/stm32l5xx_hal_pka.c ****       case HAL_PKA_MSPDEINIT_CB_ID :
 571:../../Drivers/STM32L5xx_HAL_Driver/Src/stm32l5xx_hal_pka.c ****         hpka->MspDeInitCallback = pCallback;
 572:../../Drivers/STM32L5xx_HAL_Driver/Src/stm32l5xx_hal_pka.c ****         break;
 573:../../Drivers/STM32L5xx_HAL_Driver/Src/stm32l5xx_hal_pka.c **** 
ARM GAS  /tmp/cc0Rn02K.s 			page 17


 574:../../Drivers/STM32L5xx_HAL_Driver/Src/stm32l5xx_hal_pka.c ****       default :
 575:../../Drivers/STM32L5xx_HAL_Driver/Src/stm32l5xx_hal_pka.c ****         /* Update the error code */
 576:../../Drivers/STM32L5xx_HAL_Driver/Src/stm32l5xx_hal_pka.c ****         hpka->ErrorCode |= HAL_PKA_ERROR_INVALID_CALLBACK;
 577:../../Drivers/STM32L5xx_HAL_Driver/Src/stm32l5xx_hal_pka.c **** 
 578:../../Drivers/STM32L5xx_HAL_Driver/Src/stm32l5xx_hal_pka.c ****         /* Return error status */
 579:../../Drivers/STM32L5xx_HAL_Driver/Src/stm32l5xx_hal_pka.c ****         status = HAL_ERROR;
 580:../../Drivers/STM32L5xx_HAL_Driver/Src/stm32l5xx_hal_pka.c ****         break;
 581:../../Drivers/STM32L5xx_HAL_Driver/Src/stm32l5xx_hal_pka.c ****     }
 582:../../Drivers/STM32L5xx_HAL_Driver/Src/stm32l5xx_hal_pka.c ****   }
 583:../../Drivers/STM32L5xx_HAL_Driver/Src/stm32l5xx_hal_pka.c ****   else
 584:../../Drivers/STM32L5xx_HAL_Driver/Src/stm32l5xx_hal_pka.c ****   {
 585:../../Drivers/STM32L5xx_HAL_Driver/Src/stm32l5xx_hal_pka.c ****     /* Update the error code */
 586:../../Drivers/STM32L5xx_HAL_Driver/Src/stm32l5xx_hal_pka.c ****     hpka->ErrorCode |= HAL_PKA_ERROR_INVALID_CALLBACK;
 587:../../Drivers/STM32L5xx_HAL_Driver/Src/stm32l5xx_hal_pka.c **** 
 588:../../Drivers/STM32L5xx_HAL_Driver/Src/stm32l5xx_hal_pka.c ****     /* Return error status */
 589:../../Drivers/STM32L5xx_HAL_Driver/Src/stm32l5xx_hal_pka.c ****     status =  HAL_ERROR;
 590:../../Drivers/STM32L5xx_HAL_Driver/Src/stm32l5xx_hal_pka.c ****   }
 591:../../Drivers/STM32L5xx_HAL_Driver/Src/stm32l5xx_hal_pka.c **** 
 592:../../Drivers/STM32L5xx_HAL_Driver/Src/stm32l5xx_hal_pka.c ****   return status;
 593:../../Drivers/STM32L5xx_HAL_Driver/Src/stm32l5xx_hal_pka.c **** }
 594:../../Drivers/STM32L5xx_HAL_Driver/Src/stm32l5xx_hal_pka.c **** 
 595:../../Drivers/STM32L5xx_HAL_Driver/Src/stm32l5xx_hal_pka.c **** /**
 596:../../Drivers/STM32L5xx_HAL_Driver/Src/stm32l5xx_hal_pka.c ****   * @brief  Unregister a PKA Callback
 597:../../Drivers/STM32L5xx_HAL_Driver/Src/stm32l5xx_hal_pka.c ****   *         PKA callback is redirected to the weak predefined callback
 598:../../Drivers/STM32L5xx_HAL_Driver/Src/stm32l5xx_hal_pka.c ****   * @param  hpka Pointer to a PKA_HandleTypeDef structure that contains
 599:../../Drivers/STM32L5xx_HAL_Driver/Src/stm32l5xx_hal_pka.c ****   *                the configuration information for the specified PKA.
 600:../../Drivers/STM32L5xx_HAL_Driver/Src/stm32l5xx_hal_pka.c ****   * @param  CallbackID ID of the callback to be unregistered
 601:../../Drivers/STM32L5xx_HAL_Driver/Src/stm32l5xx_hal_pka.c ****   *         This parameter can be one of the following values:
 602:../../Drivers/STM32L5xx_HAL_Driver/Src/stm32l5xx_hal_pka.c ****   *          @arg @ref HAL_PKA_OPERATION_COMPLETE_CB_ID End of operation callback ID
 603:../../Drivers/STM32L5xx_HAL_Driver/Src/stm32l5xx_hal_pka.c ****   *          @arg @ref HAL_PKA_ERROR_CB_ID Error callback ID
 604:../../Drivers/STM32L5xx_HAL_Driver/Src/stm32l5xx_hal_pka.c ****   *          @arg @ref HAL_PKA_MSPINIT_CB_ID MspInit callback ID
 605:../../Drivers/STM32L5xx_HAL_Driver/Src/stm32l5xx_hal_pka.c ****   *          @arg @ref HAL_PKA_MSPDEINIT_CB_ID MspDeInit callback ID
 606:../../Drivers/STM32L5xx_HAL_Driver/Src/stm32l5xx_hal_pka.c ****   * @retval HAL status
 607:../../Drivers/STM32L5xx_HAL_Driver/Src/stm32l5xx_hal_pka.c ****   */
 608:../../Drivers/STM32L5xx_HAL_Driver/Src/stm32l5xx_hal_pka.c **** HAL_StatusTypeDef HAL_PKA_UnRegisterCallback(PKA_HandleTypeDef *hpka, HAL_PKA_CallbackIDTypeDef Cal
 609:../../Drivers/STM32L5xx_HAL_Driver/Src/stm32l5xx_hal_pka.c **** {
 610:../../Drivers/STM32L5xx_HAL_Driver/Src/stm32l5xx_hal_pka.c ****   HAL_StatusTypeDef status = HAL_OK;
 611:../../Drivers/STM32L5xx_HAL_Driver/Src/stm32l5xx_hal_pka.c **** 
 612:../../Drivers/STM32L5xx_HAL_Driver/Src/stm32l5xx_hal_pka.c ****   if (HAL_PKA_STATE_READY == hpka->State)
 613:../../Drivers/STM32L5xx_HAL_Driver/Src/stm32l5xx_hal_pka.c ****   {
 614:../../Drivers/STM32L5xx_HAL_Driver/Src/stm32l5xx_hal_pka.c ****     switch (CallbackID)
 615:../../Drivers/STM32L5xx_HAL_Driver/Src/stm32l5xx_hal_pka.c ****     {
 616:../../Drivers/STM32L5xx_HAL_Driver/Src/stm32l5xx_hal_pka.c ****       case HAL_PKA_OPERATION_COMPLETE_CB_ID :
 617:../../Drivers/STM32L5xx_HAL_Driver/Src/stm32l5xx_hal_pka.c ****         hpka->OperationCpltCallback = HAL_PKA_OperationCpltCallback; /* Legacy weak OperationCpltCa
 618:../../Drivers/STM32L5xx_HAL_Driver/Src/stm32l5xx_hal_pka.c ****         break;
 619:../../Drivers/STM32L5xx_HAL_Driver/Src/stm32l5xx_hal_pka.c **** 
 620:../../Drivers/STM32L5xx_HAL_Driver/Src/stm32l5xx_hal_pka.c ****       case HAL_PKA_ERROR_CB_ID :
 621:../../Drivers/STM32L5xx_HAL_Driver/Src/stm32l5xx_hal_pka.c ****         hpka->ErrorCallback = HAL_PKA_ErrorCallback;                 /* Legacy weak ErrorCallback  
 622:../../Drivers/STM32L5xx_HAL_Driver/Src/stm32l5xx_hal_pka.c ****         break;
 623:../../Drivers/STM32L5xx_HAL_Driver/Src/stm32l5xx_hal_pka.c **** 
 624:../../Drivers/STM32L5xx_HAL_Driver/Src/stm32l5xx_hal_pka.c ****       case HAL_PKA_MSPINIT_CB_ID :
 625:../../Drivers/STM32L5xx_HAL_Driver/Src/stm32l5xx_hal_pka.c ****         hpka->MspInitCallback = HAL_PKA_MspInit;                     /* Legacy weak MspInit        
 626:../../Drivers/STM32L5xx_HAL_Driver/Src/stm32l5xx_hal_pka.c ****         break;
 627:../../Drivers/STM32L5xx_HAL_Driver/Src/stm32l5xx_hal_pka.c **** 
 628:../../Drivers/STM32L5xx_HAL_Driver/Src/stm32l5xx_hal_pka.c ****       case HAL_PKA_MSPDEINIT_CB_ID :
 629:../../Drivers/STM32L5xx_HAL_Driver/Src/stm32l5xx_hal_pka.c ****         hpka->MspDeInitCallback = HAL_PKA_MspDeInit;                 /* Legacy weak MspDeInit      
 630:../../Drivers/STM32L5xx_HAL_Driver/Src/stm32l5xx_hal_pka.c ****         break;
ARM GAS  /tmp/cc0Rn02K.s 			page 18


 631:../../Drivers/STM32L5xx_HAL_Driver/Src/stm32l5xx_hal_pka.c **** 
 632:../../Drivers/STM32L5xx_HAL_Driver/Src/stm32l5xx_hal_pka.c ****       default :
 633:../../Drivers/STM32L5xx_HAL_Driver/Src/stm32l5xx_hal_pka.c ****         /* Update the error code */
 634:../../Drivers/STM32L5xx_HAL_Driver/Src/stm32l5xx_hal_pka.c ****         hpka->ErrorCode |= HAL_PKA_ERROR_INVALID_CALLBACK;
 635:../../Drivers/STM32L5xx_HAL_Driver/Src/stm32l5xx_hal_pka.c **** 
 636:../../Drivers/STM32L5xx_HAL_Driver/Src/stm32l5xx_hal_pka.c ****         /* Return error status */
 637:../../Drivers/STM32L5xx_HAL_Driver/Src/stm32l5xx_hal_pka.c ****         status =  HAL_ERROR;
 638:../../Drivers/STM32L5xx_HAL_Driver/Src/stm32l5xx_hal_pka.c ****         break;
 639:../../Drivers/STM32L5xx_HAL_Driver/Src/stm32l5xx_hal_pka.c ****     }
 640:../../Drivers/STM32L5xx_HAL_Driver/Src/stm32l5xx_hal_pka.c ****   }
 641:../../Drivers/STM32L5xx_HAL_Driver/Src/stm32l5xx_hal_pka.c ****   else if (HAL_PKA_STATE_RESET == hpka->State)
 642:../../Drivers/STM32L5xx_HAL_Driver/Src/stm32l5xx_hal_pka.c ****   {
 643:../../Drivers/STM32L5xx_HAL_Driver/Src/stm32l5xx_hal_pka.c ****     switch (CallbackID)
 644:../../Drivers/STM32L5xx_HAL_Driver/Src/stm32l5xx_hal_pka.c ****     {
 645:../../Drivers/STM32L5xx_HAL_Driver/Src/stm32l5xx_hal_pka.c ****       case HAL_PKA_MSPINIT_CB_ID :
 646:../../Drivers/STM32L5xx_HAL_Driver/Src/stm32l5xx_hal_pka.c ****         hpka->MspInitCallback = HAL_PKA_MspInit;                   /* Legacy weak MspInit          
 647:../../Drivers/STM32L5xx_HAL_Driver/Src/stm32l5xx_hal_pka.c ****         break;
 648:../../Drivers/STM32L5xx_HAL_Driver/Src/stm32l5xx_hal_pka.c **** 
 649:../../Drivers/STM32L5xx_HAL_Driver/Src/stm32l5xx_hal_pka.c ****       case HAL_PKA_MSPDEINIT_CB_ID :
 650:../../Drivers/STM32L5xx_HAL_Driver/Src/stm32l5xx_hal_pka.c ****         hpka->MspDeInitCallback = HAL_PKA_MspDeInit;               /* Legacy weak MspDeInit        
 651:../../Drivers/STM32L5xx_HAL_Driver/Src/stm32l5xx_hal_pka.c ****         break;
 652:../../Drivers/STM32L5xx_HAL_Driver/Src/stm32l5xx_hal_pka.c **** 
 653:../../Drivers/STM32L5xx_HAL_Driver/Src/stm32l5xx_hal_pka.c ****       default :
 654:../../Drivers/STM32L5xx_HAL_Driver/Src/stm32l5xx_hal_pka.c ****         /* Update the error code */
 655:../../Drivers/STM32L5xx_HAL_Driver/Src/stm32l5xx_hal_pka.c ****         hpka->ErrorCode |= HAL_PKA_ERROR_INVALID_CALLBACK;
 656:../../Drivers/STM32L5xx_HAL_Driver/Src/stm32l5xx_hal_pka.c **** 
 657:../../Drivers/STM32L5xx_HAL_Driver/Src/stm32l5xx_hal_pka.c ****         /* Return error status */
 658:../../Drivers/STM32L5xx_HAL_Driver/Src/stm32l5xx_hal_pka.c ****         status =  HAL_ERROR;
 659:../../Drivers/STM32L5xx_HAL_Driver/Src/stm32l5xx_hal_pka.c ****         break;
 660:../../Drivers/STM32L5xx_HAL_Driver/Src/stm32l5xx_hal_pka.c ****     }
 661:../../Drivers/STM32L5xx_HAL_Driver/Src/stm32l5xx_hal_pka.c ****   }
 662:../../Drivers/STM32L5xx_HAL_Driver/Src/stm32l5xx_hal_pka.c ****   else
 663:../../Drivers/STM32L5xx_HAL_Driver/Src/stm32l5xx_hal_pka.c ****   {
 664:../../Drivers/STM32L5xx_HAL_Driver/Src/stm32l5xx_hal_pka.c ****     /* Update the error code */
 665:../../Drivers/STM32L5xx_HAL_Driver/Src/stm32l5xx_hal_pka.c ****     hpka->ErrorCode |= HAL_PKA_ERROR_INVALID_CALLBACK;
 666:../../Drivers/STM32L5xx_HAL_Driver/Src/stm32l5xx_hal_pka.c **** 
 667:../../Drivers/STM32L5xx_HAL_Driver/Src/stm32l5xx_hal_pka.c ****     /* Return error status */
 668:../../Drivers/STM32L5xx_HAL_Driver/Src/stm32l5xx_hal_pka.c ****     status =  HAL_ERROR;
 669:../../Drivers/STM32L5xx_HAL_Driver/Src/stm32l5xx_hal_pka.c ****   }
 670:../../Drivers/STM32L5xx_HAL_Driver/Src/stm32l5xx_hal_pka.c **** 
 671:../../Drivers/STM32L5xx_HAL_Driver/Src/stm32l5xx_hal_pka.c ****   return status;
 672:../../Drivers/STM32L5xx_HAL_Driver/Src/stm32l5xx_hal_pka.c **** }
 673:../../Drivers/STM32L5xx_HAL_Driver/Src/stm32l5xx_hal_pka.c **** 
 674:../../Drivers/STM32L5xx_HAL_Driver/Src/stm32l5xx_hal_pka.c **** #endif /* USE_HAL_PKA_REGISTER_CALLBACKS */
 675:../../Drivers/STM32L5xx_HAL_Driver/Src/stm32l5xx_hal_pka.c **** 
 676:../../Drivers/STM32L5xx_HAL_Driver/Src/stm32l5xx_hal_pka.c **** /**
 677:../../Drivers/STM32L5xx_HAL_Driver/Src/stm32l5xx_hal_pka.c ****   * @}
 678:../../Drivers/STM32L5xx_HAL_Driver/Src/stm32l5xx_hal_pka.c ****   */
 679:../../Drivers/STM32L5xx_HAL_Driver/Src/stm32l5xx_hal_pka.c **** 
 680:../../Drivers/STM32L5xx_HAL_Driver/Src/stm32l5xx_hal_pka.c **** /** @defgroup PKA_Exported_Functions_Group2 IO operation functions
 681:../../Drivers/STM32L5xx_HAL_Driver/Src/stm32l5xx_hal_pka.c ****   * @brief    IO operation functions
 682:../../Drivers/STM32L5xx_HAL_Driver/Src/stm32l5xx_hal_pka.c ****   *
 683:../../Drivers/STM32L5xx_HAL_Driver/Src/stm32l5xx_hal_pka.c **** @verbatim
 684:../../Drivers/STM32L5xx_HAL_Driver/Src/stm32l5xx_hal_pka.c ****  ===============================================================================
 685:../../Drivers/STM32L5xx_HAL_Driver/Src/stm32l5xx_hal_pka.c ****                       ##### IO operation functions #####
 686:../../Drivers/STM32L5xx_HAL_Driver/Src/stm32l5xx_hal_pka.c ****  ===============================================================================
 687:../../Drivers/STM32L5xx_HAL_Driver/Src/stm32l5xx_hal_pka.c ****     [..]
ARM GAS  /tmp/cc0Rn02K.s 			page 19


 688:../../Drivers/STM32L5xx_HAL_Driver/Src/stm32l5xx_hal_pka.c ****     This subsection provides a set of functions allowing to manage the PKA operations.
 689:../../Drivers/STM32L5xx_HAL_Driver/Src/stm32l5xx_hal_pka.c **** 
 690:../../Drivers/STM32L5xx_HAL_Driver/Src/stm32l5xx_hal_pka.c ****     (#) There are two modes of operation:
 691:../../Drivers/STM32L5xx_HAL_Driver/Src/stm32l5xx_hal_pka.c **** 
 692:../../Drivers/STM32L5xx_HAL_Driver/Src/stm32l5xx_hal_pka.c ****        (++) Blocking mode : The operation is performed in the polling mode.
 693:../../Drivers/STM32L5xx_HAL_Driver/Src/stm32l5xx_hal_pka.c ****             These functions return when data operation is completed.
 694:../../Drivers/STM32L5xx_HAL_Driver/Src/stm32l5xx_hal_pka.c ****        (++) No-Blocking mode : The operation is performed using Interrupts.
 695:../../Drivers/STM32L5xx_HAL_Driver/Src/stm32l5xx_hal_pka.c ****             These functions return immediately.
 696:../../Drivers/STM32L5xx_HAL_Driver/Src/stm32l5xx_hal_pka.c ****             The end of the operation is indicated by HAL_PKA_ErrorCallback in case of error.
 697:../../Drivers/STM32L5xx_HAL_Driver/Src/stm32l5xx_hal_pka.c ****             The end of the operation is indicated by HAL_PKA_OperationCpltCallback in case of succe
 698:../../Drivers/STM32L5xx_HAL_Driver/Src/stm32l5xx_hal_pka.c ****             To stop any operation in interrupt mode, use HAL_PKA_Abort().
 699:../../Drivers/STM32L5xx_HAL_Driver/Src/stm32l5xx_hal_pka.c **** 
 700:../../Drivers/STM32L5xx_HAL_Driver/Src/stm32l5xx_hal_pka.c ****     (#) Blocking mode functions are :
 701:../../Drivers/STM32L5xx_HAL_Driver/Src/stm32l5xx_hal_pka.c **** 
 702:../../Drivers/STM32L5xx_HAL_Driver/Src/stm32l5xx_hal_pka.c ****         (++) HAL_PKA_ModExp()
 703:../../Drivers/STM32L5xx_HAL_Driver/Src/stm32l5xx_hal_pka.c ****         (++) HAL_PKA_ModExpFastMode()
 704:../../Drivers/STM32L5xx_HAL_Driver/Src/stm32l5xx_hal_pka.c ****         (++) HAL_PKA_ModExp_GetResult();
 705:../../Drivers/STM32L5xx_HAL_Driver/Src/stm32l5xx_hal_pka.c **** 
 706:../../Drivers/STM32L5xx_HAL_Driver/Src/stm32l5xx_hal_pka.c ****         (++) HAL_PKA_ECDSASign()
 707:../../Drivers/STM32L5xx_HAL_Driver/Src/stm32l5xx_hal_pka.c ****         (++) HAL_PKA_ECDSASign_GetResult();
 708:../../Drivers/STM32L5xx_HAL_Driver/Src/stm32l5xx_hal_pka.c **** 
 709:../../Drivers/STM32L5xx_HAL_Driver/Src/stm32l5xx_hal_pka.c ****         (++) HAL_PKA_ECDSAVerif()
 710:../../Drivers/STM32L5xx_HAL_Driver/Src/stm32l5xx_hal_pka.c ****         (++) HAL_PKA_ECDSAVerif_IsValidSignature();
 711:../../Drivers/STM32L5xx_HAL_Driver/Src/stm32l5xx_hal_pka.c **** 
 712:../../Drivers/STM32L5xx_HAL_Driver/Src/stm32l5xx_hal_pka.c ****         (++) HAL_PKA_RSACRTExp()
 713:../../Drivers/STM32L5xx_HAL_Driver/Src/stm32l5xx_hal_pka.c ****         (++) HAL_PKA_RSACRTExp_GetResult();
 714:../../Drivers/STM32L5xx_HAL_Driver/Src/stm32l5xx_hal_pka.c **** 
 715:../../Drivers/STM32L5xx_HAL_Driver/Src/stm32l5xx_hal_pka.c ****         (++) HAL_PKA_PointCheck()
 716:../../Drivers/STM32L5xx_HAL_Driver/Src/stm32l5xx_hal_pka.c ****         (++) HAL_PKA_PointCheck_IsOnCurve();
 717:../../Drivers/STM32L5xx_HAL_Driver/Src/stm32l5xx_hal_pka.c **** 
 718:../../Drivers/STM32L5xx_HAL_Driver/Src/stm32l5xx_hal_pka.c ****         (++) HAL_PKA_ECCMul()
 719:../../Drivers/STM32L5xx_HAL_Driver/Src/stm32l5xx_hal_pka.c ****         (++) HAL_PKA_ECCMulFastMode()
 720:../../Drivers/STM32L5xx_HAL_Driver/Src/stm32l5xx_hal_pka.c ****         (++) HAL_PKA_ECCMul_GetResult();
 721:../../Drivers/STM32L5xx_HAL_Driver/Src/stm32l5xx_hal_pka.c **** 
 722:../../Drivers/STM32L5xx_HAL_Driver/Src/stm32l5xx_hal_pka.c **** 
 723:../../Drivers/STM32L5xx_HAL_Driver/Src/stm32l5xx_hal_pka.c ****         (++) HAL_PKA_Add()
 724:../../Drivers/STM32L5xx_HAL_Driver/Src/stm32l5xx_hal_pka.c ****         (++) HAL_PKA_Sub()
 725:../../Drivers/STM32L5xx_HAL_Driver/Src/stm32l5xx_hal_pka.c ****         (++) HAL_PKA_Cmp()
 726:../../Drivers/STM32L5xx_HAL_Driver/Src/stm32l5xx_hal_pka.c ****         (++) HAL_PKA_Mul()
 727:../../Drivers/STM32L5xx_HAL_Driver/Src/stm32l5xx_hal_pka.c ****         (++) HAL_PKA_ModAdd()
 728:../../Drivers/STM32L5xx_HAL_Driver/Src/stm32l5xx_hal_pka.c ****         (++) HAL_PKA_ModSub()
 729:../../Drivers/STM32L5xx_HAL_Driver/Src/stm32l5xx_hal_pka.c ****         (++) HAL_PKA_ModInv()
 730:../../Drivers/STM32L5xx_HAL_Driver/Src/stm32l5xx_hal_pka.c ****         (++) HAL_PKA_ModRed()
 731:../../Drivers/STM32L5xx_HAL_Driver/Src/stm32l5xx_hal_pka.c ****         (++) HAL_PKA_MontgomeryMul()
 732:../../Drivers/STM32L5xx_HAL_Driver/Src/stm32l5xx_hal_pka.c ****         (++) HAL_PKA_Arithmetic_GetResult(P);
 733:../../Drivers/STM32L5xx_HAL_Driver/Src/stm32l5xx_hal_pka.c **** 
 734:../../Drivers/STM32L5xx_HAL_Driver/Src/stm32l5xx_hal_pka.c ****         (++) HAL_PKA_MontgomeryParam()
 735:../../Drivers/STM32L5xx_HAL_Driver/Src/stm32l5xx_hal_pka.c ****         (++) HAL_PKA_MontgomeryParam_GetResult();
 736:../../Drivers/STM32L5xx_HAL_Driver/Src/stm32l5xx_hal_pka.c **** 
 737:../../Drivers/STM32L5xx_HAL_Driver/Src/stm32l5xx_hal_pka.c ****     (#) No-Blocking mode functions with Interrupt are :
 738:../../Drivers/STM32L5xx_HAL_Driver/Src/stm32l5xx_hal_pka.c **** 
 739:../../Drivers/STM32L5xx_HAL_Driver/Src/stm32l5xx_hal_pka.c ****         (++) HAL_PKA_ModExp_IT();
 740:../../Drivers/STM32L5xx_HAL_Driver/Src/stm32l5xx_hal_pka.c ****         (++) HAL_PKA_ModExpFastMode_IT();
 741:../../Drivers/STM32L5xx_HAL_Driver/Src/stm32l5xx_hal_pka.c ****         (++) HAL_PKA_ModExp_GetResult();
 742:../../Drivers/STM32L5xx_HAL_Driver/Src/stm32l5xx_hal_pka.c **** 
 743:../../Drivers/STM32L5xx_HAL_Driver/Src/stm32l5xx_hal_pka.c ****         (++) HAL_PKA_ECDSASign_IT();
 744:../../Drivers/STM32L5xx_HAL_Driver/Src/stm32l5xx_hal_pka.c ****         (++) HAL_PKA_ECDSASign_GetResult();
ARM GAS  /tmp/cc0Rn02K.s 			page 20


 745:../../Drivers/STM32L5xx_HAL_Driver/Src/stm32l5xx_hal_pka.c **** 
 746:../../Drivers/STM32L5xx_HAL_Driver/Src/stm32l5xx_hal_pka.c ****         (++) HAL_PKA_ECDSAVerif_IT();
 747:../../Drivers/STM32L5xx_HAL_Driver/Src/stm32l5xx_hal_pka.c ****         (++) HAL_PKA_ECDSAVerif_IsValidSignature();
 748:../../Drivers/STM32L5xx_HAL_Driver/Src/stm32l5xx_hal_pka.c **** 
 749:../../Drivers/STM32L5xx_HAL_Driver/Src/stm32l5xx_hal_pka.c ****         (++) HAL_PKA_RSACRTExp_IT();
 750:../../Drivers/STM32L5xx_HAL_Driver/Src/stm32l5xx_hal_pka.c ****         (++) HAL_PKA_RSACRTExp_GetResult();
 751:../../Drivers/STM32L5xx_HAL_Driver/Src/stm32l5xx_hal_pka.c **** 
 752:../../Drivers/STM32L5xx_HAL_Driver/Src/stm32l5xx_hal_pka.c ****         (++) HAL_PKA_PointCheck_IT();
 753:../../Drivers/STM32L5xx_HAL_Driver/Src/stm32l5xx_hal_pka.c ****         (++) HAL_PKA_PointCheck_IsOnCurve();
 754:../../Drivers/STM32L5xx_HAL_Driver/Src/stm32l5xx_hal_pka.c **** 
 755:../../Drivers/STM32L5xx_HAL_Driver/Src/stm32l5xx_hal_pka.c ****         (++) HAL_PKA_ECCMul_IT();
 756:../../Drivers/STM32L5xx_HAL_Driver/Src/stm32l5xx_hal_pka.c ****         (++) HAL_PKA_ECCMulFastMode_IT();
 757:../../Drivers/STM32L5xx_HAL_Driver/Src/stm32l5xx_hal_pka.c ****         (++) HAL_PKA_ECCMul_GetResult();
 758:../../Drivers/STM32L5xx_HAL_Driver/Src/stm32l5xx_hal_pka.c **** 
 759:../../Drivers/STM32L5xx_HAL_Driver/Src/stm32l5xx_hal_pka.c ****         (++) HAL_PKA_Add_IT();
 760:../../Drivers/STM32L5xx_HAL_Driver/Src/stm32l5xx_hal_pka.c ****         (++) HAL_PKA_Sub_IT();
 761:../../Drivers/STM32L5xx_HAL_Driver/Src/stm32l5xx_hal_pka.c ****         (++) HAL_PKA_Cmp_IT();
 762:../../Drivers/STM32L5xx_HAL_Driver/Src/stm32l5xx_hal_pka.c ****         (++) HAL_PKA_Mul_IT();
 763:../../Drivers/STM32L5xx_HAL_Driver/Src/stm32l5xx_hal_pka.c ****         (++) HAL_PKA_ModAdd_IT();
 764:../../Drivers/STM32L5xx_HAL_Driver/Src/stm32l5xx_hal_pka.c ****         (++) HAL_PKA_ModSub_IT();
 765:../../Drivers/STM32L5xx_HAL_Driver/Src/stm32l5xx_hal_pka.c ****         (++) HAL_PKA_ModInv_IT();
 766:../../Drivers/STM32L5xx_HAL_Driver/Src/stm32l5xx_hal_pka.c ****         (++) HAL_PKA_ModRed_IT();
 767:../../Drivers/STM32L5xx_HAL_Driver/Src/stm32l5xx_hal_pka.c ****         (++) HAL_PKA_MontgomeryMul_IT();
 768:../../Drivers/STM32L5xx_HAL_Driver/Src/stm32l5xx_hal_pka.c ****         (++) HAL_PKA_Arithmetic_GetResult();
 769:../../Drivers/STM32L5xx_HAL_Driver/Src/stm32l5xx_hal_pka.c **** 
 770:../../Drivers/STM32L5xx_HAL_Driver/Src/stm32l5xx_hal_pka.c ****         (++) HAL_PKA_MontgomeryParam_IT();
 771:../../Drivers/STM32L5xx_HAL_Driver/Src/stm32l5xx_hal_pka.c ****         (++) HAL_PKA_MontgomeryParam_GetResult();
 772:../../Drivers/STM32L5xx_HAL_Driver/Src/stm32l5xx_hal_pka.c **** 
 773:../../Drivers/STM32L5xx_HAL_Driver/Src/stm32l5xx_hal_pka.c ****         (++) HAL_PKA_Abort();
 774:../../Drivers/STM32L5xx_HAL_Driver/Src/stm32l5xx_hal_pka.c **** 
 775:../../Drivers/STM32L5xx_HAL_Driver/Src/stm32l5xx_hal_pka.c **** @endverbatim
 776:../../Drivers/STM32L5xx_HAL_Driver/Src/stm32l5xx_hal_pka.c ****   * @{
 777:../../Drivers/STM32L5xx_HAL_Driver/Src/stm32l5xx_hal_pka.c ****   */
 778:../../Drivers/STM32L5xx_HAL_Driver/Src/stm32l5xx_hal_pka.c **** 
 779:../../Drivers/STM32L5xx_HAL_Driver/Src/stm32l5xx_hal_pka.c **** /**
 780:../../Drivers/STM32L5xx_HAL_Driver/Src/stm32l5xx_hal_pka.c ****   * @brief  Modular exponentiation in blocking mode.
 781:../../Drivers/STM32L5xx_HAL_Driver/Src/stm32l5xx_hal_pka.c ****   * @param  hpka PKA handle
 782:../../Drivers/STM32L5xx_HAL_Driver/Src/stm32l5xx_hal_pka.c ****   * @param  in Input information
 783:../../Drivers/STM32L5xx_HAL_Driver/Src/stm32l5xx_hal_pka.c ****   * @param  Timeout Timeout duration
 784:../../Drivers/STM32L5xx_HAL_Driver/Src/stm32l5xx_hal_pka.c ****   * @retval HAL status
 785:../../Drivers/STM32L5xx_HAL_Driver/Src/stm32l5xx_hal_pka.c ****   */
 786:../../Drivers/STM32L5xx_HAL_Driver/Src/stm32l5xx_hal_pka.c **** HAL_StatusTypeDef HAL_PKA_ModExp(PKA_HandleTypeDef *hpka, PKA_ModExpInTypeDef *in, uint32_t Timeout
 787:../../Drivers/STM32L5xx_HAL_Driver/Src/stm32l5xx_hal_pka.c **** {
 788:../../Drivers/STM32L5xx_HAL_Driver/Src/stm32l5xx_hal_pka.c ****   /* Set input parameter in PKA RAM */
 789:../../Drivers/STM32L5xx_HAL_Driver/Src/stm32l5xx_hal_pka.c ****   PKA_ModExp_Set(hpka, in);
 790:../../Drivers/STM32L5xx_HAL_Driver/Src/stm32l5xx_hal_pka.c ****   /* Start the operation */
 791:../../Drivers/STM32L5xx_HAL_Driver/Src/stm32l5xx_hal_pka.c ****   return PKA_Process(hpka, PKA_MODE_MODULAR_EXP, Timeout);
 792:../../Drivers/STM32L5xx_HAL_Driver/Src/stm32l5xx_hal_pka.c **** }
 793:../../Drivers/STM32L5xx_HAL_Driver/Src/stm32l5xx_hal_pka.c **** 
 794:../../Drivers/STM32L5xx_HAL_Driver/Src/stm32l5xx_hal_pka.c **** /**
 795:../../Drivers/STM32L5xx_HAL_Driver/Src/stm32l5xx_hal_pka.c ****   * @brief  Modular exponentiation in non-blocking mode with Interrupt.
 796:../../Drivers/STM32L5xx_HAL_Driver/Src/stm32l5xx_hal_pka.c ****   * @param  hpka PKA handle
 797:../../Drivers/STM32L5xx_HAL_Driver/Src/stm32l5xx_hal_pka.c ****   * @param  in Input information
 798:../../Drivers/STM32L5xx_HAL_Driver/Src/stm32l5xx_hal_pka.c ****   * @retval HAL status
 799:../../Drivers/STM32L5xx_HAL_Driver/Src/stm32l5xx_hal_pka.c ****   */
 800:../../Drivers/STM32L5xx_HAL_Driver/Src/stm32l5xx_hal_pka.c **** HAL_StatusTypeDef HAL_PKA_ModExp_IT(PKA_HandleTypeDef *hpka, PKA_ModExpInTypeDef *in)
 801:../../Drivers/STM32L5xx_HAL_Driver/Src/stm32l5xx_hal_pka.c **** {
ARM GAS  /tmp/cc0Rn02K.s 			page 21


 802:../../Drivers/STM32L5xx_HAL_Driver/Src/stm32l5xx_hal_pka.c ****   /* Set input parameter in PKA RAM */
 803:../../Drivers/STM32L5xx_HAL_Driver/Src/stm32l5xx_hal_pka.c ****   PKA_ModExp_Set(hpka, in);
 804:../../Drivers/STM32L5xx_HAL_Driver/Src/stm32l5xx_hal_pka.c ****   /* Start the operation */
 805:../../Drivers/STM32L5xx_HAL_Driver/Src/stm32l5xx_hal_pka.c ****   return PKA_Process_IT(hpka, PKA_MODE_MODULAR_EXP);
 806:../../Drivers/STM32L5xx_HAL_Driver/Src/stm32l5xx_hal_pka.c **** }
 807:../../Drivers/STM32L5xx_HAL_Driver/Src/stm32l5xx_hal_pka.c **** 
 808:../../Drivers/STM32L5xx_HAL_Driver/Src/stm32l5xx_hal_pka.c **** /**
 809:../../Drivers/STM32L5xx_HAL_Driver/Src/stm32l5xx_hal_pka.c ****   * @brief  Modular exponentiation in blocking mode.
 810:../../Drivers/STM32L5xx_HAL_Driver/Src/stm32l5xx_hal_pka.c ****   * @param  hpka PKA handle
 811:../../Drivers/STM32L5xx_HAL_Driver/Src/stm32l5xx_hal_pka.c ****   * @param  in Input information
 812:../../Drivers/STM32L5xx_HAL_Driver/Src/stm32l5xx_hal_pka.c ****   * @param  Timeout Timeout duration
 813:../../Drivers/STM32L5xx_HAL_Driver/Src/stm32l5xx_hal_pka.c ****   * @retval HAL status
 814:../../Drivers/STM32L5xx_HAL_Driver/Src/stm32l5xx_hal_pka.c ****   */
 815:../../Drivers/STM32L5xx_HAL_Driver/Src/stm32l5xx_hal_pka.c **** HAL_StatusTypeDef HAL_PKA_ModExpFastMode(PKA_HandleTypeDef *hpka, PKA_ModExpFastModeInTypeDef *in, 
 816:../../Drivers/STM32L5xx_HAL_Driver/Src/stm32l5xx_hal_pka.c **** {
 817:../../Drivers/STM32L5xx_HAL_Driver/Src/stm32l5xx_hal_pka.c ****   /* Set input parameter in PKA RAM */
 818:../../Drivers/STM32L5xx_HAL_Driver/Src/stm32l5xx_hal_pka.c ****   PKA_ModExpFastMode_Set(hpka, in);
 819:../../Drivers/STM32L5xx_HAL_Driver/Src/stm32l5xx_hal_pka.c ****   /* Start the operation */
 820:../../Drivers/STM32L5xx_HAL_Driver/Src/stm32l5xx_hal_pka.c ****   return PKA_Process(hpka, PKA_MODE_MODULAR_EXP_FAST_MODE, Timeout);
 821:../../Drivers/STM32L5xx_HAL_Driver/Src/stm32l5xx_hal_pka.c **** }
 822:../../Drivers/STM32L5xx_HAL_Driver/Src/stm32l5xx_hal_pka.c **** 
 823:../../Drivers/STM32L5xx_HAL_Driver/Src/stm32l5xx_hal_pka.c **** /**
 824:../../Drivers/STM32L5xx_HAL_Driver/Src/stm32l5xx_hal_pka.c ****   * @brief  Modular exponentiation in non-blocking mode with Interrupt.
 825:../../Drivers/STM32L5xx_HAL_Driver/Src/stm32l5xx_hal_pka.c ****   * @param  hpka PKA handle
 826:../../Drivers/STM32L5xx_HAL_Driver/Src/stm32l5xx_hal_pka.c ****   * @param  in Input information
 827:../../Drivers/STM32L5xx_HAL_Driver/Src/stm32l5xx_hal_pka.c ****   * @retval HAL status
 828:../../Drivers/STM32L5xx_HAL_Driver/Src/stm32l5xx_hal_pka.c ****   */
 829:../../Drivers/STM32L5xx_HAL_Driver/Src/stm32l5xx_hal_pka.c **** HAL_StatusTypeDef HAL_PKA_ModExpFastMode_IT(PKA_HandleTypeDef *hpka, PKA_ModExpFastModeInTypeDef *i
 830:../../Drivers/STM32L5xx_HAL_Driver/Src/stm32l5xx_hal_pka.c **** {
 831:../../Drivers/STM32L5xx_HAL_Driver/Src/stm32l5xx_hal_pka.c ****   /* Set input parameter in PKA RAM */
 832:../../Drivers/STM32L5xx_HAL_Driver/Src/stm32l5xx_hal_pka.c ****   PKA_ModExpFastMode_Set(hpka, in);
 833:../../Drivers/STM32L5xx_HAL_Driver/Src/stm32l5xx_hal_pka.c ****   /* Start the operation */
 834:../../Drivers/STM32L5xx_HAL_Driver/Src/stm32l5xx_hal_pka.c ****   return PKA_Process_IT(hpka, PKA_MODE_MODULAR_EXP_FAST_MODE);
 835:../../Drivers/STM32L5xx_HAL_Driver/Src/stm32l5xx_hal_pka.c **** }
 836:../../Drivers/STM32L5xx_HAL_Driver/Src/stm32l5xx_hal_pka.c **** 
 837:../../Drivers/STM32L5xx_HAL_Driver/Src/stm32l5xx_hal_pka.c **** 
 838:../../Drivers/STM32L5xx_HAL_Driver/Src/stm32l5xx_hal_pka.c **** /**
 839:../../Drivers/STM32L5xx_HAL_Driver/Src/stm32l5xx_hal_pka.c ****   * @brief  Retrieve operation result.
 840:../../Drivers/STM32L5xx_HAL_Driver/Src/stm32l5xx_hal_pka.c ****   * @param  hpka PKA handle
 841:../../Drivers/STM32L5xx_HAL_Driver/Src/stm32l5xx_hal_pka.c ****   * @param  pRes Output buffer
 842:../../Drivers/STM32L5xx_HAL_Driver/Src/stm32l5xx_hal_pka.c ****   * @retval HAL status
 843:../../Drivers/STM32L5xx_HAL_Driver/Src/stm32l5xx_hal_pka.c ****   */
 844:../../Drivers/STM32L5xx_HAL_Driver/Src/stm32l5xx_hal_pka.c **** void HAL_PKA_ModExp_GetResult(PKA_HandleTypeDef *hpka, uint8_t *pRes)
 845:../../Drivers/STM32L5xx_HAL_Driver/Src/stm32l5xx_hal_pka.c **** {
 846:../../Drivers/STM32L5xx_HAL_Driver/Src/stm32l5xx_hal_pka.c ****   uint32_t size;
 847:../../Drivers/STM32L5xx_HAL_Driver/Src/stm32l5xx_hal_pka.c **** 
 848:../../Drivers/STM32L5xx_HAL_Driver/Src/stm32l5xx_hal_pka.c ****   /* Indicate to the user the final size */
 849:../../Drivers/STM32L5xx_HAL_Driver/Src/stm32l5xx_hal_pka.c ****   size = (hpka->Instance->RAM[PKA_MODULAR_EXP_IN_OP_NB_BITS] + 7UL) / 8UL;
 850:../../Drivers/STM32L5xx_HAL_Driver/Src/stm32l5xx_hal_pka.c **** 
 851:../../Drivers/STM32L5xx_HAL_Driver/Src/stm32l5xx_hal_pka.c ****   /* Move the result to appropriate location (indicated in out parameter) */
 852:../../Drivers/STM32L5xx_HAL_Driver/Src/stm32l5xx_hal_pka.c ****   PKA_Memcpy_u32_to_u8(pRes, &hpka->Instance->RAM[PKA_MODULAR_EXP_OUT_SM_ALGO_ACC1], size);
 853:../../Drivers/STM32L5xx_HAL_Driver/Src/stm32l5xx_hal_pka.c **** }
 854:../../Drivers/STM32L5xx_HAL_Driver/Src/stm32l5xx_hal_pka.c **** 
 855:../../Drivers/STM32L5xx_HAL_Driver/Src/stm32l5xx_hal_pka.c **** /**
 856:../../Drivers/STM32L5xx_HAL_Driver/Src/stm32l5xx_hal_pka.c ****   * @brief  Sign a message using elliptic curves over prime fields in blocking mode.
 857:../../Drivers/STM32L5xx_HAL_Driver/Src/stm32l5xx_hal_pka.c ****   * @param  hpka PKA handle
 858:../../Drivers/STM32L5xx_HAL_Driver/Src/stm32l5xx_hal_pka.c ****   * @param  in Input information
ARM GAS  /tmp/cc0Rn02K.s 			page 22


 859:../../Drivers/STM32L5xx_HAL_Driver/Src/stm32l5xx_hal_pka.c ****   * @param  Timeout Timeout duration
 860:../../Drivers/STM32L5xx_HAL_Driver/Src/stm32l5xx_hal_pka.c ****   * @retval HAL status
 861:../../Drivers/STM32L5xx_HAL_Driver/Src/stm32l5xx_hal_pka.c ****   */
 862:../../Drivers/STM32L5xx_HAL_Driver/Src/stm32l5xx_hal_pka.c **** HAL_StatusTypeDef HAL_PKA_ECDSASign(PKA_HandleTypeDef *hpka, PKA_ECDSASignInTypeDef *in, uint32_t T
 863:../../Drivers/STM32L5xx_HAL_Driver/Src/stm32l5xx_hal_pka.c **** {
 864:../../Drivers/STM32L5xx_HAL_Driver/Src/stm32l5xx_hal_pka.c ****   /* Set input parameter in PKA RAM */
 865:../../Drivers/STM32L5xx_HAL_Driver/Src/stm32l5xx_hal_pka.c ****   PKA_ECDSASign_Set(hpka, in);
 866:../../Drivers/STM32L5xx_HAL_Driver/Src/stm32l5xx_hal_pka.c ****   /* Start the operation */
 867:../../Drivers/STM32L5xx_HAL_Driver/Src/stm32l5xx_hal_pka.c ****   return PKA_Process(hpka, PKA_MODE_ECDSA_SIGNATURE, Timeout);
 868:../../Drivers/STM32L5xx_HAL_Driver/Src/stm32l5xx_hal_pka.c **** }
 869:../../Drivers/STM32L5xx_HAL_Driver/Src/stm32l5xx_hal_pka.c **** 
 870:../../Drivers/STM32L5xx_HAL_Driver/Src/stm32l5xx_hal_pka.c **** /**
 871:../../Drivers/STM32L5xx_HAL_Driver/Src/stm32l5xx_hal_pka.c ****   * @brief  Sign a message using elliptic curves over prime fields in non-blocking mode with Interr
 872:../../Drivers/STM32L5xx_HAL_Driver/Src/stm32l5xx_hal_pka.c ****   * @param  hpka PKA handle
 873:../../Drivers/STM32L5xx_HAL_Driver/Src/stm32l5xx_hal_pka.c ****   * @param  in Input information
 874:../../Drivers/STM32L5xx_HAL_Driver/Src/stm32l5xx_hal_pka.c ****   * @retval HAL status
 875:../../Drivers/STM32L5xx_HAL_Driver/Src/stm32l5xx_hal_pka.c ****   */
 876:../../Drivers/STM32L5xx_HAL_Driver/Src/stm32l5xx_hal_pka.c **** HAL_StatusTypeDef HAL_PKA_ECDSASign_IT(PKA_HandleTypeDef *hpka, PKA_ECDSASignInTypeDef *in)
 877:../../Drivers/STM32L5xx_HAL_Driver/Src/stm32l5xx_hal_pka.c **** {
 878:../../Drivers/STM32L5xx_HAL_Driver/Src/stm32l5xx_hal_pka.c ****   /* Set input parameter in PKA RAM */
 879:../../Drivers/STM32L5xx_HAL_Driver/Src/stm32l5xx_hal_pka.c ****   PKA_ECDSASign_Set(hpka, in);
 880:../../Drivers/STM32L5xx_HAL_Driver/Src/stm32l5xx_hal_pka.c ****   /* Start the operation */
 881:../../Drivers/STM32L5xx_HAL_Driver/Src/stm32l5xx_hal_pka.c ****   return PKA_Process_IT(hpka, PKA_MODE_ECDSA_SIGNATURE);
 882:../../Drivers/STM32L5xx_HAL_Driver/Src/stm32l5xx_hal_pka.c **** }
 883:../../Drivers/STM32L5xx_HAL_Driver/Src/stm32l5xx_hal_pka.c **** 
 884:../../Drivers/STM32L5xx_HAL_Driver/Src/stm32l5xx_hal_pka.c **** /**
 885:../../Drivers/STM32L5xx_HAL_Driver/Src/stm32l5xx_hal_pka.c ****   * @brief  Retrieve operation result.
 886:../../Drivers/STM32L5xx_HAL_Driver/Src/stm32l5xx_hal_pka.c ****   * @param  hpka PKA handle
 887:../../Drivers/STM32L5xx_HAL_Driver/Src/stm32l5xx_hal_pka.c ****   * @param  out Output information
 888:../../Drivers/STM32L5xx_HAL_Driver/Src/stm32l5xx_hal_pka.c ****   * @param  outExt Additional Output information (facultative)
 889:../../Drivers/STM32L5xx_HAL_Driver/Src/stm32l5xx_hal_pka.c ****   */
 890:../../Drivers/STM32L5xx_HAL_Driver/Src/stm32l5xx_hal_pka.c **** void HAL_PKA_ECDSASign_GetResult(PKA_HandleTypeDef *hpka, PKA_ECDSASignOutTypeDef *out,
 891:../../Drivers/STM32L5xx_HAL_Driver/Src/stm32l5xx_hal_pka.c ****                                  PKA_ECDSASignOutExtParamTypeDef *outExt)
 892:../../Drivers/STM32L5xx_HAL_Driver/Src/stm32l5xx_hal_pka.c **** {
 893:../../Drivers/STM32L5xx_HAL_Driver/Src/stm32l5xx_hal_pka.c ****   uint32_t size;
 894:../../Drivers/STM32L5xx_HAL_Driver/Src/stm32l5xx_hal_pka.c **** 
 895:../../Drivers/STM32L5xx_HAL_Driver/Src/stm32l5xx_hal_pka.c ****   size = (hpka->Instance->RAM[PKA_ECDSA_SIGN_IN_MOD_NB_BITS] + 7UL) / 8UL;
 896:../../Drivers/STM32L5xx_HAL_Driver/Src/stm32l5xx_hal_pka.c **** 
 897:../../Drivers/STM32L5xx_HAL_Driver/Src/stm32l5xx_hal_pka.c ****   if (out != NULL)
 898:../../Drivers/STM32L5xx_HAL_Driver/Src/stm32l5xx_hal_pka.c ****   {
 899:../../Drivers/STM32L5xx_HAL_Driver/Src/stm32l5xx_hal_pka.c ****     PKA_Memcpy_u32_to_u8(out->RSign, &hpka->Instance->RAM[PKA_ECDSA_SIGN_OUT_SIGNATURE_R], size);
 900:../../Drivers/STM32L5xx_HAL_Driver/Src/stm32l5xx_hal_pka.c ****     PKA_Memcpy_u32_to_u8(out->SSign, &hpka->Instance->RAM[PKA_ECDSA_SIGN_OUT_SIGNATURE_S], size);
 901:../../Drivers/STM32L5xx_HAL_Driver/Src/stm32l5xx_hal_pka.c ****   }
 902:../../Drivers/STM32L5xx_HAL_Driver/Src/stm32l5xx_hal_pka.c **** 
 903:../../Drivers/STM32L5xx_HAL_Driver/Src/stm32l5xx_hal_pka.c ****   /* If user requires the additional information */
 904:../../Drivers/STM32L5xx_HAL_Driver/Src/stm32l5xx_hal_pka.c ****   if (outExt != NULL)
 905:../../Drivers/STM32L5xx_HAL_Driver/Src/stm32l5xx_hal_pka.c ****   {
 906:../../Drivers/STM32L5xx_HAL_Driver/Src/stm32l5xx_hal_pka.c ****     /* Move the result to appropriate location (indicated in outExt parameter) */
 907:../../Drivers/STM32L5xx_HAL_Driver/Src/stm32l5xx_hal_pka.c ****     PKA_Memcpy_u32_to_u8(outExt->ptX, &hpka->Instance->RAM[PKA_ECDSA_SIGN_OUT_FINAL_POINT_X], size)
 908:../../Drivers/STM32L5xx_HAL_Driver/Src/stm32l5xx_hal_pka.c ****     PKA_Memcpy_u32_to_u8(outExt->ptY, &hpka->Instance->RAM[PKA_ECDSA_SIGN_OUT_FINAL_POINT_Y], size)
 909:../../Drivers/STM32L5xx_HAL_Driver/Src/stm32l5xx_hal_pka.c ****   }
 910:../../Drivers/STM32L5xx_HAL_Driver/Src/stm32l5xx_hal_pka.c **** }
 911:../../Drivers/STM32L5xx_HAL_Driver/Src/stm32l5xx_hal_pka.c **** 
 912:../../Drivers/STM32L5xx_HAL_Driver/Src/stm32l5xx_hal_pka.c **** /**
 913:../../Drivers/STM32L5xx_HAL_Driver/Src/stm32l5xx_hal_pka.c ****   * @brief  Verify the validity of a signature using elliptic curves over prime fields in blocking 
 914:../../Drivers/STM32L5xx_HAL_Driver/Src/stm32l5xx_hal_pka.c ****   * @param  hpka PKA handle
 915:../../Drivers/STM32L5xx_HAL_Driver/Src/stm32l5xx_hal_pka.c ****   * @param  in Input information
ARM GAS  /tmp/cc0Rn02K.s 			page 23


 916:../../Drivers/STM32L5xx_HAL_Driver/Src/stm32l5xx_hal_pka.c ****   * @param  Timeout Timeout duration
 917:../../Drivers/STM32L5xx_HAL_Driver/Src/stm32l5xx_hal_pka.c ****   * @retval HAL status
 918:../../Drivers/STM32L5xx_HAL_Driver/Src/stm32l5xx_hal_pka.c ****   */
 919:../../Drivers/STM32L5xx_HAL_Driver/Src/stm32l5xx_hal_pka.c **** HAL_StatusTypeDef HAL_PKA_ECDSAVerif(PKA_HandleTypeDef *hpka, PKA_ECDSAVerifInTypeDef *in, uint32_t
 920:../../Drivers/STM32L5xx_HAL_Driver/Src/stm32l5xx_hal_pka.c **** {
 921:../../Drivers/STM32L5xx_HAL_Driver/Src/stm32l5xx_hal_pka.c ****   /* Set input parameter in PKA RAM */
 922:../../Drivers/STM32L5xx_HAL_Driver/Src/stm32l5xx_hal_pka.c ****   PKA_ECDSAVerif_Set(hpka, in);
 923:../../Drivers/STM32L5xx_HAL_Driver/Src/stm32l5xx_hal_pka.c **** 
 924:../../Drivers/STM32L5xx_HAL_Driver/Src/stm32l5xx_hal_pka.c ****   /* Start the operation */
 925:../../Drivers/STM32L5xx_HAL_Driver/Src/stm32l5xx_hal_pka.c ****   return PKA_Process(hpka, PKA_MODE_ECDSA_VERIFICATION, Timeout);
 926:../../Drivers/STM32L5xx_HAL_Driver/Src/stm32l5xx_hal_pka.c **** }
 927:../../Drivers/STM32L5xx_HAL_Driver/Src/stm32l5xx_hal_pka.c **** 
 928:../../Drivers/STM32L5xx_HAL_Driver/Src/stm32l5xx_hal_pka.c **** /**
 929:../../Drivers/STM32L5xx_HAL_Driver/Src/stm32l5xx_hal_pka.c ****   * @brief  Verify the validity of a signature using elliptic curves
 930:../../Drivers/STM32L5xx_HAL_Driver/Src/stm32l5xx_hal_pka.c ****   *         over prime fields in non-blocking mode with Interrupt.
 931:../../Drivers/STM32L5xx_HAL_Driver/Src/stm32l5xx_hal_pka.c ****   * @param  hpka PKA handle
 932:../../Drivers/STM32L5xx_HAL_Driver/Src/stm32l5xx_hal_pka.c ****   * @param  in Input information
 933:../../Drivers/STM32L5xx_HAL_Driver/Src/stm32l5xx_hal_pka.c ****   * @retval HAL status
 934:../../Drivers/STM32L5xx_HAL_Driver/Src/stm32l5xx_hal_pka.c ****   */
 935:../../Drivers/STM32L5xx_HAL_Driver/Src/stm32l5xx_hal_pka.c **** HAL_StatusTypeDef HAL_PKA_ECDSAVerif_IT(PKA_HandleTypeDef *hpka, PKA_ECDSAVerifInTypeDef *in)
 936:../../Drivers/STM32L5xx_HAL_Driver/Src/stm32l5xx_hal_pka.c **** {
 937:../../Drivers/STM32L5xx_HAL_Driver/Src/stm32l5xx_hal_pka.c ****   /* Set input parameter in PKA RAM */
 938:../../Drivers/STM32L5xx_HAL_Driver/Src/stm32l5xx_hal_pka.c ****   PKA_ECDSAVerif_Set(hpka, in);
 939:../../Drivers/STM32L5xx_HAL_Driver/Src/stm32l5xx_hal_pka.c **** 
 940:../../Drivers/STM32L5xx_HAL_Driver/Src/stm32l5xx_hal_pka.c ****   /* Start the operation */
 941:../../Drivers/STM32L5xx_HAL_Driver/Src/stm32l5xx_hal_pka.c ****   return PKA_Process_IT(hpka, PKA_MODE_ECDSA_VERIFICATION);
 942:../../Drivers/STM32L5xx_HAL_Driver/Src/stm32l5xx_hal_pka.c **** }
 943:../../Drivers/STM32L5xx_HAL_Driver/Src/stm32l5xx_hal_pka.c **** 
 944:../../Drivers/STM32L5xx_HAL_Driver/Src/stm32l5xx_hal_pka.c **** /**
 945:../../Drivers/STM32L5xx_HAL_Driver/Src/stm32l5xx_hal_pka.c ****   * @brief  Return the result of the ECDSA verification operation.
 946:../../Drivers/STM32L5xx_HAL_Driver/Src/stm32l5xx_hal_pka.c ****   * @param  hpka PKA handle
 947:../../Drivers/STM32L5xx_HAL_Driver/Src/stm32l5xx_hal_pka.c ****   * @retval 1 if signature is verified, 0 in other case
 948:../../Drivers/STM32L5xx_HAL_Driver/Src/stm32l5xx_hal_pka.c ****   */
 949:../../Drivers/STM32L5xx_HAL_Driver/Src/stm32l5xx_hal_pka.c **** uint32_t HAL_PKA_ECDSAVerif_IsValidSignature(PKA_HandleTypeDef const *const hpka)
 950:../../Drivers/STM32L5xx_HAL_Driver/Src/stm32l5xx_hal_pka.c **** {
 281              		.loc 1 950 1 is_stmt 1 view -0
 282              		.cfi_startproc
 283              		@ args = 0, pretend = 0, frame = 0
 284              		@ frame_needed = 0, uses_anonymous_args = 0
 285              		@ link register save eliminated.
 951:../../Drivers/STM32L5xx_HAL_Driver/Src/stm32l5xx_hal_pka.c ****   /* Invert the state of the PKA RAM bit containing the result of the operation */
 952:../../Drivers/STM32L5xx_HAL_Driver/Src/stm32l5xx_hal_pka.c ****   return (hpka->Instance->RAM[PKA_ECDSA_VERIF_OUT_RESULT] == 0UL) ? 1UL : 0UL;
 286              		.loc 1 952 3 view .LVU75
 287              		.loc 1 952 15 is_stmt 0 view .LVU76
 288 0000 0368     		ldr	r3, [r0]
 289              		.loc 1 952 30 view .LVU77
 290 0002 D3F8B035 		ldr	r3, [r3, #1456]
 291              		.loc 1 952 73 view .LVU78
 292 0006 0BB9     		cbnz	r3, .L27
 293 0008 0120     		movs	r0, #1
 294              	.LVL20:
 295              		.loc 1 952 73 view .LVU79
 296 000a 7047     		bx	lr
 297              	.LVL21:
 298              	.L27:
 299              		.loc 1 952 73 view .LVU80
 300 000c 0020     		movs	r0, #0
ARM GAS  /tmp/cc0Rn02K.s 			page 24


 301              	.LVL22:
 953:../../Drivers/STM32L5xx_HAL_Driver/Src/stm32l5xx_hal_pka.c **** }
 302              		.loc 1 953 1 view .LVU81
 303 000e 7047     		bx	lr
 304              		.cfi_endproc
 305              	.LFE216:
 307              		.section	.text.HAL_PKA_PointCheck_IsOnCurve,"ax",%progbits
 308              		.align	1
 309              		.global	HAL_PKA_PointCheck_IsOnCurve
 310              		.syntax unified
 311              		.thumb
 312              		.thumb_func
 314              	HAL_PKA_PointCheck_IsOnCurve:
 315              	.LVL23:
 316              	.LFB222:
 954:../../Drivers/STM32L5xx_HAL_Driver/Src/stm32l5xx_hal_pka.c **** 
 955:../../Drivers/STM32L5xx_HAL_Driver/Src/stm32l5xx_hal_pka.c **** /**
 956:../../Drivers/STM32L5xx_HAL_Driver/Src/stm32l5xx_hal_pka.c ****   * @brief  RSA CRT exponentiation in blocking mode.
 957:../../Drivers/STM32L5xx_HAL_Driver/Src/stm32l5xx_hal_pka.c ****   * @param  hpka PKA handle
 958:../../Drivers/STM32L5xx_HAL_Driver/Src/stm32l5xx_hal_pka.c ****   * @param  in Input information
 959:../../Drivers/STM32L5xx_HAL_Driver/Src/stm32l5xx_hal_pka.c ****   * @param  Timeout Timeout duration
 960:../../Drivers/STM32L5xx_HAL_Driver/Src/stm32l5xx_hal_pka.c ****   * @retval HAL status
 961:../../Drivers/STM32L5xx_HAL_Driver/Src/stm32l5xx_hal_pka.c ****   */
 962:../../Drivers/STM32L5xx_HAL_Driver/Src/stm32l5xx_hal_pka.c **** HAL_StatusTypeDef HAL_PKA_RSACRTExp(PKA_HandleTypeDef *hpka, PKA_RSACRTExpInTypeDef *in, uint32_t T
 963:../../Drivers/STM32L5xx_HAL_Driver/Src/stm32l5xx_hal_pka.c **** {
 964:../../Drivers/STM32L5xx_HAL_Driver/Src/stm32l5xx_hal_pka.c ****   /* Set input parameter in PKA RAM */
 965:../../Drivers/STM32L5xx_HAL_Driver/Src/stm32l5xx_hal_pka.c ****   PKA_RSACRTExp_Set(hpka, in);
 966:../../Drivers/STM32L5xx_HAL_Driver/Src/stm32l5xx_hal_pka.c **** 
 967:../../Drivers/STM32L5xx_HAL_Driver/Src/stm32l5xx_hal_pka.c ****   /* Start the operation */
 968:../../Drivers/STM32L5xx_HAL_Driver/Src/stm32l5xx_hal_pka.c ****   return PKA_Process(hpka, PKA_MODE_RSA_CRT_EXP, Timeout);
 969:../../Drivers/STM32L5xx_HAL_Driver/Src/stm32l5xx_hal_pka.c **** }
 970:../../Drivers/STM32L5xx_HAL_Driver/Src/stm32l5xx_hal_pka.c **** 
 971:../../Drivers/STM32L5xx_HAL_Driver/Src/stm32l5xx_hal_pka.c **** /**
 972:../../Drivers/STM32L5xx_HAL_Driver/Src/stm32l5xx_hal_pka.c ****   * @brief  RSA CRT exponentiation in non-blocking mode with Interrupt.
 973:../../Drivers/STM32L5xx_HAL_Driver/Src/stm32l5xx_hal_pka.c ****   * @param  hpka PKA handle
 974:../../Drivers/STM32L5xx_HAL_Driver/Src/stm32l5xx_hal_pka.c ****   * @param  in Input information
 975:../../Drivers/STM32L5xx_HAL_Driver/Src/stm32l5xx_hal_pka.c ****   * @retval HAL status
 976:../../Drivers/STM32L5xx_HAL_Driver/Src/stm32l5xx_hal_pka.c ****   */
 977:../../Drivers/STM32L5xx_HAL_Driver/Src/stm32l5xx_hal_pka.c **** HAL_StatusTypeDef HAL_PKA_RSACRTExp_IT(PKA_HandleTypeDef *hpka, PKA_RSACRTExpInTypeDef *in)
 978:../../Drivers/STM32L5xx_HAL_Driver/Src/stm32l5xx_hal_pka.c **** {
 979:../../Drivers/STM32L5xx_HAL_Driver/Src/stm32l5xx_hal_pka.c ****   /* Set input parameter in PKA RAM */
 980:../../Drivers/STM32L5xx_HAL_Driver/Src/stm32l5xx_hal_pka.c ****   PKA_RSACRTExp_Set(hpka, in);
 981:../../Drivers/STM32L5xx_HAL_Driver/Src/stm32l5xx_hal_pka.c **** 
 982:../../Drivers/STM32L5xx_HAL_Driver/Src/stm32l5xx_hal_pka.c ****   /* Start the operation */
 983:../../Drivers/STM32L5xx_HAL_Driver/Src/stm32l5xx_hal_pka.c ****   return PKA_Process_IT(hpka, PKA_MODE_RSA_CRT_EXP);
 984:../../Drivers/STM32L5xx_HAL_Driver/Src/stm32l5xx_hal_pka.c **** }
 985:../../Drivers/STM32L5xx_HAL_Driver/Src/stm32l5xx_hal_pka.c **** 
 986:../../Drivers/STM32L5xx_HAL_Driver/Src/stm32l5xx_hal_pka.c **** /**
 987:../../Drivers/STM32L5xx_HAL_Driver/Src/stm32l5xx_hal_pka.c ****   * @brief  Retrieve operation result.
 988:../../Drivers/STM32L5xx_HAL_Driver/Src/stm32l5xx_hal_pka.c ****   * @param  hpka PKA handle
 989:../../Drivers/STM32L5xx_HAL_Driver/Src/stm32l5xx_hal_pka.c ****   * @param  pRes Pointer to memory location to receive the result of the operation
 990:../../Drivers/STM32L5xx_HAL_Driver/Src/stm32l5xx_hal_pka.c ****   * @retval HAL status
 991:../../Drivers/STM32L5xx_HAL_Driver/Src/stm32l5xx_hal_pka.c ****   */
 992:../../Drivers/STM32L5xx_HAL_Driver/Src/stm32l5xx_hal_pka.c **** void HAL_PKA_RSACRTExp_GetResult(PKA_HandleTypeDef *hpka, uint8_t *pRes)
 993:../../Drivers/STM32L5xx_HAL_Driver/Src/stm32l5xx_hal_pka.c **** {
 994:../../Drivers/STM32L5xx_HAL_Driver/Src/stm32l5xx_hal_pka.c ****   uint32_t size;
 995:../../Drivers/STM32L5xx_HAL_Driver/Src/stm32l5xx_hal_pka.c **** 
ARM GAS  /tmp/cc0Rn02K.s 			page 25


 996:../../Drivers/STM32L5xx_HAL_Driver/Src/stm32l5xx_hal_pka.c ****   /* Move the result to appropriate location (indicated in out parameter) */
 997:../../Drivers/STM32L5xx_HAL_Driver/Src/stm32l5xx_hal_pka.c ****   size = (hpka->Instance->RAM[PKA_RSA_CRT_EXP_IN_MOD_NB_BITS] + 7UL) / 8UL;
 998:../../Drivers/STM32L5xx_HAL_Driver/Src/stm32l5xx_hal_pka.c **** 
 999:../../Drivers/STM32L5xx_HAL_Driver/Src/stm32l5xx_hal_pka.c ****   PKA_Memcpy_u32_to_u8(pRes, &hpka->Instance->RAM[PKA_RSA_CRT_EXP_OUT_RESULT], size);
1000:../../Drivers/STM32L5xx_HAL_Driver/Src/stm32l5xx_hal_pka.c **** }
1001:../../Drivers/STM32L5xx_HAL_Driver/Src/stm32l5xx_hal_pka.c **** 
1002:../../Drivers/STM32L5xx_HAL_Driver/Src/stm32l5xx_hal_pka.c **** /**
1003:../../Drivers/STM32L5xx_HAL_Driver/Src/stm32l5xx_hal_pka.c ****   * @brief  Point on elliptic curve check in blocking mode.
1004:../../Drivers/STM32L5xx_HAL_Driver/Src/stm32l5xx_hal_pka.c ****   * @param  hpka PKA handle
1005:../../Drivers/STM32L5xx_HAL_Driver/Src/stm32l5xx_hal_pka.c ****   * @param  in Input information
1006:../../Drivers/STM32L5xx_HAL_Driver/Src/stm32l5xx_hal_pka.c ****   * @param  Timeout Timeout duration
1007:../../Drivers/STM32L5xx_HAL_Driver/Src/stm32l5xx_hal_pka.c ****   * @retval HAL status
1008:../../Drivers/STM32L5xx_HAL_Driver/Src/stm32l5xx_hal_pka.c ****   */
1009:../../Drivers/STM32L5xx_HAL_Driver/Src/stm32l5xx_hal_pka.c **** HAL_StatusTypeDef HAL_PKA_PointCheck(PKA_HandleTypeDef *hpka, PKA_PointCheckInTypeDef *in, uint32_t
1010:../../Drivers/STM32L5xx_HAL_Driver/Src/stm32l5xx_hal_pka.c **** {
1011:../../Drivers/STM32L5xx_HAL_Driver/Src/stm32l5xx_hal_pka.c ****   /* Set input parameter in PKA RAM */
1012:../../Drivers/STM32L5xx_HAL_Driver/Src/stm32l5xx_hal_pka.c ****   PKA_PointCheck_Set(hpka, in);
1013:../../Drivers/STM32L5xx_HAL_Driver/Src/stm32l5xx_hal_pka.c **** 
1014:../../Drivers/STM32L5xx_HAL_Driver/Src/stm32l5xx_hal_pka.c ****   /* Start the operation */
1015:../../Drivers/STM32L5xx_HAL_Driver/Src/stm32l5xx_hal_pka.c ****   return PKA_Process(hpka, PKA_MODE_POINT_CHECK, Timeout);
1016:../../Drivers/STM32L5xx_HAL_Driver/Src/stm32l5xx_hal_pka.c **** }
1017:../../Drivers/STM32L5xx_HAL_Driver/Src/stm32l5xx_hal_pka.c **** 
1018:../../Drivers/STM32L5xx_HAL_Driver/Src/stm32l5xx_hal_pka.c **** /**
1019:../../Drivers/STM32L5xx_HAL_Driver/Src/stm32l5xx_hal_pka.c ****   * @brief  Point on elliptic curve check in non-blocking mode with Interrupt.
1020:../../Drivers/STM32L5xx_HAL_Driver/Src/stm32l5xx_hal_pka.c ****   * @param  hpka PKA handle
1021:../../Drivers/STM32L5xx_HAL_Driver/Src/stm32l5xx_hal_pka.c ****   * @param  in Input information
1022:../../Drivers/STM32L5xx_HAL_Driver/Src/stm32l5xx_hal_pka.c ****   * @retval HAL status
1023:../../Drivers/STM32L5xx_HAL_Driver/Src/stm32l5xx_hal_pka.c ****   */
1024:../../Drivers/STM32L5xx_HAL_Driver/Src/stm32l5xx_hal_pka.c **** HAL_StatusTypeDef HAL_PKA_PointCheck_IT(PKA_HandleTypeDef *hpka, PKA_PointCheckInTypeDef *in)
1025:../../Drivers/STM32L5xx_HAL_Driver/Src/stm32l5xx_hal_pka.c **** {
1026:../../Drivers/STM32L5xx_HAL_Driver/Src/stm32l5xx_hal_pka.c ****   /* Set input parameter in PKA RAM */
1027:../../Drivers/STM32L5xx_HAL_Driver/Src/stm32l5xx_hal_pka.c ****   PKA_PointCheck_Set(hpka, in);
1028:../../Drivers/STM32L5xx_HAL_Driver/Src/stm32l5xx_hal_pka.c **** 
1029:../../Drivers/STM32L5xx_HAL_Driver/Src/stm32l5xx_hal_pka.c ****   /* Start the operation */
1030:../../Drivers/STM32L5xx_HAL_Driver/Src/stm32l5xx_hal_pka.c ****   return PKA_Process_IT(hpka, PKA_MODE_POINT_CHECK);
1031:../../Drivers/STM32L5xx_HAL_Driver/Src/stm32l5xx_hal_pka.c **** }
1032:../../Drivers/STM32L5xx_HAL_Driver/Src/stm32l5xx_hal_pka.c **** 
1033:../../Drivers/STM32L5xx_HAL_Driver/Src/stm32l5xx_hal_pka.c **** /**
1034:../../Drivers/STM32L5xx_HAL_Driver/Src/stm32l5xx_hal_pka.c ****   * @brief  Return the result of the point check operation.
1035:../../Drivers/STM32L5xx_HAL_Driver/Src/stm32l5xx_hal_pka.c ****   * @param  hpka PKA handle
1036:../../Drivers/STM32L5xx_HAL_Driver/Src/stm32l5xx_hal_pka.c ****   * @retval 1 if point is on curve, 0 in other case
1037:../../Drivers/STM32L5xx_HAL_Driver/Src/stm32l5xx_hal_pka.c ****   */
1038:../../Drivers/STM32L5xx_HAL_Driver/Src/stm32l5xx_hal_pka.c **** uint32_t HAL_PKA_PointCheck_IsOnCurve(PKA_HandleTypeDef const *const hpka)
1039:../../Drivers/STM32L5xx_HAL_Driver/Src/stm32l5xx_hal_pka.c **** {
 317              		.loc 1 1039 1 is_stmt 1 view -0
 318              		.cfi_startproc
 319              		@ args = 0, pretend = 0, frame = 0
 320              		@ frame_needed = 0, uses_anonymous_args = 0
 321              		@ link register save eliminated.
1040:../../Drivers/STM32L5xx_HAL_Driver/Src/stm32l5xx_hal_pka.c **** #define PKA_POINT_IS_ON_CURVE 0UL
1041:../../Drivers/STM32L5xx_HAL_Driver/Src/stm32l5xx_hal_pka.c ****   /* Invert the value of the PKA RAM containing the result of the operation */
1042:../../Drivers/STM32L5xx_HAL_Driver/Src/stm32l5xx_hal_pka.c ****   return (hpka->Instance->RAM[PKA_POINT_CHECK_OUT_ERROR] == PKA_POINT_IS_ON_CURVE) ? 1UL : 0UL;
 322              		.loc 1 1042 3 view .LVU83
 323              		.loc 1 1042 15 is_stmt 0 view .LVU84
 324 0000 0368     		ldr	r3, [r0]
 325              		.loc 1 1042 30 view .LVU85
 326 0002 D3F80034 		ldr	r3, [r3, #1024]
ARM GAS  /tmp/cc0Rn02K.s 			page 26


 327              		.loc 1 1042 90 view .LVU86
 328 0006 0BB9     		cbnz	r3, .L30
 329 0008 0120     		movs	r0, #1
 330              	.LVL24:
 331              		.loc 1 1042 90 view .LVU87
 332 000a 7047     		bx	lr
 333              	.LVL25:
 334              	.L30:
 335              		.loc 1 1042 90 view .LVU88
 336 000c 0020     		movs	r0, #0
 337              	.LVL26:
1043:../../Drivers/STM32L5xx_HAL_Driver/Src/stm32l5xx_hal_pka.c **** }
 338              		.loc 1 1043 1 view .LVU89
 339 000e 7047     		bx	lr
 340              		.cfi_endproc
 341              	.LFE222:
 343              		.section	.text.HAL_PKA_Abort,"ax",%progbits
 344              		.align	1
 345              		.global	HAL_PKA_Abort
 346              		.syntax unified
 347              		.thumb
 348              		.thumb_func
 350              	HAL_PKA_Abort:
 351              	.LVL27:
 352              	.LFB250:
1044:../../Drivers/STM32L5xx_HAL_Driver/Src/stm32l5xx_hal_pka.c **** 
1045:../../Drivers/STM32L5xx_HAL_Driver/Src/stm32l5xx_hal_pka.c **** /**
1046:../../Drivers/STM32L5xx_HAL_Driver/Src/stm32l5xx_hal_pka.c ****   * @brief  ECC scalar multiplication in blocking mode.
1047:../../Drivers/STM32L5xx_HAL_Driver/Src/stm32l5xx_hal_pka.c ****   * @param  hpka PKA handle
1048:../../Drivers/STM32L5xx_HAL_Driver/Src/stm32l5xx_hal_pka.c ****   * @param  in Input information
1049:../../Drivers/STM32L5xx_HAL_Driver/Src/stm32l5xx_hal_pka.c ****   * @param  Timeout Timeout duration
1050:../../Drivers/STM32L5xx_HAL_Driver/Src/stm32l5xx_hal_pka.c ****   * @retval HAL status
1051:../../Drivers/STM32L5xx_HAL_Driver/Src/stm32l5xx_hal_pka.c ****   */
1052:../../Drivers/STM32L5xx_HAL_Driver/Src/stm32l5xx_hal_pka.c **** HAL_StatusTypeDef HAL_PKA_ECCMul(PKA_HandleTypeDef *hpka, PKA_ECCMulInTypeDef *in, uint32_t Timeout
1053:../../Drivers/STM32L5xx_HAL_Driver/Src/stm32l5xx_hal_pka.c **** {
1054:../../Drivers/STM32L5xx_HAL_Driver/Src/stm32l5xx_hal_pka.c ****   /* Set input parameter in PKA RAM */
1055:../../Drivers/STM32L5xx_HAL_Driver/Src/stm32l5xx_hal_pka.c ****   PKA_ECCMul_Set(hpka, in);
1056:../../Drivers/STM32L5xx_HAL_Driver/Src/stm32l5xx_hal_pka.c ****   /* Start the operation */
1057:../../Drivers/STM32L5xx_HAL_Driver/Src/stm32l5xx_hal_pka.c ****   return PKA_Process(hpka, PKA_MODE_ECC_MUL, Timeout);
1058:../../Drivers/STM32L5xx_HAL_Driver/Src/stm32l5xx_hal_pka.c **** }
1059:../../Drivers/STM32L5xx_HAL_Driver/Src/stm32l5xx_hal_pka.c **** 
1060:../../Drivers/STM32L5xx_HAL_Driver/Src/stm32l5xx_hal_pka.c **** /**
1061:../../Drivers/STM32L5xx_HAL_Driver/Src/stm32l5xx_hal_pka.c ****   * @brief  ECC scalar multiplication in non-blocking mode with Interrupt.
1062:../../Drivers/STM32L5xx_HAL_Driver/Src/stm32l5xx_hal_pka.c ****   * @param  hpka PKA handle
1063:../../Drivers/STM32L5xx_HAL_Driver/Src/stm32l5xx_hal_pka.c ****   * @param  in Input information
1064:../../Drivers/STM32L5xx_HAL_Driver/Src/stm32l5xx_hal_pka.c ****   * @retval HAL status
1065:../../Drivers/STM32L5xx_HAL_Driver/Src/stm32l5xx_hal_pka.c ****   */
1066:../../Drivers/STM32L5xx_HAL_Driver/Src/stm32l5xx_hal_pka.c **** HAL_StatusTypeDef HAL_PKA_ECCMul_IT(PKA_HandleTypeDef *hpka, PKA_ECCMulInTypeDef *in)
1067:../../Drivers/STM32L5xx_HAL_Driver/Src/stm32l5xx_hal_pka.c **** {
1068:../../Drivers/STM32L5xx_HAL_Driver/Src/stm32l5xx_hal_pka.c ****   /* Set input parameter in PKA RAM */
1069:../../Drivers/STM32L5xx_HAL_Driver/Src/stm32l5xx_hal_pka.c ****   PKA_ECCMul_Set(hpka, in);
1070:../../Drivers/STM32L5xx_HAL_Driver/Src/stm32l5xx_hal_pka.c ****   /* Start the operation */
1071:../../Drivers/STM32L5xx_HAL_Driver/Src/stm32l5xx_hal_pka.c ****   return PKA_Process_IT(hpka, PKA_MODE_ECC_MUL);
1072:../../Drivers/STM32L5xx_HAL_Driver/Src/stm32l5xx_hal_pka.c **** }
1073:../../Drivers/STM32L5xx_HAL_Driver/Src/stm32l5xx_hal_pka.c **** /**
1074:../../Drivers/STM32L5xx_HAL_Driver/Src/stm32l5xx_hal_pka.c ****   * @brief  ECC scalar multiplication in blocking mode.
1075:../../Drivers/STM32L5xx_HAL_Driver/Src/stm32l5xx_hal_pka.c ****   * @param  hpka PKA handle
ARM GAS  /tmp/cc0Rn02K.s 			page 27


1076:../../Drivers/STM32L5xx_HAL_Driver/Src/stm32l5xx_hal_pka.c ****   * @param  in Input information
1077:../../Drivers/STM32L5xx_HAL_Driver/Src/stm32l5xx_hal_pka.c ****   * @param  Timeout Timeout duration
1078:../../Drivers/STM32L5xx_HAL_Driver/Src/stm32l5xx_hal_pka.c ****   * @retval HAL status
1079:../../Drivers/STM32L5xx_HAL_Driver/Src/stm32l5xx_hal_pka.c ****   */
1080:../../Drivers/STM32L5xx_HAL_Driver/Src/stm32l5xx_hal_pka.c **** HAL_StatusTypeDef HAL_PKA_ECCMulFastMode(PKA_HandleTypeDef *hpka, PKA_ECCMulFastModeInTypeDef *in, 
1081:../../Drivers/STM32L5xx_HAL_Driver/Src/stm32l5xx_hal_pka.c **** {
1082:../../Drivers/STM32L5xx_HAL_Driver/Src/stm32l5xx_hal_pka.c ****   /* Set input parameter in PKA RAM */
1083:../../Drivers/STM32L5xx_HAL_Driver/Src/stm32l5xx_hal_pka.c ****   PKA_ECCMulFastMode_Set(hpka, in);
1084:../../Drivers/STM32L5xx_HAL_Driver/Src/stm32l5xx_hal_pka.c **** 
1085:../../Drivers/STM32L5xx_HAL_Driver/Src/stm32l5xx_hal_pka.c ****   /* Start the operation */
1086:../../Drivers/STM32L5xx_HAL_Driver/Src/stm32l5xx_hal_pka.c ****   return PKA_Process(hpka, PKA_MODE_ECC_MUL_FAST_MODE, Timeout);
1087:../../Drivers/STM32L5xx_HAL_Driver/Src/stm32l5xx_hal_pka.c **** }
1088:../../Drivers/STM32L5xx_HAL_Driver/Src/stm32l5xx_hal_pka.c **** 
1089:../../Drivers/STM32L5xx_HAL_Driver/Src/stm32l5xx_hal_pka.c **** /**
1090:../../Drivers/STM32L5xx_HAL_Driver/Src/stm32l5xx_hal_pka.c ****   * @brief  ECC scalar multiplication in non-blocking mode with Interrupt.
1091:../../Drivers/STM32L5xx_HAL_Driver/Src/stm32l5xx_hal_pka.c ****   * @param  hpka PKA handle
1092:../../Drivers/STM32L5xx_HAL_Driver/Src/stm32l5xx_hal_pka.c ****   * @param  in Input information
1093:../../Drivers/STM32L5xx_HAL_Driver/Src/stm32l5xx_hal_pka.c ****   * @retval HAL status
1094:../../Drivers/STM32L5xx_HAL_Driver/Src/stm32l5xx_hal_pka.c ****   */
1095:../../Drivers/STM32L5xx_HAL_Driver/Src/stm32l5xx_hal_pka.c **** HAL_StatusTypeDef HAL_PKA_ECCMulFastMode_IT(PKA_HandleTypeDef *hpka, PKA_ECCMulFastModeInTypeDef *i
1096:../../Drivers/STM32L5xx_HAL_Driver/Src/stm32l5xx_hal_pka.c **** {
1097:../../Drivers/STM32L5xx_HAL_Driver/Src/stm32l5xx_hal_pka.c ****   /* Set input parameter in PKA RAM */
1098:../../Drivers/STM32L5xx_HAL_Driver/Src/stm32l5xx_hal_pka.c ****   PKA_ECCMulFastMode_Set(hpka, in);
1099:../../Drivers/STM32L5xx_HAL_Driver/Src/stm32l5xx_hal_pka.c **** 
1100:../../Drivers/STM32L5xx_HAL_Driver/Src/stm32l5xx_hal_pka.c ****   /* Start the operation */
1101:../../Drivers/STM32L5xx_HAL_Driver/Src/stm32l5xx_hal_pka.c ****   return PKA_Process_IT(hpka, PKA_MODE_ECC_MUL_FAST_MODE);
1102:../../Drivers/STM32L5xx_HAL_Driver/Src/stm32l5xx_hal_pka.c **** }
1103:../../Drivers/STM32L5xx_HAL_Driver/Src/stm32l5xx_hal_pka.c **** /**
1104:../../Drivers/STM32L5xx_HAL_Driver/Src/stm32l5xx_hal_pka.c ****   * @brief  Retrieve operation result.
1105:../../Drivers/STM32L5xx_HAL_Driver/Src/stm32l5xx_hal_pka.c ****   * @param  hpka PKA handle
1106:../../Drivers/STM32L5xx_HAL_Driver/Src/stm32l5xx_hal_pka.c ****   * @param  out Output information
1107:../../Drivers/STM32L5xx_HAL_Driver/Src/stm32l5xx_hal_pka.c ****   * @retval HAL status
1108:../../Drivers/STM32L5xx_HAL_Driver/Src/stm32l5xx_hal_pka.c ****   */
1109:../../Drivers/STM32L5xx_HAL_Driver/Src/stm32l5xx_hal_pka.c **** void HAL_PKA_ECCMul_GetResult(PKA_HandleTypeDef *hpka, PKA_ECCMulOutTypeDef *out)
1110:../../Drivers/STM32L5xx_HAL_Driver/Src/stm32l5xx_hal_pka.c **** {
1111:../../Drivers/STM32L5xx_HAL_Driver/Src/stm32l5xx_hal_pka.c ****   uint32_t size;
1112:../../Drivers/STM32L5xx_HAL_Driver/Src/stm32l5xx_hal_pka.c **** 
1113:../../Drivers/STM32L5xx_HAL_Driver/Src/stm32l5xx_hal_pka.c ****   /* Retrieve the size of the array from the PKA RAM */
1114:../../Drivers/STM32L5xx_HAL_Driver/Src/stm32l5xx_hal_pka.c ****   size = (hpka->Instance->RAM[PKA_ECC_SCALAR_MUL_IN_OP_NB_BITS] + 7UL) / 8UL;
1115:../../Drivers/STM32L5xx_HAL_Driver/Src/stm32l5xx_hal_pka.c **** 
1116:../../Drivers/STM32L5xx_HAL_Driver/Src/stm32l5xx_hal_pka.c ****   /* If a destination buffer is provided */
1117:../../Drivers/STM32L5xx_HAL_Driver/Src/stm32l5xx_hal_pka.c ****   if (out != NULL)
1118:../../Drivers/STM32L5xx_HAL_Driver/Src/stm32l5xx_hal_pka.c ****   {
1119:../../Drivers/STM32L5xx_HAL_Driver/Src/stm32l5xx_hal_pka.c ****     /* Move the result to appropriate location (indicated in out parameter) */
1120:../../Drivers/STM32L5xx_HAL_Driver/Src/stm32l5xx_hal_pka.c ****     PKA_Memcpy_u32_to_u8(out->ptX, &hpka->Instance->RAM[PKA_ECC_SCALAR_MUL_OUT_RESULT_X], size);
1121:../../Drivers/STM32L5xx_HAL_Driver/Src/stm32l5xx_hal_pka.c ****     PKA_Memcpy_u32_to_u8(out->ptY, &hpka->Instance->RAM[PKA_ECC_SCALAR_MUL_OUT_RESULT_Y], size);
1122:../../Drivers/STM32L5xx_HAL_Driver/Src/stm32l5xx_hal_pka.c ****   }
1123:../../Drivers/STM32L5xx_HAL_Driver/Src/stm32l5xx_hal_pka.c **** }
1124:../../Drivers/STM32L5xx_HAL_Driver/Src/stm32l5xx_hal_pka.c **** 
1125:../../Drivers/STM32L5xx_HAL_Driver/Src/stm32l5xx_hal_pka.c **** /**
1126:../../Drivers/STM32L5xx_HAL_Driver/Src/stm32l5xx_hal_pka.c ****   * @brief  Arithmetic addition in blocking mode.
1127:../../Drivers/STM32L5xx_HAL_Driver/Src/stm32l5xx_hal_pka.c ****   * @param  hpka PKA handle
1128:../../Drivers/STM32L5xx_HAL_Driver/Src/stm32l5xx_hal_pka.c ****   * @param  in Input information
1129:../../Drivers/STM32L5xx_HAL_Driver/Src/stm32l5xx_hal_pka.c ****   * @param  Timeout Timeout duration
1130:../../Drivers/STM32L5xx_HAL_Driver/Src/stm32l5xx_hal_pka.c ****   * @retval HAL status
1131:../../Drivers/STM32L5xx_HAL_Driver/Src/stm32l5xx_hal_pka.c ****   */
1132:../../Drivers/STM32L5xx_HAL_Driver/Src/stm32l5xx_hal_pka.c **** HAL_StatusTypeDef HAL_PKA_Add(PKA_HandleTypeDef *hpka, PKA_AddInTypeDef *in, uint32_t Timeout)
ARM GAS  /tmp/cc0Rn02K.s 			page 28


1133:../../Drivers/STM32L5xx_HAL_Driver/Src/stm32l5xx_hal_pka.c **** {
1134:../../Drivers/STM32L5xx_HAL_Driver/Src/stm32l5xx_hal_pka.c ****   /* Set input parameter in PKA RAM */
1135:../../Drivers/STM32L5xx_HAL_Driver/Src/stm32l5xx_hal_pka.c ****   PKA_ARI_Set(hpka, in->size, in->pOp1, in->pOp2, NULL);
1136:../../Drivers/STM32L5xx_HAL_Driver/Src/stm32l5xx_hal_pka.c **** 
1137:../../Drivers/STM32L5xx_HAL_Driver/Src/stm32l5xx_hal_pka.c ****   /* Start the operation */
1138:../../Drivers/STM32L5xx_HAL_Driver/Src/stm32l5xx_hal_pka.c ****   return PKA_Process(hpka, PKA_MODE_ARITHMETIC_ADD, Timeout);
1139:../../Drivers/STM32L5xx_HAL_Driver/Src/stm32l5xx_hal_pka.c **** }
1140:../../Drivers/STM32L5xx_HAL_Driver/Src/stm32l5xx_hal_pka.c **** 
1141:../../Drivers/STM32L5xx_HAL_Driver/Src/stm32l5xx_hal_pka.c **** /**
1142:../../Drivers/STM32L5xx_HAL_Driver/Src/stm32l5xx_hal_pka.c ****   * @brief  Arithmetic addition in non-blocking mode with Interrupt.
1143:../../Drivers/STM32L5xx_HAL_Driver/Src/stm32l5xx_hal_pka.c ****   * @param  hpka PKA handle
1144:../../Drivers/STM32L5xx_HAL_Driver/Src/stm32l5xx_hal_pka.c ****   * @param  in Input information
1145:../../Drivers/STM32L5xx_HAL_Driver/Src/stm32l5xx_hal_pka.c ****   * @retval HAL status
1146:../../Drivers/STM32L5xx_HAL_Driver/Src/stm32l5xx_hal_pka.c ****   */
1147:../../Drivers/STM32L5xx_HAL_Driver/Src/stm32l5xx_hal_pka.c **** HAL_StatusTypeDef HAL_PKA_Add_IT(PKA_HandleTypeDef *hpka, PKA_AddInTypeDef *in)
1148:../../Drivers/STM32L5xx_HAL_Driver/Src/stm32l5xx_hal_pka.c **** {
1149:../../Drivers/STM32L5xx_HAL_Driver/Src/stm32l5xx_hal_pka.c ****   /* Set input parameter in PKA RAM */
1150:../../Drivers/STM32L5xx_HAL_Driver/Src/stm32l5xx_hal_pka.c ****   PKA_ARI_Set(hpka, in->size, in->pOp1, in->pOp2, NULL);
1151:../../Drivers/STM32L5xx_HAL_Driver/Src/stm32l5xx_hal_pka.c **** 
1152:../../Drivers/STM32L5xx_HAL_Driver/Src/stm32l5xx_hal_pka.c ****   /* Start the operation */
1153:../../Drivers/STM32L5xx_HAL_Driver/Src/stm32l5xx_hal_pka.c ****   return PKA_Process_IT(hpka, PKA_MODE_ARITHMETIC_ADD);
1154:../../Drivers/STM32L5xx_HAL_Driver/Src/stm32l5xx_hal_pka.c **** }
1155:../../Drivers/STM32L5xx_HAL_Driver/Src/stm32l5xx_hal_pka.c **** 
1156:../../Drivers/STM32L5xx_HAL_Driver/Src/stm32l5xx_hal_pka.c **** /**
1157:../../Drivers/STM32L5xx_HAL_Driver/Src/stm32l5xx_hal_pka.c ****   * @brief  Arithmetic subtraction in blocking mode.
1158:../../Drivers/STM32L5xx_HAL_Driver/Src/stm32l5xx_hal_pka.c ****   * @param  hpka PKA handle
1159:../../Drivers/STM32L5xx_HAL_Driver/Src/stm32l5xx_hal_pka.c ****   * @param  in Input information
1160:../../Drivers/STM32L5xx_HAL_Driver/Src/stm32l5xx_hal_pka.c ****   * @param  Timeout Timeout duration
1161:../../Drivers/STM32L5xx_HAL_Driver/Src/stm32l5xx_hal_pka.c ****   * @retval HAL status
1162:../../Drivers/STM32L5xx_HAL_Driver/Src/stm32l5xx_hal_pka.c ****   */
1163:../../Drivers/STM32L5xx_HAL_Driver/Src/stm32l5xx_hal_pka.c **** HAL_StatusTypeDef HAL_PKA_Sub(PKA_HandleTypeDef *hpka, PKA_SubInTypeDef *in, uint32_t Timeout)
1164:../../Drivers/STM32L5xx_HAL_Driver/Src/stm32l5xx_hal_pka.c **** {
1165:../../Drivers/STM32L5xx_HAL_Driver/Src/stm32l5xx_hal_pka.c ****   /* Set input parameter in PKA RAM */
1166:../../Drivers/STM32L5xx_HAL_Driver/Src/stm32l5xx_hal_pka.c ****   PKA_ARI_Set(hpka, in->size, in->pOp1, in->pOp2, NULL);
1167:../../Drivers/STM32L5xx_HAL_Driver/Src/stm32l5xx_hal_pka.c **** 
1168:../../Drivers/STM32L5xx_HAL_Driver/Src/stm32l5xx_hal_pka.c ****   /* Start the operation */
1169:../../Drivers/STM32L5xx_HAL_Driver/Src/stm32l5xx_hal_pka.c ****   return PKA_Process(hpka, PKA_MODE_ARITHMETIC_SUB, Timeout);
1170:../../Drivers/STM32L5xx_HAL_Driver/Src/stm32l5xx_hal_pka.c **** }
1171:../../Drivers/STM32L5xx_HAL_Driver/Src/stm32l5xx_hal_pka.c **** 
1172:../../Drivers/STM32L5xx_HAL_Driver/Src/stm32l5xx_hal_pka.c **** /**
1173:../../Drivers/STM32L5xx_HAL_Driver/Src/stm32l5xx_hal_pka.c ****   * @brief  Arithmetic subtraction in non-blocking mode with Interrupt.
1174:../../Drivers/STM32L5xx_HAL_Driver/Src/stm32l5xx_hal_pka.c ****   * @param  hpka PKA handle
1175:../../Drivers/STM32L5xx_HAL_Driver/Src/stm32l5xx_hal_pka.c ****   * @param  in Input information
1176:../../Drivers/STM32L5xx_HAL_Driver/Src/stm32l5xx_hal_pka.c ****   * @retval HAL status
1177:../../Drivers/STM32L5xx_HAL_Driver/Src/stm32l5xx_hal_pka.c ****   */
1178:../../Drivers/STM32L5xx_HAL_Driver/Src/stm32l5xx_hal_pka.c **** HAL_StatusTypeDef HAL_PKA_Sub_IT(PKA_HandleTypeDef *hpka, PKA_SubInTypeDef *in)
1179:../../Drivers/STM32L5xx_HAL_Driver/Src/stm32l5xx_hal_pka.c **** {
1180:../../Drivers/STM32L5xx_HAL_Driver/Src/stm32l5xx_hal_pka.c ****   /* Set input parameter in PKA RAM */
1181:../../Drivers/STM32L5xx_HAL_Driver/Src/stm32l5xx_hal_pka.c ****   PKA_ARI_Set(hpka, in->size, in->pOp1, in->pOp2, NULL);
1182:../../Drivers/STM32L5xx_HAL_Driver/Src/stm32l5xx_hal_pka.c **** 
1183:../../Drivers/STM32L5xx_HAL_Driver/Src/stm32l5xx_hal_pka.c ****   /* Start the operation */
1184:../../Drivers/STM32L5xx_HAL_Driver/Src/stm32l5xx_hal_pka.c ****   return PKA_Process_IT(hpka, PKA_MODE_ARITHMETIC_SUB);
1185:../../Drivers/STM32L5xx_HAL_Driver/Src/stm32l5xx_hal_pka.c **** }
1186:../../Drivers/STM32L5xx_HAL_Driver/Src/stm32l5xx_hal_pka.c **** 
1187:../../Drivers/STM32L5xx_HAL_Driver/Src/stm32l5xx_hal_pka.c **** /**
1188:../../Drivers/STM32L5xx_HAL_Driver/Src/stm32l5xx_hal_pka.c ****   * @brief  Arithmetic multiplication in blocking mode.
1189:../../Drivers/STM32L5xx_HAL_Driver/Src/stm32l5xx_hal_pka.c ****   * @param  hpka PKA handle
ARM GAS  /tmp/cc0Rn02K.s 			page 29


1190:../../Drivers/STM32L5xx_HAL_Driver/Src/stm32l5xx_hal_pka.c ****   * @param  in Input information
1191:../../Drivers/STM32L5xx_HAL_Driver/Src/stm32l5xx_hal_pka.c ****   * @param  Timeout Timeout duration
1192:../../Drivers/STM32L5xx_HAL_Driver/Src/stm32l5xx_hal_pka.c ****   * @retval HAL status
1193:../../Drivers/STM32L5xx_HAL_Driver/Src/stm32l5xx_hal_pka.c ****   */
1194:../../Drivers/STM32L5xx_HAL_Driver/Src/stm32l5xx_hal_pka.c **** HAL_StatusTypeDef HAL_PKA_Mul(PKA_HandleTypeDef *hpka, PKA_MulInTypeDef *in, uint32_t Timeout)
1195:../../Drivers/STM32L5xx_HAL_Driver/Src/stm32l5xx_hal_pka.c **** {
1196:../../Drivers/STM32L5xx_HAL_Driver/Src/stm32l5xx_hal_pka.c ****   /* Set input parameter in PKA RAM */
1197:../../Drivers/STM32L5xx_HAL_Driver/Src/stm32l5xx_hal_pka.c ****   PKA_ARI_Set(hpka, in->size, in->pOp1, in->pOp2, NULL);
1198:../../Drivers/STM32L5xx_HAL_Driver/Src/stm32l5xx_hal_pka.c **** 
1199:../../Drivers/STM32L5xx_HAL_Driver/Src/stm32l5xx_hal_pka.c ****   /* Start the operation */
1200:../../Drivers/STM32L5xx_HAL_Driver/Src/stm32l5xx_hal_pka.c ****   return PKA_Process(hpka, PKA_MODE_ARITHMETIC_MUL, Timeout);
1201:../../Drivers/STM32L5xx_HAL_Driver/Src/stm32l5xx_hal_pka.c **** }
1202:../../Drivers/STM32L5xx_HAL_Driver/Src/stm32l5xx_hal_pka.c **** 
1203:../../Drivers/STM32L5xx_HAL_Driver/Src/stm32l5xx_hal_pka.c **** /**
1204:../../Drivers/STM32L5xx_HAL_Driver/Src/stm32l5xx_hal_pka.c ****   * @brief  Arithmetic multiplication in non-blocking mode with Interrupt.
1205:../../Drivers/STM32L5xx_HAL_Driver/Src/stm32l5xx_hal_pka.c ****   * @param  hpka PKA handle
1206:../../Drivers/STM32L5xx_HAL_Driver/Src/stm32l5xx_hal_pka.c ****   * @param  in Input information
1207:../../Drivers/STM32L5xx_HAL_Driver/Src/stm32l5xx_hal_pka.c ****   * @retval HAL status
1208:../../Drivers/STM32L5xx_HAL_Driver/Src/stm32l5xx_hal_pka.c ****   */
1209:../../Drivers/STM32L5xx_HAL_Driver/Src/stm32l5xx_hal_pka.c **** HAL_StatusTypeDef HAL_PKA_Mul_IT(PKA_HandleTypeDef *hpka, PKA_MulInTypeDef *in)
1210:../../Drivers/STM32L5xx_HAL_Driver/Src/stm32l5xx_hal_pka.c **** {
1211:../../Drivers/STM32L5xx_HAL_Driver/Src/stm32l5xx_hal_pka.c ****   /* Set input parameter in PKA RAM */
1212:../../Drivers/STM32L5xx_HAL_Driver/Src/stm32l5xx_hal_pka.c ****   PKA_ARI_Set(hpka, in->size, in->pOp1, in->pOp2, NULL);
1213:../../Drivers/STM32L5xx_HAL_Driver/Src/stm32l5xx_hal_pka.c **** 
1214:../../Drivers/STM32L5xx_HAL_Driver/Src/stm32l5xx_hal_pka.c ****   /* Start the operation */
1215:../../Drivers/STM32L5xx_HAL_Driver/Src/stm32l5xx_hal_pka.c ****   return PKA_Process_IT(hpka, PKA_MODE_ARITHMETIC_MUL);
1216:../../Drivers/STM32L5xx_HAL_Driver/Src/stm32l5xx_hal_pka.c **** }
1217:../../Drivers/STM32L5xx_HAL_Driver/Src/stm32l5xx_hal_pka.c **** 
1218:../../Drivers/STM32L5xx_HAL_Driver/Src/stm32l5xx_hal_pka.c **** /**
1219:../../Drivers/STM32L5xx_HAL_Driver/Src/stm32l5xx_hal_pka.c ****   * @brief  Comparison in blocking mode.
1220:../../Drivers/STM32L5xx_HAL_Driver/Src/stm32l5xx_hal_pka.c ****   * @param  hpka PKA handle
1221:../../Drivers/STM32L5xx_HAL_Driver/Src/stm32l5xx_hal_pka.c ****   * @param  in Input information
1222:../../Drivers/STM32L5xx_HAL_Driver/Src/stm32l5xx_hal_pka.c ****   * @param  Timeout Timeout duration
1223:../../Drivers/STM32L5xx_HAL_Driver/Src/stm32l5xx_hal_pka.c ****   * @retval HAL status
1224:../../Drivers/STM32L5xx_HAL_Driver/Src/stm32l5xx_hal_pka.c ****   */
1225:../../Drivers/STM32L5xx_HAL_Driver/Src/stm32l5xx_hal_pka.c **** HAL_StatusTypeDef HAL_PKA_Cmp(PKA_HandleTypeDef *hpka, PKA_CmpInTypeDef *in, uint32_t Timeout)
1226:../../Drivers/STM32L5xx_HAL_Driver/Src/stm32l5xx_hal_pka.c **** {
1227:../../Drivers/STM32L5xx_HAL_Driver/Src/stm32l5xx_hal_pka.c ****   /* Set input parameter in PKA RAM */
1228:../../Drivers/STM32L5xx_HAL_Driver/Src/stm32l5xx_hal_pka.c ****   PKA_ARI_Set(hpka, in->size, in->pOp1, in->pOp2, NULL);
1229:../../Drivers/STM32L5xx_HAL_Driver/Src/stm32l5xx_hal_pka.c **** 
1230:../../Drivers/STM32L5xx_HAL_Driver/Src/stm32l5xx_hal_pka.c ****   /* Start the operation */
1231:../../Drivers/STM32L5xx_HAL_Driver/Src/stm32l5xx_hal_pka.c ****   return PKA_Process(hpka, PKA_MODE_COMPARISON, Timeout);
1232:../../Drivers/STM32L5xx_HAL_Driver/Src/stm32l5xx_hal_pka.c **** }
1233:../../Drivers/STM32L5xx_HAL_Driver/Src/stm32l5xx_hal_pka.c **** 
1234:../../Drivers/STM32L5xx_HAL_Driver/Src/stm32l5xx_hal_pka.c **** /**
1235:../../Drivers/STM32L5xx_HAL_Driver/Src/stm32l5xx_hal_pka.c ****   * @brief  Comparison in non-blocking mode with Interrupt.
1236:../../Drivers/STM32L5xx_HAL_Driver/Src/stm32l5xx_hal_pka.c ****   * @param  hpka PKA handle
1237:../../Drivers/STM32L5xx_HAL_Driver/Src/stm32l5xx_hal_pka.c ****   * @param  in Input information
1238:../../Drivers/STM32L5xx_HAL_Driver/Src/stm32l5xx_hal_pka.c ****   * @retval HAL status
1239:../../Drivers/STM32L5xx_HAL_Driver/Src/stm32l5xx_hal_pka.c ****   */
1240:../../Drivers/STM32L5xx_HAL_Driver/Src/stm32l5xx_hal_pka.c **** HAL_StatusTypeDef HAL_PKA_Cmp_IT(PKA_HandleTypeDef *hpka, PKA_CmpInTypeDef *in)
1241:../../Drivers/STM32L5xx_HAL_Driver/Src/stm32l5xx_hal_pka.c **** {
1242:../../Drivers/STM32L5xx_HAL_Driver/Src/stm32l5xx_hal_pka.c ****   /* Set input parameter in PKA RAM */
1243:../../Drivers/STM32L5xx_HAL_Driver/Src/stm32l5xx_hal_pka.c ****   PKA_ARI_Set(hpka, in->size, in->pOp1, in->pOp2, NULL);
1244:../../Drivers/STM32L5xx_HAL_Driver/Src/stm32l5xx_hal_pka.c **** 
1245:../../Drivers/STM32L5xx_HAL_Driver/Src/stm32l5xx_hal_pka.c ****   /* Start the operation */
1246:../../Drivers/STM32L5xx_HAL_Driver/Src/stm32l5xx_hal_pka.c ****   return PKA_Process_IT(hpka, PKA_MODE_COMPARISON);
ARM GAS  /tmp/cc0Rn02K.s 			page 30


1247:../../Drivers/STM32L5xx_HAL_Driver/Src/stm32l5xx_hal_pka.c **** }
1248:../../Drivers/STM32L5xx_HAL_Driver/Src/stm32l5xx_hal_pka.c **** 
1249:../../Drivers/STM32L5xx_HAL_Driver/Src/stm32l5xx_hal_pka.c **** /**
1250:../../Drivers/STM32L5xx_HAL_Driver/Src/stm32l5xx_hal_pka.c ****   * @brief  Modular addition in blocking mode.
1251:../../Drivers/STM32L5xx_HAL_Driver/Src/stm32l5xx_hal_pka.c ****   * @param  hpka PKA handle
1252:../../Drivers/STM32L5xx_HAL_Driver/Src/stm32l5xx_hal_pka.c ****   * @param  in Input information
1253:../../Drivers/STM32L5xx_HAL_Driver/Src/stm32l5xx_hal_pka.c ****   * @param  Timeout Timeout duration
1254:../../Drivers/STM32L5xx_HAL_Driver/Src/stm32l5xx_hal_pka.c ****   * @retval HAL status
1255:../../Drivers/STM32L5xx_HAL_Driver/Src/stm32l5xx_hal_pka.c ****   */
1256:../../Drivers/STM32L5xx_HAL_Driver/Src/stm32l5xx_hal_pka.c **** HAL_StatusTypeDef HAL_PKA_ModAdd(PKA_HandleTypeDef *hpka, PKA_ModAddInTypeDef *in, uint32_t Timeout
1257:../../Drivers/STM32L5xx_HAL_Driver/Src/stm32l5xx_hal_pka.c **** {
1258:../../Drivers/STM32L5xx_HAL_Driver/Src/stm32l5xx_hal_pka.c ****   /* Set input parameter in PKA RAM */
1259:../../Drivers/STM32L5xx_HAL_Driver/Src/stm32l5xx_hal_pka.c ****   PKA_ARI_Set(hpka, in->size, in->pOp1, in->pOp2, in->pOp3);
1260:../../Drivers/STM32L5xx_HAL_Driver/Src/stm32l5xx_hal_pka.c **** 
1261:../../Drivers/STM32L5xx_HAL_Driver/Src/stm32l5xx_hal_pka.c ****   /* Start the operation */
1262:../../Drivers/STM32L5xx_HAL_Driver/Src/stm32l5xx_hal_pka.c ****   return PKA_Process(hpka, PKA_MODE_MODULAR_ADD, Timeout);
1263:../../Drivers/STM32L5xx_HAL_Driver/Src/stm32l5xx_hal_pka.c **** }
1264:../../Drivers/STM32L5xx_HAL_Driver/Src/stm32l5xx_hal_pka.c **** 
1265:../../Drivers/STM32L5xx_HAL_Driver/Src/stm32l5xx_hal_pka.c **** /**
1266:../../Drivers/STM32L5xx_HAL_Driver/Src/stm32l5xx_hal_pka.c ****   * @brief  Modular addition in non-blocking mode with Interrupt.
1267:../../Drivers/STM32L5xx_HAL_Driver/Src/stm32l5xx_hal_pka.c ****   * @param  hpka PKA handle
1268:../../Drivers/STM32L5xx_HAL_Driver/Src/stm32l5xx_hal_pka.c ****   * @param  in Input information
1269:../../Drivers/STM32L5xx_HAL_Driver/Src/stm32l5xx_hal_pka.c ****   * @retval HAL status
1270:../../Drivers/STM32L5xx_HAL_Driver/Src/stm32l5xx_hal_pka.c ****   */
1271:../../Drivers/STM32L5xx_HAL_Driver/Src/stm32l5xx_hal_pka.c **** HAL_StatusTypeDef HAL_PKA_ModAdd_IT(PKA_HandleTypeDef *hpka, PKA_ModAddInTypeDef *in)
1272:../../Drivers/STM32L5xx_HAL_Driver/Src/stm32l5xx_hal_pka.c **** {
1273:../../Drivers/STM32L5xx_HAL_Driver/Src/stm32l5xx_hal_pka.c ****   /* Set input parameter in PKA RAM */
1274:../../Drivers/STM32L5xx_HAL_Driver/Src/stm32l5xx_hal_pka.c ****   PKA_ARI_Set(hpka, in->size, in->pOp1, in->pOp2, in->pOp3);
1275:../../Drivers/STM32L5xx_HAL_Driver/Src/stm32l5xx_hal_pka.c **** 
1276:../../Drivers/STM32L5xx_HAL_Driver/Src/stm32l5xx_hal_pka.c ****   /* Start the operation */
1277:../../Drivers/STM32L5xx_HAL_Driver/Src/stm32l5xx_hal_pka.c ****   return PKA_Process_IT(hpka, PKA_MODE_MODULAR_ADD);
1278:../../Drivers/STM32L5xx_HAL_Driver/Src/stm32l5xx_hal_pka.c **** }
1279:../../Drivers/STM32L5xx_HAL_Driver/Src/stm32l5xx_hal_pka.c **** 
1280:../../Drivers/STM32L5xx_HAL_Driver/Src/stm32l5xx_hal_pka.c **** /**
1281:../../Drivers/STM32L5xx_HAL_Driver/Src/stm32l5xx_hal_pka.c ****   * @brief  Modular inversion in blocking mode.
1282:../../Drivers/STM32L5xx_HAL_Driver/Src/stm32l5xx_hal_pka.c ****   * @param  hpka PKA handle
1283:../../Drivers/STM32L5xx_HAL_Driver/Src/stm32l5xx_hal_pka.c ****   * @param  in Input information
1284:../../Drivers/STM32L5xx_HAL_Driver/Src/stm32l5xx_hal_pka.c ****   * @param  Timeout Timeout duration
1285:../../Drivers/STM32L5xx_HAL_Driver/Src/stm32l5xx_hal_pka.c ****   * @retval HAL status
1286:../../Drivers/STM32L5xx_HAL_Driver/Src/stm32l5xx_hal_pka.c ****   */
1287:../../Drivers/STM32L5xx_HAL_Driver/Src/stm32l5xx_hal_pka.c **** HAL_StatusTypeDef HAL_PKA_ModInv(PKA_HandleTypeDef *hpka, PKA_ModInvInTypeDef *in, uint32_t Timeout
1288:../../Drivers/STM32L5xx_HAL_Driver/Src/stm32l5xx_hal_pka.c **** {
1289:../../Drivers/STM32L5xx_HAL_Driver/Src/stm32l5xx_hal_pka.c ****   /* Set input parameter in PKA RAM */
1290:../../Drivers/STM32L5xx_HAL_Driver/Src/stm32l5xx_hal_pka.c ****   PKA_ModInv_Set(hpka, in);
1291:../../Drivers/STM32L5xx_HAL_Driver/Src/stm32l5xx_hal_pka.c **** 
1292:../../Drivers/STM32L5xx_HAL_Driver/Src/stm32l5xx_hal_pka.c ****   /* Start the operation */
1293:../../Drivers/STM32L5xx_HAL_Driver/Src/stm32l5xx_hal_pka.c ****   return PKA_Process(hpka, PKA_MODE_MODULAR_INV, Timeout);
1294:../../Drivers/STM32L5xx_HAL_Driver/Src/stm32l5xx_hal_pka.c **** }
1295:../../Drivers/STM32L5xx_HAL_Driver/Src/stm32l5xx_hal_pka.c **** 
1296:../../Drivers/STM32L5xx_HAL_Driver/Src/stm32l5xx_hal_pka.c **** /**
1297:../../Drivers/STM32L5xx_HAL_Driver/Src/stm32l5xx_hal_pka.c ****   * @brief  Modular inversion in non-blocking mode with Interrupt.
1298:../../Drivers/STM32L5xx_HAL_Driver/Src/stm32l5xx_hal_pka.c ****   * @param  hpka PKA handle
1299:../../Drivers/STM32L5xx_HAL_Driver/Src/stm32l5xx_hal_pka.c ****   * @param  in Input information
1300:../../Drivers/STM32L5xx_HAL_Driver/Src/stm32l5xx_hal_pka.c ****   * @retval HAL status
1301:../../Drivers/STM32L5xx_HAL_Driver/Src/stm32l5xx_hal_pka.c ****   */
1302:../../Drivers/STM32L5xx_HAL_Driver/Src/stm32l5xx_hal_pka.c **** HAL_StatusTypeDef HAL_PKA_ModInv_IT(PKA_HandleTypeDef *hpka, PKA_ModInvInTypeDef *in)
1303:../../Drivers/STM32L5xx_HAL_Driver/Src/stm32l5xx_hal_pka.c **** {
ARM GAS  /tmp/cc0Rn02K.s 			page 31


1304:../../Drivers/STM32L5xx_HAL_Driver/Src/stm32l5xx_hal_pka.c ****   /* Set input parameter in PKA RAM */
1305:../../Drivers/STM32L5xx_HAL_Driver/Src/stm32l5xx_hal_pka.c ****   PKA_ModInv_Set(hpka, in);
1306:../../Drivers/STM32L5xx_HAL_Driver/Src/stm32l5xx_hal_pka.c **** 
1307:../../Drivers/STM32L5xx_HAL_Driver/Src/stm32l5xx_hal_pka.c ****   /* Start the operation */
1308:../../Drivers/STM32L5xx_HAL_Driver/Src/stm32l5xx_hal_pka.c ****   return PKA_Process_IT(hpka, PKA_MODE_MODULAR_INV);
1309:../../Drivers/STM32L5xx_HAL_Driver/Src/stm32l5xx_hal_pka.c **** }
1310:../../Drivers/STM32L5xx_HAL_Driver/Src/stm32l5xx_hal_pka.c **** 
1311:../../Drivers/STM32L5xx_HAL_Driver/Src/stm32l5xx_hal_pka.c **** /**
1312:../../Drivers/STM32L5xx_HAL_Driver/Src/stm32l5xx_hal_pka.c ****   * @brief  Modular subtraction in blocking mode.
1313:../../Drivers/STM32L5xx_HAL_Driver/Src/stm32l5xx_hal_pka.c ****   * @param  hpka PKA handle
1314:../../Drivers/STM32L5xx_HAL_Driver/Src/stm32l5xx_hal_pka.c ****   * @param  in Input information
1315:../../Drivers/STM32L5xx_HAL_Driver/Src/stm32l5xx_hal_pka.c ****   * @param  Timeout Timeout duration
1316:../../Drivers/STM32L5xx_HAL_Driver/Src/stm32l5xx_hal_pka.c ****   * @retval HAL status
1317:../../Drivers/STM32L5xx_HAL_Driver/Src/stm32l5xx_hal_pka.c ****   */
1318:../../Drivers/STM32L5xx_HAL_Driver/Src/stm32l5xx_hal_pka.c **** HAL_StatusTypeDef HAL_PKA_ModSub(PKA_HandleTypeDef *hpka, PKA_ModSubInTypeDef *in, uint32_t Timeout
1319:../../Drivers/STM32L5xx_HAL_Driver/Src/stm32l5xx_hal_pka.c **** {
1320:../../Drivers/STM32L5xx_HAL_Driver/Src/stm32l5xx_hal_pka.c ****   /* Set input parameter in PKA RAM */
1321:../../Drivers/STM32L5xx_HAL_Driver/Src/stm32l5xx_hal_pka.c ****   PKA_ARI_Set(hpka, in->size, in->pOp1, in->pOp2, in->pOp3);
1322:../../Drivers/STM32L5xx_HAL_Driver/Src/stm32l5xx_hal_pka.c **** 
1323:../../Drivers/STM32L5xx_HAL_Driver/Src/stm32l5xx_hal_pka.c ****   /* Start the operation */
1324:../../Drivers/STM32L5xx_HAL_Driver/Src/stm32l5xx_hal_pka.c ****   return PKA_Process(hpka, PKA_MODE_MODULAR_SUB, Timeout);
1325:../../Drivers/STM32L5xx_HAL_Driver/Src/stm32l5xx_hal_pka.c **** }
1326:../../Drivers/STM32L5xx_HAL_Driver/Src/stm32l5xx_hal_pka.c **** 
1327:../../Drivers/STM32L5xx_HAL_Driver/Src/stm32l5xx_hal_pka.c **** /**
1328:../../Drivers/STM32L5xx_HAL_Driver/Src/stm32l5xx_hal_pka.c ****   * @brief  Modular subtraction in non-blocking mode with Interrupt.
1329:../../Drivers/STM32L5xx_HAL_Driver/Src/stm32l5xx_hal_pka.c ****   * @param  hpka PKA handle
1330:../../Drivers/STM32L5xx_HAL_Driver/Src/stm32l5xx_hal_pka.c ****   * @param  in Input information
1331:../../Drivers/STM32L5xx_HAL_Driver/Src/stm32l5xx_hal_pka.c ****   * @retval HAL status
1332:../../Drivers/STM32L5xx_HAL_Driver/Src/stm32l5xx_hal_pka.c ****   */
1333:../../Drivers/STM32L5xx_HAL_Driver/Src/stm32l5xx_hal_pka.c **** HAL_StatusTypeDef HAL_PKA_ModSub_IT(PKA_HandleTypeDef *hpka, PKA_ModSubInTypeDef *in)
1334:../../Drivers/STM32L5xx_HAL_Driver/Src/stm32l5xx_hal_pka.c **** {
1335:../../Drivers/STM32L5xx_HAL_Driver/Src/stm32l5xx_hal_pka.c ****   /* Set input parameter in PKA RAM */
1336:../../Drivers/STM32L5xx_HAL_Driver/Src/stm32l5xx_hal_pka.c ****   PKA_ARI_Set(hpka, in->size, in->pOp1, in->pOp2, in->pOp3);
1337:../../Drivers/STM32L5xx_HAL_Driver/Src/stm32l5xx_hal_pka.c **** 
1338:../../Drivers/STM32L5xx_HAL_Driver/Src/stm32l5xx_hal_pka.c ****   /* Start the operation */
1339:../../Drivers/STM32L5xx_HAL_Driver/Src/stm32l5xx_hal_pka.c ****   return PKA_Process_IT(hpka, PKA_MODE_MODULAR_SUB);
1340:../../Drivers/STM32L5xx_HAL_Driver/Src/stm32l5xx_hal_pka.c **** }
1341:../../Drivers/STM32L5xx_HAL_Driver/Src/stm32l5xx_hal_pka.c **** 
1342:../../Drivers/STM32L5xx_HAL_Driver/Src/stm32l5xx_hal_pka.c **** /**
1343:../../Drivers/STM32L5xx_HAL_Driver/Src/stm32l5xx_hal_pka.c ****   * @brief  Modular reduction in blocking mode.
1344:../../Drivers/STM32L5xx_HAL_Driver/Src/stm32l5xx_hal_pka.c ****   * @param  hpka PKA handle
1345:../../Drivers/STM32L5xx_HAL_Driver/Src/stm32l5xx_hal_pka.c ****   * @param  in Input information
1346:../../Drivers/STM32L5xx_HAL_Driver/Src/stm32l5xx_hal_pka.c ****   * @param  Timeout Timeout duration
1347:../../Drivers/STM32L5xx_HAL_Driver/Src/stm32l5xx_hal_pka.c ****   * @retval HAL status
1348:../../Drivers/STM32L5xx_HAL_Driver/Src/stm32l5xx_hal_pka.c ****   */
1349:../../Drivers/STM32L5xx_HAL_Driver/Src/stm32l5xx_hal_pka.c **** HAL_StatusTypeDef HAL_PKA_ModRed(PKA_HandleTypeDef *hpka, PKA_ModRedInTypeDef *in, uint32_t Timeout
1350:../../Drivers/STM32L5xx_HAL_Driver/Src/stm32l5xx_hal_pka.c **** {
1351:../../Drivers/STM32L5xx_HAL_Driver/Src/stm32l5xx_hal_pka.c ****   /* Set input parameter in PKA RAM */
1352:../../Drivers/STM32L5xx_HAL_Driver/Src/stm32l5xx_hal_pka.c ****   PKA_ModRed_Set(hpka, in);
1353:../../Drivers/STM32L5xx_HAL_Driver/Src/stm32l5xx_hal_pka.c **** 
1354:../../Drivers/STM32L5xx_HAL_Driver/Src/stm32l5xx_hal_pka.c ****   /* Start the operation */
1355:../../Drivers/STM32L5xx_HAL_Driver/Src/stm32l5xx_hal_pka.c ****   return PKA_Process(hpka, PKA_MODE_MODULAR_RED, Timeout);
1356:../../Drivers/STM32L5xx_HAL_Driver/Src/stm32l5xx_hal_pka.c **** }
1357:../../Drivers/STM32L5xx_HAL_Driver/Src/stm32l5xx_hal_pka.c **** 
1358:../../Drivers/STM32L5xx_HAL_Driver/Src/stm32l5xx_hal_pka.c **** /**
1359:../../Drivers/STM32L5xx_HAL_Driver/Src/stm32l5xx_hal_pka.c ****   * @brief  Modular reduction in non-blocking mode with Interrupt.
1360:../../Drivers/STM32L5xx_HAL_Driver/Src/stm32l5xx_hal_pka.c ****   * @param  hpka PKA handle
ARM GAS  /tmp/cc0Rn02K.s 			page 32


1361:../../Drivers/STM32L5xx_HAL_Driver/Src/stm32l5xx_hal_pka.c ****   * @param  in Input information
1362:../../Drivers/STM32L5xx_HAL_Driver/Src/stm32l5xx_hal_pka.c ****   * @retval HAL status
1363:../../Drivers/STM32L5xx_HAL_Driver/Src/stm32l5xx_hal_pka.c ****   */
1364:../../Drivers/STM32L5xx_HAL_Driver/Src/stm32l5xx_hal_pka.c **** HAL_StatusTypeDef HAL_PKA_ModRed_IT(PKA_HandleTypeDef *hpka, PKA_ModRedInTypeDef *in)
1365:../../Drivers/STM32L5xx_HAL_Driver/Src/stm32l5xx_hal_pka.c **** {
1366:../../Drivers/STM32L5xx_HAL_Driver/Src/stm32l5xx_hal_pka.c ****   /* Set input parameter in PKA RAM */
1367:../../Drivers/STM32L5xx_HAL_Driver/Src/stm32l5xx_hal_pka.c ****   PKA_ModRed_Set(hpka, in);
1368:../../Drivers/STM32L5xx_HAL_Driver/Src/stm32l5xx_hal_pka.c **** 
1369:../../Drivers/STM32L5xx_HAL_Driver/Src/stm32l5xx_hal_pka.c ****   /* Start the operation */
1370:../../Drivers/STM32L5xx_HAL_Driver/Src/stm32l5xx_hal_pka.c ****   return PKA_Process_IT(hpka, PKA_MODE_MODULAR_RED);
1371:../../Drivers/STM32L5xx_HAL_Driver/Src/stm32l5xx_hal_pka.c **** }
1372:../../Drivers/STM32L5xx_HAL_Driver/Src/stm32l5xx_hal_pka.c **** 
1373:../../Drivers/STM32L5xx_HAL_Driver/Src/stm32l5xx_hal_pka.c **** /**
1374:../../Drivers/STM32L5xx_HAL_Driver/Src/stm32l5xx_hal_pka.c ****   * @brief  Montgomery multiplication in blocking mode.
1375:../../Drivers/STM32L5xx_HAL_Driver/Src/stm32l5xx_hal_pka.c ****   * @param  hpka PKA handle
1376:../../Drivers/STM32L5xx_HAL_Driver/Src/stm32l5xx_hal_pka.c ****   * @param  in Input information
1377:../../Drivers/STM32L5xx_HAL_Driver/Src/stm32l5xx_hal_pka.c ****   * @param  Timeout Timeout duration
1378:../../Drivers/STM32L5xx_HAL_Driver/Src/stm32l5xx_hal_pka.c ****   * @retval HAL status
1379:../../Drivers/STM32L5xx_HAL_Driver/Src/stm32l5xx_hal_pka.c ****   */
1380:../../Drivers/STM32L5xx_HAL_Driver/Src/stm32l5xx_hal_pka.c **** HAL_StatusTypeDef HAL_PKA_MontgomeryMul(PKA_HandleTypeDef *hpka, PKA_MontgomeryMulInTypeDef *in, ui
1381:../../Drivers/STM32L5xx_HAL_Driver/Src/stm32l5xx_hal_pka.c **** {
1382:../../Drivers/STM32L5xx_HAL_Driver/Src/stm32l5xx_hal_pka.c ****   /* Set input parameter in PKA RAM */
1383:../../Drivers/STM32L5xx_HAL_Driver/Src/stm32l5xx_hal_pka.c ****   PKA_ARI_Set(hpka, in->size, in->pOp1, in->pOp2, in->pOp3);
1384:../../Drivers/STM32L5xx_HAL_Driver/Src/stm32l5xx_hal_pka.c **** 
1385:../../Drivers/STM32L5xx_HAL_Driver/Src/stm32l5xx_hal_pka.c ****   /* Start the operation */
1386:../../Drivers/STM32L5xx_HAL_Driver/Src/stm32l5xx_hal_pka.c ****   return PKA_Process(hpka, PKA_MODE_MONTGOMERY_MUL, Timeout);
1387:../../Drivers/STM32L5xx_HAL_Driver/Src/stm32l5xx_hal_pka.c **** }
1388:../../Drivers/STM32L5xx_HAL_Driver/Src/stm32l5xx_hal_pka.c **** 
1389:../../Drivers/STM32L5xx_HAL_Driver/Src/stm32l5xx_hal_pka.c **** /**
1390:../../Drivers/STM32L5xx_HAL_Driver/Src/stm32l5xx_hal_pka.c ****   * @brief  Montgomery multiplication in non-blocking mode with Interrupt.
1391:../../Drivers/STM32L5xx_HAL_Driver/Src/stm32l5xx_hal_pka.c ****   * @param  hpka PKA handle
1392:../../Drivers/STM32L5xx_HAL_Driver/Src/stm32l5xx_hal_pka.c ****   * @param  in Input information
1393:../../Drivers/STM32L5xx_HAL_Driver/Src/stm32l5xx_hal_pka.c ****   * @retval HAL status
1394:../../Drivers/STM32L5xx_HAL_Driver/Src/stm32l5xx_hal_pka.c ****   */
1395:../../Drivers/STM32L5xx_HAL_Driver/Src/stm32l5xx_hal_pka.c **** HAL_StatusTypeDef HAL_PKA_MontgomeryMul_IT(PKA_HandleTypeDef *hpka, PKA_MontgomeryMulInTypeDef *in)
1396:../../Drivers/STM32L5xx_HAL_Driver/Src/stm32l5xx_hal_pka.c **** {
1397:../../Drivers/STM32L5xx_HAL_Driver/Src/stm32l5xx_hal_pka.c ****   /* Set input parameter in PKA RAM */
1398:../../Drivers/STM32L5xx_HAL_Driver/Src/stm32l5xx_hal_pka.c ****   PKA_ARI_Set(hpka, in->size, in->pOp1, in->pOp2, in->pOp3);
1399:../../Drivers/STM32L5xx_HAL_Driver/Src/stm32l5xx_hal_pka.c **** 
1400:../../Drivers/STM32L5xx_HAL_Driver/Src/stm32l5xx_hal_pka.c ****   /* Start the operation */
1401:../../Drivers/STM32L5xx_HAL_Driver/Src/stm32l5xx_hal_pka.c ****   return PKA_Process_IT(hpka, PKA_MODE_MONTGOMERY_MUL);
1402:../../Drivers/STM32L5xx_HAL_Driver/Src/stm32l5xx_hal_pka.c **** }
1403:../../Drivers/STM32L5xx_HAL_Driver/Src/stm32l5xx_hal_pka.c **** 
1404:../../Drivers/STM32L5xx_HAL_Driver/Src/stm32l5xx_hal_pka.c **** /**
1405:../../Drivers/STM32L5xx_HAL_Driver/Src/stm32l5xx_hal_pka.c ****   * @brief  Retrieve operation result.
1406:../../Drivers/STM32L5xx_HAL_Driver/Src/stm32l5xx_hal_pka.c ****   * @param  hpka PKA handle
1407:../../Drivers/STM32L5xx_HAL_Driver/Src/stm32l5xx_hal_pka.c ****   * @param  pRes Pointer to memory location to receive the result of the operation
1408:../../Drivers/STM32L5xx_HAL_Driver/Src/stm32l5xx_hal_pka.c ****   */
1409:../../Drivers/STM32L5xx_HAL_Driver/Src/stm32l5xx_hal_pka.c **** void HAL_PKA_Arithmetic_GetResult(PKA_HandleTypeDef *hpka, uint32_t *pRes)
1410:../../Drivers/STM32L5xx_HAL_Driver/Src/stm32l5xx_hal_pka.c **** {
1411:../../Drivers/STM32L5xx_HAL_Driver/Src/stm32l5xx_hal_pka.c ****   uint32_t mode = (hpka->Instance->CR & PKA_CR_MODE_Msk) >> PKA_CR_MODE_Pos;
1412:../../Drivers/STM32L5xx_HAL_Driver/Src/stm32l5xx_hal_pka.c ****   uint32_t size = 0;
1413:../../Drivers/STM32L5xx_HAL_Driver/Src/stm32l5xx_hal_pka.c **** 
1414:../../Drivers/STM32L5xx_HAL_Driver/Src/stm32l5xx_hal_pka.c ****   /* Move the result to appropriate location (indicated in pRes parameter) */
1415:../../Drivers/STM32L5xx_HAL_Driver/Src/stm32l5xx_hal_pka.c ****   switch (mode)
1416:../../Drivers/STM32L5xx_HAL_Driver/Src/stm32l5xx_hal_pka.c ****   {
1417:../../Drivers/STM32L5xx_HAL_Driver/Src/stm32l5xx_hal_pka.c ****     case PKA_MODE_ARITHMETIC_SUB:
ARM GAS  /tmp/cc0Rn02K.s 			page 33


1418:../../Drivers/STM32L5xx_HAL_Driver/Src/stm32l5xx_hal_pka.c ****     case PKA_MODE_MODULAR_ADD:
1419:../../Drivers/STM32L5xx_HAL_Driver/Src/stm32l5xx_hal_pka.c ****     case PKA_MODE_MODULAR_RED:
1420:../../Drivers/STM32L5xx_HAL_Driver/Src/stm32l5xx_hal_pka.c ****     case PKA_MODE_MODULAR_INV:
1421:../../Drivers/STM32L5xx_HAL_Driver/Src/stm32l5xx_hal_pka.c ****     case PKA_MODE_MODULAR_SUB:
1422:../../Drivers/STM32L5xx_HAL_Driver/Src/stm32l5xx_hal_pka.c ****     case PKA_MODE_MONTGOMERY_MUL:
1423:../../Drivers/STM32L5xx_HAL_Driver/Src/stm32l5xx_hal_pka.c ****       size = hpka->Instance->RAM[1] / 32UL;
1424:../../Drivers/STM32L5xx_HAL_Driver/Src/stm32l5xx_hal_pka.c ****       break;
1425:../../Drivers/STM32L5xx_HAL_Driver/Src/stm32l5xx_hal_pka.c ****     case PKA_MODE_ARITHMETIC_ADD:
1426:../../Drivers/STM32L5xx_HAL_Driver/Src/stm32l5xx_hal_pka.c ****       size = hpka->Instance->RAM[1] / 32UL;
1427:../../Drivers/STM32L5xx_HAL_Driver/Src/stm32l5xx_hal_pka.c **** 
1428:../../Drivers/STM32L5xx_HAL_Driver/Src/stm32l5xx_hal_pka.c ****       /* Manage the overflow of the addition */
1429:../../Drivers/STM32L5xx_HAL_Driver/Src/stm32l5xx_hal_pka.c ****       if (hpka->Instance->RAM[500U + size] != 0UL)
1430:../../Drivers/STM32L5xx_HAL_Driver/Src/stm32l5xx_hal_pka.c ****       {
1431:../../Drivers/STM32L5xx_HAL_Driver/Src/stm32l5xx_hal_pka.c ****         size += 1UL;
1432:../../Drivers/STM32L5xx_HAL_Driver/Src/stm32l5xx_hal_pka.c ****       }
1433:../../Drivers/STM32L5xx_HAL_Driver/Src/stm32l5xx_hal_pka.c **** 
1434:../../Drivers/STM32L5xx_HAL_Driver/Src/stm32l5xx_hal_pka.c ****       break;
1435:../../Drivers/STM32L5xx_HAL_Driver/Src/stm32l5xx_hal_pka.c ****     case PKA_MODE_COMPARISON:
1436:../../Drivers/STM32L5xx_HAL_Driver/Src/stm32l5xx_hal_pka.c ****       size = 1;
1437:../../Drivers/STM32L5xx_HAL_Driver/Src/stm32l5xx_hal_pka.c ****       break;
1438:../../Drivers/STM32L5xx_HAL_Driver/Src/stm32l5xx_hal_pka.c ****     case PKA_MODE_ARITHMETIC_MUL:
1439:../../Drivers/STM32L5xx_HAL_Driver/Src/stm32l5xx_hal_pka.c ****       size = hpka->Instance->RAM[1] / 32UL * 2UL;
1440:../../Drivers/STM32L5xx_HAL_Driver/Src/stm32l5xx_hal_pka.c ****       break;
1441:../../Drivers/STM32L5xx_HAL_Driver/Src/stm32l5xx_hal_pka.c ****     default:
1442:../../Drivers/STM32L5xx_HAL_Driver/Src/stm32l5xx_hal_pka.c ****       break;
1443:../../Drivers/STM32L5xx_HAL_Driver/Src/stm32l5xx_hal_pka.c ****   }
1444:../../Drivers/STM32L5xx_HAL_Driver/Src/stm32l5xx_hal_pka.c **** 
1445:../../Drivers/STM32L5xx_HAL_Driver/Src/stm32l5xx_hal_pka.c ****   if (pRes != NULL)
1446:../../Drivers/STM32L5xx_HAL_Driver/Src/stm32l5xx_hal_pka.c ****   {
1447:../../Drivers/STM32L5xx_HAL_Driver/Src/stm32l5xx_hal_pka.c ****     switch (mode)
1448:../../Drivers/STM32L5xx_HAL_Driver/Src/stm32l5xx_hal_pka.c ****     {
1449:../../Drivers/STM32L5xx_HAL_Driver/Src/stm32l5xx_hal_pka.c ****       case PKA_MODE_ARITHMETIC_SUB:
1450:../../Drivers/STM32L5xx_HAL_Driver/Src/stm32l5xx_hal_pka.c ****       case PKA_MODE_MODULAR_ADD:
1451:../../Drivers/STM32L5xx_HAL_Driver/Src/stm32l5xx_hal_pka.c ****       case PKA_MODE_MODULAR_RED:
1452:../../Drivers/STM32L5xx_HAL_Driver/Src/stm32l5xx_hal_pka.c ****       case PKA_MODE_MODULAR_INV:
1453:../../Drivers/STM32L5xx_HAL_Driver/Src/stm32l5xx_hal_pka.c ****       case PKA_MODE_MODULAR_SUB:
1454:../../Drivers/STM32L5xx_HAL_Driver/Src/stm32l5xx_hal_pka.c ****       case PKA_MODE_MONTGOMERY_MUL:
1455:../../Drivers/STM32L5xx_HAL_Driver/Src/stm32l5xx_hal_pka.c ****       case PKA_MODE_ARITHMETIC_ADD:
1456:../../Drivers/STM32L5xx_HAL_Driver/Src/stm32l5xx_hal_pka.c ****       case PKA_MODE_COMPARISON:
1457:../../Drivers/STM32L5xx_HAL_Driver/Src/stm32l5xx_hal_pka.c ****       case PKA_MODE_ARITHMETIC_MUL:
1458:../../Drivers/STM32L5xx_HAL_Driver/Src/stm32l5xx_hal_pka.c ****         PKA_Memcpy_u32_to_u32(pRes, &hpka->Instance->RAM[PKA_ARITHMETIC_ALL_OPS_OUT_RESULT], size);
1459:../../Drivers/STM32L5xx_HAL_Driver/Src/stm32l5xx_hal_pka.c ****         break;
1460:../../Drivers/STM32L5xx_HAL_Driver/Src/stm32l5xx_hal_pka.c ****       default:
1461:../../Drivers/STM32L5xx_HAL_Driver/Src/stm32l5xx_hal_pka.c ****         break;
1462:../../Drivers/STM32L5xx_HAL_Driver/Src/stm32l5xx_hal_pka.c ****     }
1463:../../Drivers/STM32L5xx_HAL_Driver/Src/stm32l5xx_hal_pka.c ****   }
1464:../../Drivers/STM32L5xx_HAL_Driver/Src/stm32l5xx_hal_pka.c **** }
1465:../../Drivers/STM32L5xx_HAL_Driver/Src/stm32l5xx_hal_pka.c **** 
1466:../../Drivers/STM32L5xx_HAL_Driver/Src/stm32l5xx_hal_pka.c **** /**
1467:../../Drivers/STM32L5xx_HAL_Driver/Src/stm32l5xx_hal_pka.c ****   * @brief  Montgomery parameter computation in blocking mode.
1468:../../Drivers/STM32L5xx_HAL_Driver/Src/stm32l5xx_hal_pka.c ****   * @param  hpka PKA handle
1469:../../Drivers/STM32L5xx_HAL_Driver/Src/stm32l5xx_hal_pka.c ****   * @param  in Input information
1470:../../Drivers/STM32L5xx_HAL_Driver/Src/stm32l5xx_hal_pka.c ****   * @param  Timeout Timeout duration
1471:../../Drivers/STM32L5xx_HAL_Driver/Src/stm32l5xx_hal_pka.c ****   * @retval HAL status
1472:../../Drivers/STM32L5xx_HAL_Driver/Src/stm32l5xx_hal_pka.c ****   */
1473:../../Drivers/STM32L5xx_HAL_Driver/Src/stm32l5xx_hal_pka.c **** HAL_StatusTypeDef HAL_PKA_MontgomeryParam(PKA_HandleTypeDef *hpka, PKA_MontgomeryParamInTypeDef *in
1474:../../Drivers/STM32L5xx_HAL_Driver/Src/stm32l5xx_hal_pka.c **** {
ARM GAS  /tmp/cc0Rn02K.s 			page 34


1475:../../Drivers/STM32L5xx_HAL_Driver/Src/stm32l5xx_hal_pka.c ****   /* Set input parameter in PKA RAM */
1476:../../Drivers/STM32L5xx_HAL_Driver/Src/stm32l5xx_hal_pka.c ****   PKA_MontgomeryParam_Set(hpka, in->size, in->pOp1);
1477:../../Drivers/STM32L5xx_HAL_Driver/Src/stm32l5xx_hal_pka.c **** 
1478:../../Drivers/STM32L5xx_HAL_Driver/Src/stm32l5xx_hal_pka.c ****   /* Start the operation */
1479:../../Drivers/STM32L5xx_HAL_Driver/Src/stm32l5xx_hal_pka.c ****   return PKA_Process(hpka, PKA_MODE_MONTGOMERY_PARAM, Timeout);
1480:../../Drivers/STM32L5xx_HAL_Driver/Src/stm32l5xx_hal_pka.c **** }
1481:../../Drivers/STM32L5xx_HAL_Driver/Src/stm32l5xx_hal_pka.c **** 
1482:../../Drivers/STM32L5xx_HAL_Driver/Src/stm32l5xx_hal_pka.c **** /**
1483:../../Drivers/STM32L5xx_HAL_Driver/Src/stm32l5xx_hal_pka.c ****   * @brief  Montgomery parameter computation in non-blocking mode with Interrupt.
1484:../../Drivers/STM32L5xx_HAL_Driver/Src/stm32l5xx_hal_pka.c ****   * @param  hpka PKA handle
1485:../../Drivers/STM32L5xx_HAL_Driver/Src/stm32l5xx_hal_pka.c ****   * @param  in Input information
1486:../../Drivers/STM32L5xx_HAL_Driver/Src/stm32l5xx_hal_pka.c ****   * @retval HAL status
1487:../../Drivers/STM32L5xx_HAL_Driver/Src/stm32l5xx_hal_pka.c ****   */
1488:../../Drivers/STM32L5xx_HAL_Driver/Src/stm32l5xx_hal_pka.c **** HAL_StatusTypeDef HAL_PKA_MontgomeryParam_IT(PKA_HandleTypeDef *hpka, PKA_MontgomeryParamInTypeDef 
1489:../../Drivers/STM32L5xx_HAL_Driver/Src/stm32l5xx_hal_pka.c **** {
1490:../../Drivers/STM32L5xx_HAL_Driver/Src/stm32l5xx_hal_pka.c ****   /* Set input parameter in PKA RAM */
1491:../../Drivers/STM32L5xx_HAL_Driver/Src/stm32l5xx_hal_pka.c ****   PKA_MontgomeryParam_Set(hpka, in->size, in->pOp1);
1492:../../Drivers/STM32L5xx_HAL_Driver/Src/stm32l5xx_hal_pka.c **** 
1493:../../Drivers/STM32L5xx_HAL_Driver/Src/stm32l5xx_hal_pka.c ****   /* Start the operation */
1494:../../Drivers/STM32L5xx_HAL_Driver/Src/stm32l5xx_hal_pka.c ****   return PKA_Process_IT(hpka, PKA_MODE_MONTGOMERY_PARAM);
1495:../../Drivers/STM32L5xx_HAL_Driver/Src/stm32l5xx_hal_pka.c **** }
1496:../../Drivers/STM32L5xx_HAL_Driver/Src/stm32l5xx_hal_pka.c **** 
1497:../../Drivers/STM32L5xx_HAL_Driver/Src/stm32l5xx_hal_pka.c **** 
1498:../../Drivers/STM32L5xx_HAL_Driver/Src/stm32l5xx_hal_pka.c **** /**
1499:../../Drivers/STM32L5xx_HAL_Driver/Src/stm32l5xx_hal_pka.c ****   * @brief  Retrieve operation result.
1500:../../Drivers/STM32L5xx_HAL_Driver/Src/stm32l5xx_hal_pka.c ****   * @param  hpka PKA handle
1501:../../Drivers/STM32L5xx_HAL_Driver/Src/stm32l5xx_hal_pka.c ****   * @param  pRes pointer to buffer where the result will be copied
1502:../../Drivers/STM32L5xx_HAL_Driver/Src/stm32l5xx_hal_pka.c ****   * @retval HAL status
1503:../../Drivers/STM32L5xx_HAL_Driver/Src/stm32l5xx_hal_pka.c ****   */
1504:../../Drivers/STM32L5xx_HAL_Driver/Src/stm32l5xx_hal_pka.c **** void HAL_PKA_MontgomeryParam_GetResult(PKA_HandleTypeDef *hpka, uint32_t *pRes)
1505:../../Drivers/STM32L5xx_HAL_Driver/Src/stm32l5xx_hal_pka.c **** {
1506:../../Drivers/STM32L5xx_HAL_Driver/Src/stm32l5xx_hal_pka.c ****   uint32_t size;
1507:../../Drivers/STM32L5xx_HAL_Driver/Src/stm32l5xx_hal_pka.c **** 
1508:../../Drivers/STM32L5xx_HAL_Driver/Src/stm32l5xx_hal_pka.c ****   /* Retrieve the size of the buffer from the PKA RAM */
1509:../../Drivers/STM32L5xx_HAL_Driver/Src/stm32l5xx_hal_pka.c ****   size = (hpka->Instance->RAM[PKA_MONTGOMERY_PARAM_IN_MOD_NB_BITS] + 31UL) / 32UL;
1510:../../Drivers/STM32L5xx_HAL_Driver/Src/stm32l5xx_hal_pka.c **** 
1511:../../Drivers/STM32L5xx_HAL_Driver/Src/stm32l5xx_hal_pka.c ****   /* Move the result to appropriate location (indicated in out parameter) */
1512:../../Drivers/STM32L5xx_HAL_Driver/Src/stm32l5xx_hal_pka.c ****   PKA_Memcpy_u32_to_u32(pRes, &hpka->Instance->RAM[PKA_MONTGOMERY_PARAM_OUT_PARAMETER], size);
1513:../../Drivers/STM32L5xx_HAL_Driver/Src/stm32l5xx_hal_pka.c **** }
1514:../../Drivers/STM32L5xx_HAL_Driver/Src/stm32l5xx_hal_pka.c **** 
1515:../../Drivers/STM32L5xx_HAL_Driver/Src/stm32l5xx_hal_pka.c **** /**
1516:../../Drivers/STM32L5xx_HAL_Driver/Src/stm32l5xx_hal_pka.c ****   * @brief  Abort any ongoing operation.
1517:../../Drivers/STM32L5xx_HAL_Driver/Src/stm32l5xx_hal_pka.c ****   * @param  hpka PKA handle
1518:../../Drivers/STM32L5xx_HAL_Driver/Src/stm32l5xx_hal_pka.c ****   * @retval HAL status
1519:../../Drivers/STM32L5xx_HAL_Driver/Src/stm32l5xx_hal_pka.c ****   */
1520:../../Drivers/STM32L5xx_HAL_Driver/Src/stm32l5xx_hal_pka.c **** HAL_StatusTypeDef HAL_PKA_Abort(PKA_HandleTypeDef *hpka)
1521:../../Drivers/STM32L5xx_HAL_Driver/Src/stm32l5xx_hal_pka.c **** {
 353              		.loc 1 1521 1 is_stmt 1 view -0
 354              		.cfi_startproc
 355              		@ args = 0, pretend = 0, frame = 0
 356              		@ frame_needed = 0, uses_anonymous_args = 0
 357              		@ link register save eliminated.
 358              		.loc 1 1521 1 is_stmt 0 view .LVU91
 359 0000 0346     		mov	r3, r0
1522:../../Drivers/STM32L5xx_HAL_Driver/Src/stm32l5xx_hal_pka.c ****   HAL_StatusTypeDef err = HAL_OK;
 360              		.loc 1 1522 3 is_stmt 1 view .LVU92
 361              	.LVL28:
ARM GAS  /tmp/cc0Rn02K.s 			page 35


1523:../../Drivers/STM32L5xx_HAL_Driver/Src/stm32l5xx_hal_pka.c **** 
1524:../../Drivers/STM32L5xx_HAL_Driver/Src/stm32l5xx_hal_pka.c ****   /* Clear EN bit */
1525:../../Drivers/STM32L5xx_HAL_Driver/Src/stm32l5xx_hal_pka.c ****   /* This abort any operation in progress (PKA RAM content is not guaranteed in this case) */
1526:../../Drivers/STM32L5xx_HAL_Driver/Src/stm32l5xx_hal_pka.c ****   CLEAR_BIT(hpka->Instance->CR, PKA_CR_EN);
 362              		.loc 1 1526 3 view .LVU93
 363 0002 0168     		ldr	r1, [r0]
 364 0004 0A68     		ldr	r2, [r1]
 365 0006 22F00102 		bic	r2, r2, #1
 366 000a 0A60     		str	r2, [r1]
1527:../../Drivers/STM32L5xx_HAL_Driver/Src/stm32l5xx_hal_pka.c ****   SET_BIT(hpka->Instance->CR, PKA_CR_EN);
 367              		.loc 1 1527 3 view .LVU94
 368 000c 0168     		ldr	r1, [r0]
 369 000e 0A68     		ldr	r2, [r1]
 370 0010 42F00102 		orr	r2, r2, #1
 371 0014 0A60     		str	r2, [r1]
1528:../../Drivers/STM32L5xx_HAL_Driver/Src/stm32l5xx_hal_pka.c **** 
1529:../../Drivers/STM32L5xx_HAL_Driver/Src/stm32l5xx_hal_pka.c ****   /* Reset any pending flag */
1530:../../Drivers/STM32L5xx_HAL_Driver/Src/stm32l5xx_hal_pka.c ****   SET_BIT(hpka->Instance->CLRFR, PKA_CLRFR_PROCENDFC | PKA_CLRFR_RAMERRFC | PKA_CLRFR_ADDRERRFC);
 372              		.loc 1 1530 3 view .LVU95
 373 0016 0168     		ldr	r1, [r0]
 374 0018 8A68     		ldr	r2, [r1, #8]
 375 001a 42F4D012 		orr	r2, r2, #1703936
 376 001e 8A60     		str	r2, [r1, #8]
1531:../../Drivers/STM32L5xx_HAL_Driver/Src/stm32l5xx_hal_pka.c **** 
1532:../../Drivers/STM32L5xx_HAL_Driver/Src/stm32l5xx_hal_pka.c ****   /* Reset the error code */
1533:../../Drivers/STM32L5xx_HAL_Driver/Src/stm32l5xx_hal_pka.c ****   hpka->ErrorCode = HAL_PKA_ERROR_NONE;
 377              		.loc 1 1533 3 view .LVU96
 378              		.loc 1 1533 19 is_stmt 0 view .LVU97
 379 0020 0020     		movs	r0, #0
 380              	.LVL29:
 381              		.loc 1 1533 19 view .LVU98
 382 0022 9860     		str	r0, [r3, #8]
1534:../../Drivers/STM32L5xx_HAL_Driver/Src/stm32l5xx_hal_pka.c **** 
1535:../../Drivers/STM32L5xx_HAL_Driver/Src/stm32l5xx_hal_pka.c ****   /* Reset the state */
1536:../../Drivers/STM32L5xx_HAL_Driver/Src/stm32l5xx_hal_pka.c ****   hpka->State = HAL_PKA_STATE_READY;
 383              		.loc 1 1536 3 is_stmt 1 view .LVU99
 384              		.loc 1 1536 15 is_stmt 0 view .LVU100
 385 0024 0122     		movs	r2, #1
 386 0026 1A71     		strb	r2, [r3, #4]
1537:../../Drivers/STM32L5xx_HAL_Driver/Src/stm32l5xx_hal_pka.c **** 
1538:../../Drivers/STM32L5xx_HAL_Driver/Src/stm32l5xx_hal_pka.c ****   return err;
 387              		.loc 1 1538 3 is_stmt 1 view .LVU101
1539:../../Drivers/STM32L5xx_HAL_Driver/Src/stm32l5xx_hal_pka.c **** }
 388              		.loc 1 1539 1 is_stmt 0 view .LVU102
 389 0028 7047     		bx	lr
 390              		.cfi_endproc
 391              	.LFE250:
 393              		.section	.text.HAL_PKA_RAMReset,"ax",%progbits
 394              		.align	1
 395              		.global	HAL_PKA_RAMReset
 396              		.syntax unified
 397              		.thumb
 398              		.thumb_func
 400              	HAL_PKA_RAMReset:
 401              	.LVL30:
 402              	.LFB251:
1540:../../Drivers/STM32L5xx_HAL_Driver/Src/stm32l5xx_hal_pka.c **** 
ARM GAS  /tmp/cc0Rn02K.s 			page 36


1541:../../Drivers/STM32L5xx_HAL_Driver/Src/stm32l5xx_hal_pka.c **** /**
1542:../../Drivers/STM32L5xx_HAL_Driver/Src/stm32l5xx_hal_pka.c ****   * @brief  Reset the PKA RAM.
1543:../../Drivers/STM32L5xx_HAL_Driver/Src/stm32l5xx_hal_pka.c ****   * @param  hpka PKA handle
1544:../../Drivers/STM32L5xx_HAL_Driver/Src/stm32l5xx_hal_pka.c ****   * @retval None
1545:../../Drivers/STM32L5xx_HAL_Driver/Src/stm32l5xx_hal_pka.c ****   */
1546:../../Drivers/STM32L5xx_HAL_Driver/Src/stm32l5xx_hal_pka.c **** void HAL_PKA_RAMReset(PKA_HandleTypeDef *hpka)
1547:../../Drivers/STM32L5xx_HAL_Driver/Src/stm32l5xx_hal_pka.c **** {
 403              		.loc 1 1547 1 is_stmt 1 view -0
 404              		.cfi_startproc
 405              		@ args = 0, pretend = 0, frame = 0
 406              		@ frame_needed = 0, uses_anonymous_args = 0
 407              		@ link register save eliminated.
 408              		.loc 1 1547 1 is_stmt 0 view .LVU104
 409 0000 8446     		mov	ip, r0
1548:../../Drivers/STM32L5xx_HAL_Driver/Src/stm32l5xx_hal_pka.c ****   uint32_t index;
 410              		.loc 1 1548 3 is_stmt 1 view .LVU105
1549:../../Drivers/STM32L5xx_HAL_Driver/Src/stm32l5xx_hal_pka.c **** 
1550:../../Drivers/STM32L5xx_HAL_Driver/Src/stm32l5xx_hal_pka.c ****   /* For each element in the PKA RAM */
1551:../../Drivers/STM32L5xx_HAL_Driver/Src/stm32l5xx_hal_pka.c ****   for (index = 0; index < PKA_RAM_SIZE; index++)
 411              		.loc 1 1551 3 view .LVU106
 412              	.LVL31:
 413              		.loc 1 1551 14 is_stmt 0 view .LVU107
 414 0002 0023     		movs	r3, #0
 415              		.loc 1 1551 3 view .LVU108
 416 0004 07E0     		b	.L33
 417              	.LVL32:
 418              	.L34:
1552:../../Drivers/STM32L5xx_HAL_Driver/Src/stm32l5xx_hal_pka.c ****   {
1553:../../Drivers/STM32L5xx_HAL_Driver/Src/stm32l5xx_hal_pka.c ****     /* Clear the content */
1554:../../Drivers/STM32L5xx_HAL_Driver/Src/stm32l5xx_hal_pka.c ****     hpka->Instance->RAM[index] = 0UL;
 419              		.loc 1 1554 5 is_stmt 1 discriminator 3 view .LVU109
 420              		.loc 1 1554 9 is_stmt 0 discriminator 3 view .LVU110
 421 0006 DCF80020 		ldr	r2, [ip]
 422              		.loc 1 1554 32 discriminator 3 view .LVU111
 423 000a 03F58071 		add	r1, r3, #256
 424 000e 0020     		movs	r0, #0
 425 0010 42F82100 		str	r0, [r2, r1, lsl #2]
1551:../../Drivers/STM32L5xx_HAL_Driver/Src/stm32l5xx_hal_pka.c ****   {
 426              		.loc 1 1551 46 is_stmt 1 discriminator 3 view .LVU112
 427 0014 0133     		adds	r3, r3, #1
 428              	.LVL33:
 429              	.L33:
1551:../../Drivers/STM32L5xx_HAL_Driver/Src/stm32l5xx_hal_pka.c ****   {
 430              		.loc 1 1551 25 discriminator 1 view .LVU113
 431 0016 40F27D32 		movw	r2, #893
 432 001a 9342     		cmp	r3, r2
 433 001c F3D9     		bls	.L34
1555:../../Drivers/STM32L5xx_HAL_Driver/Src/stm32l5xx_hal_pka.c ****   }
1556:../../Drivers/STM32L5xx_HAL_Driver/Src/stm32l5xx_hal_pka.c **** }
 434              		.loc 1 1556 1 is_stmt 0 view .LVU114
 435 001e 7047     		bx	lr
 436              		.cfi_endproc
 437              	.LFE251:
 439              		.section	.text.HAL_PKA_OperationCpltCallback,"ax",%progbits
 440              		.align	1
 441              		.weak	HAL_PKA_OperationCpltCallback
 442              		.syntax unified
ARM GAS  /tmp/cc0Rn02K.s 			page 37


 443              		.thumb
 444              		.thumb_func
 446              	HAL_PKA_OperationCpltCallback:
 447              	.LVL34:
 448              	.LFB253:
1557:../../Drivers/STM32L5xx_HAL_Driver/Src/stm32l5xx_hal_pka.c **** 
1558:../../Drivers/STM32L5xx_HAL_Driver/Src/stm32l5xx_hal_pka.c **** /**
1559:../../Drivers/STM32L5xx_HAL_Driver/Src/stm32l5xx_hal_pka.c ****   * @brief  This function handles PKA event interrupt request.
1560:../../Drivers/STM32L5xx_HAL_Driver/Src/stm32l5xx_hal_pka.c ****   * @param  hpka PKA handle
1561:../../Drivers/STM32L5xx_HAL_Driver/Src/stm32l5xx_hal_pka.c ****   * @retval None
1562:../../Drivers/STM32L5xx_HAL_Driver/Src/stm32l5xx_hal_pka.c ****   */
1563:../../Drivers/STM32L5xx_HAL_Driver/Src/stm32l5xx_hal_pka.c **** void HAL_PKA_IRQHandler(PKA_HandleTypeDef *hpka)
1564:../../Drivers/STM32L5xx_HAL_Driver/Src/stm32l5xx_hal_pka.c **** {
1565:../../Drivers/STM32L5xx_HAL_Driver/Src/stm32l5xx_hal_pka.c ****   uint32_t mode = PKA_GetMode(hpka);
1566:../../Drivers/STM32L5xx_HAL_Driver/Src/stm32l5xx_hal_pka.c ****   uint32_t itsource = READ_REG(hpka->Instance->CR);
1567:../../Drivers/STM32L5xx_HAL_Driver/Src/stm32l5xx_hal_pka.c ****   uint32_t flag  =   READ_REG(hpka->Instance->SR);
1568:../../Drivers/STM32L5xx_HAL_Driver/Src/stm32l5xx_hal_pka.c **** 
1569:../../Drivers/STM32L5xx_HAL_Driver/Src/stm32l5xx_hal_pka.c ****   /* Address error interrupt occurred */
1570:../../Drivers/STM32L5xx_HAL_Driver/Src/stm32l5xx_hal_pka.c ****   if (((itsource & PKA_IT_ADDRERR) == PKA_IT_ADDRERR) && ((flag & PKA_FLAG_ADDRERR) == PKA_FLAG_ADD
1571:../../Drivers/STM32L5xx_HAL_Driver/Src/stm32l5xx_hal_pka.c ****   {
1572:../../Drivers/STM32L5xx_HAL_Driver/Src/stm32l5xx_hal_pka.c ****     hpka->ErrorCode |= HAL_PKA_ERROR_ADDRERR;
1573:../../Drivers/STM32L5xx_HAL_Driver/Src/stm32l5xx_hal_pka.c **** 
1574:../../Drivers/STM32L5xx_HAL_Driver/Src/stm32l5xx_hal_pka.c ****     /* Clear ADDRERR flag */
1575:../../Drivers/STM32L5xx_HAL_Driver/Src/stm32l5xx_hal_pka.c ****     __HAL_PKA_CLEAR_FLAG(hpka, PKA_FLAG_ADDRERR);
1576:../../Drivers/STM32L5xx_HAL_Driver/Src/stm32l5xx_hal_pka.c ****   }
1577:../../Drivers/STM32L5xx_HAL_Driver/Src/stm32l5xx_hal_pka.c **** 
1578:../../Drivers/STM32L5xx_HAL_Driver/Src/stm32l5xx_hal_pka.c ****   /* RAM access error interrupt occurred */
1579:../../Drivers/STM32L5xx_HAL_Driver/Src/stm32l5xx_hal_pka.c ****   if (((itsource & PKA_IT_RAMERR) == PKA_IT_RAMERR) && ((flag & PKA_FLAG_RAMERR) == PKA_FLAG_RAMERR
1580:../../Drivers/STM32L5xx_HAL_Driver/Src/stm32l5xx_hal_pka.c ****   {
1581:../../Drivers/STM32L5xx_HAL_Driver/Src/stm32l5xx_hal_pka.c ****     hpka->ErrorCode |= HAL_PKA_ERROR_RAMERR;
1582:../../Drivers/STM32L5xx_HAL_Driver/Src/stm32l5xx_hal_pka.c **** 
1583:../../Drivers/STM32L5xx_HAL_Driver/Src/stm32l5xx_hal_pka.c ****     /* Clear RAMERR flag */
1584:../../Drivers/STM32L5xx_HAL_Driver/Src/stm32l5xx_hal_pka.c ****     __HAL_PKA_CLEAR_FLAG(hpka, PKA_FLAG_RAMERR);
1585:../../Drivers/STM32L5xx_HAL_Driver/Src/stm32l5xx_hal_pka.c ****   }
1586:../../Drivers/STM32L5xx_HAL_Driver/Src/stm32l5xx_hal_pka.c **** 
1587:../../Drivers/STM32L5xx_HAL_Driver/Src/stm32l5xx_hal_pka.c ****   /* Check the operation success in case of ECDSA signature */
1588:../../Drivers/STM32L5xx_HAL_Driver/Src/stm32l5xx_hal_pka.c ****   if (mode == PKA_MODE_ECDSA_SIGNATURE)
1589:../../Drivers/STM32L5xx_HAL_Driver/Src/stm32l5xx_hal_pka.c ****   {
1590:../../Drivers/STM32L5xx_HAL_Driver/Src/stm32l5xx_hal_pka.c ****     /* If error output result is different from 0, ecdsa sign operation need to be repeated */
1591:../../Drivers/STM32L5xx_HAL_Driver/Src/stm32l5xx_hal_pka.c ****     if (hpka->Instance->RAM[PKA_ECDSA_SIGN_OUT_ERROR] != 0UL)
1592:../../Drivers/STM32L5xx_HAL_Driver/Src/stm32l5xx_hal_pka.c ****     {
1593:../../Drivers/STM32L5xx_HAL_Driver/Src/stm32l5xx_hal_pka.c ****       hpka->ErrorCode |= HAL_PKA_ERROR_OPERATION;
1594:../../Drivers/STM32L5xx_HAL_Driver/Src/stm32l5xx_hal_pka.c ****     }
1595:../../Drivers/STM32L5xx_HAL_Driver/Src/stm32l5xx_hal_pka.c ****   }
1596:../../Drivers/STM32L5xx_HAL_Driver/Src/stm32l5xx_hal_pka.c ****   /* Trigger the error callback if an error is present */
1597:../../Drivers/STM32L5xx_HAL_Driver/Src/stm32l5xx_hal_pka.c ****   if (hpka->ErrorCode != HAL_PKA_ERROR_NONE)
1598:../../Drivers/STM32L5xx_HAL_Driver/Src/stm32l5xx_hal_pka.c ****   {
1599:../../Drivers/STM32L5xx_HAL_Driver/Src/stm32l5xx_hal_pka.c **** #if (USE_HAL_PKA_REGISTER_CALLBACKS == 1)
1600:../../Drivers/STM32L5xx_HAL_Driver/Src/stm32l5xx_hal_pka.c ****     hpka->ErrorCallback(hpka);
1601:../../Drivers/STM32L5xx_HAL_Driver/Src/stm32l5xx_hal_pka.c **** #else
1602:../../Drivers/STM32L5xx_HAL_Driver/Src/stm32l5xx_hal_pka.c ****     HAL_PKA_ErrorCallback(hpka);
1603:../../Drivers/STM32L5xx_HAL_Driver/Src/stm32l5xx_hal_pka.c **** #endif /* USE_HAL_PKA_REGISTER_CALLBACKS */
1604:../../Drivers/STM32L5xx_HAL_Driver/Src/stm32l5xx_hal_pka.c ****   }
1605:../../Drivers/STM32L5xx_HAL_Driver/Src/stm32l5xx_hal_pka.c **** 
1606:../../Drivers/STM32L5xx_HAL_Driver/Src/stm32l5xx_hal_pka.c ****   /* End Of Operation interrupt occurred */
1607:../../Drivers/STM32L5xx_HAL_Driver/Src/stm32l5xx_hal_pka.c ****   if (((itsource & PKA_IT_PROCEND) == PKA_IT_PROCEND) && ((flag & PKA_FLAG_PROCEND) == PKA_FLAG_PRO
1608:../../Drivers/STM32L5xx_HAL_Driver/Src/stm32l5xx_hal_pka.c ****   {
ARM GAS  /tmp/cc0Rn02K.s 			page 38


1609:../../Drivers/STM32L5xx_HAL_Driver/Src/stm32l5xx_hal_pka.c ****     /* Clear PROCEND flag */
1610:../../Drivers/STM32L5xx_HAL_Driver/Src/stm32l5xx_hal_pka.c ****     __HAL_PKA_CLEAR_FLAG(hpka, PKA_FLAG_PROCEND);
1611:../../Drivers/STM32L5xx_HAL_Driver/Src/stm32l5xx_hal_pka.c **** 
1612:../../Drivers/STM32L5xx_HAL_Driver/Src/stm32l5xx_hal_pka.c ****     /* Set the state to ready */
1613:../../Drivers/STM32L5xx_HAL_Driver/Src/stm32l5xx_hal_pka.c ****     hpka->State = HAL_PKA_STATE_READY;
1614:../../Drivers/STM32L5xx_HAL_Driver/Src/stm32l5xx_hal_pka.c **** 
1615:../../Drivers/STM32L5xx_HAL_Driver/Src/stm32l5xx_hal_pka.c **** #if (USE_HAL_PKA_REGISTER_CALLBACKS == 1)
1616:../../Drivers/STM32L5xx_HAL_Driver/Src/stm32l5xx_hal_pka.c ****     hpka->OperationCpltCallback(hpka);
1617:../../Drivers/STM32L5xx_HAL_Driver/Src/stm32l5xx_hal_pka.c **** #else
1618:../../Drivers/STM32L5xx_HAL_Driver/Src/stm32l5xx_hal_pka.c ****     HAL_PKA_OperationCpltCallback(hpka);
1619:../../Drivers/STM32L5xx_HAL_Driver/Src/stm32l5xx_hal_pka.c **** #endif /* USE_HAL_PKA_REGISTER_CALLBACKS */
1620:../../Drivers/STM32L5xx_HAL_Driver/Src/stm32l5xx_hal_pka.c ****   }
1621:../../Drivers/STM32L5xx_HAL_Driver/Src/stm32l5xx_hal_pka.c **** }
1622:../../Drivers/STM32L5xx_HAL_Driver/Src/stm32l5xx_hal_pka.c **** 
1623:../../Drivers/STM32L5xx_HAL_Driver/Src/stm32l5xx_hal_pka.c **** /**
1624:../../Drivers/STM32L5xx_HAL_Driver/Src/stm32l5xx_hal_pka.c ****   * @brief  Process completed callback.
1625:../../Drivers/STM32L5xx_HAL_Driver/Src/stm32l5xx_hal_pka.c ****   * @param  hpka PKA handle
1626:../../Drivers/STM32L5xx_HAL_Driver/Src/stm32l5xx_hal_pka.c ****   * @retval None
1627:../../Drivers/STM32L5xx_HAL_Driver/Src/stm32l5xx_hal_pka.c ****   */
1628:../../Drivers/STM32L5xx_HAL_Driver/Src/stm32l5xx_hal_pka.c **** __weak void HAL_PKA_OperationCpltCallback(PKA_HandleTypeDef *hpka)
1629:../../Drivers/STM32L5xx_HAL_Driver/Src/stm32l5xx_hal_pka.c **** {
 449              		.loc 1 1629 1 is_stmt 1 view -0
 450              		.cfi_startproc
 451              		@ args = 0, pretend = 0, frame = 0
 452              		@ frame_needed = 0, uses_anonymous_args = 0
 453              		@ link register save eliminated.
1630:../../Drivers/STM32L5xx_HAL_Driver/Src/stm32l5xx_hal_pka.c ****   /* Prevent unused argument(s) compilation warning */
1631:../../Drivers/STM32L5xx_HAL_Driver/Src/stm32l5xx_hal_pka.c ****   UNUSED(hpka);
 454              		.loc 1 1631 3 view .LVU116
1632:../../Drivers/STM32L5xx_HAL_Driver/Src/stm32l5xx_hal_pka.c **** 
1633:../../Drivers/STM32L5xx_HAL_Driver/Src/stm32l5xx_hal_pka.c ****   /* NOTE : This function should not be modified, when the callback is needed,
1634:../../Drivers/STM32L5xx_HAL_Driver/Src/stm32l5xx_hal_pka.c ****             the HAL_PKA_OperationCpltCallback could be implemented in the user file
1635:../../Drivers/STM32L5xx_HAL_Driver/Src/stm32l5xx_hal_pka.c ****    */
1636:../../Drivers/STM32L5xx_HAL_Driver/Src/stm32l5xx_hal_pka.c **** }
 455              		.loc 1 1636 1 is_stmt 0 view .LVU117
 456 0000 7047     		bx	lr
 457              		.cfi_endproc
 458              	.LFE253:
 460              		.section	.text.HAL_PKA_ErrorCallback,"ax",%progbits
 461              		.align	1
 462              		.weak	HAL_PKA_ErrorCallback
 463              		.syntax unified
 464              		.thumb
 465              		.thumb_func
 467              	HAL_PKA_ErrorCallback:
 468              	.LVL35:
 469              	.LFB254:
1637:../../Drivers/STM32L5xx_HAL_Driver/Src/stm32l5xx_hal_pka.c **** 
1638:../../Drivers/STM32L5xx_HAL_Driver/Src/stm32l5xx_hal_pka.c **** /**
1639:../../Drivers/STM32L5xx_HAL_Driver/Src/stm32l5xx_hal_pka.c ****   * @brief  Error callback.
1640:../../Drivers/STM32L5xx_HAL_Driver/Src/stm32l5xx_hal_pka.c ****   * @param  hpka PKA handle
1641:../../Drivers/STM32L5xx_HAL_Driver/Src/stm32l5xx_hal_pka.c ****   * @retval None
1642:../../Drivers/STM32L5xx_HAL_Driver/Src/stm32l5xx_hal_pka.c ****   */
1643:../../Drivers/STM32L5xx_HAL_Driver/Src/stm32l5xx_hal_pka.c **** __weak void HAL_PKA_ErrorCallback(PKA_HandleTypeDef *hpka)
1644:../../Drivers/STM32L5xx_HAL_Driver/Src/stm32l5xx_hal_pka.c **** {
 470              		.loc 1 1644 1 is_stmt 1 view -0
 471              		.cfi_startproc
ARM GAS  /tmp/cc0Rn02K.s 			page 39


 472              		@ args = 0, pretend = 0, frame = 0
 473              		@ frame_needed = 0, uses_anonymous_args = 0
 474              		@ link register save eliminated.
1645:../../Drivers/STM32L5xx_HAL_Driver/Src/stm32l5xx_hal_pka.c ****   /* Prevent unused argument(s) compilation warning */
1646:../../Drivers/STM32L5xx_HAL_Driver/Src/stm32l5xx_hal_pka.c ****   UNUSED(hpka);
 475              		.loc 1 1646 3 view .LVU119
1647:../../Drivers/STM32L5xx_HAL_Driver/Src/stm32l5xx_hal_pka.c **** 
1648:../../Drivers/STM32L5xx_HAL_Driver/Src/stm32l5xx_hal_pka.c ****   /* NOTE : This function should not be modified, when the callback is needed,
1649:../../Drivers/STM32L5xx_HAL_Driver/Src/stm32l5xx_hal_pka.c ****             the HAL_PKA_ErrorCallback could be implemented in the user file
1650:../../Drivers/STM32L5xx_HAL_Driver/Src/stm32l5xx_hal_pka.c ****    */
1651:../../Drivers/STM32L5xx_HAL_Driver/Src/stm32l5xx_hal_pka.c **** }
 476              		.loc 1 1651 1 is_stmt 0 view .LVU120
 477 0000 7047     		bx	lr
 478              		.cfi_endproc
 479              	.LFE254:
 481              		.section	.text.HAL_PKA_GetState,"ax",%progbits
 482              		.align	1
 483              		.global	HAL_PKA_GetState
 484              		.syntax unified
 485              		.thumb
 486              		.thumb_func
 488              	HAL_PKA_GetState:
 489              	.LVL36:
 490              	.LFB255:
1652:../../Drivers/STM32L5xx_HAL_Driver/Src/stm32l5xx_hal_pka.c **** 
1653:../../Drivers/STM32L5xx_HAL_Driver/Src/stm32l5xx_hal_pka.c **** /**
1654:../../Drivers/STM32L5xx_HAL_Driver/Src/stm32l5xx_hal_pka.c ****   * @}
1655:../../Drivers/STM32L5xx_HAL_Driver/Src/stm32l5xx_hal_pka.c ****   */
1656:../../Drivers/STM32L5xx_HAL_Driver/Src/stm32l5xx_hal_pka.c **** 
1657:../../Drivers/STM32L5xx_HAL_Driver/Src/stm32l5xx_hal_pka.c **** /** @defgroup PKA_Exported_Functions_Group3 Peripheral State and Error functions
1658:../../Drivers/STM32L5xx_HAL_Driver/Src/stm32l5xx_hal_pka.c ****   * @brief    Peripheral State and Error functions
1659:../../Drivers/STM32L5xx_HAL_Driver/Src/stm32l5xx_hal_pka.c ****   *
1660:../../Drivers/STM32L5xx_HAL_Driver/Src/stm32l5xx_hal_pka.c ****   @verbatim
1661:../../Drivers/STM32L5xx_HAL_Driver/Src/stm32l5xx_hal_pka.c ****  ===============================================================================
1662:../../Drivers/STM32L5xx_HAL_Driver/Src/stm32l5xx_hal_pka.c ****             ##### Peripheral State and Error functions #####
1663:../../Drivers/STM32L5xx_HAL_Driver/Src/stm32l5xx_hal_pka.c ****  ===============================================================================
1664:../../Drivers/STM32L5xx_HAL_Driver/Src/stm32l5xx_hal_pka.c ****     [..]
1665:../../Drivers/STM32L5xx_HAL_Driver/Src/stm32l5xx_hal_pka.c ****     This subsection permit to get in run-time the status of the peripheral.
1666:../../Drivers/STM32L5xx_HAL_Driver/Src/stm32l5xx_hal_pka.c **** 
1667:../../Drivers/STM32L5xx_HAL_Driver/Src/stm32l5xx_hal_pka.c **** @endverbatim
1668:../../Drivers/STM32L5xx_HAL_Driver/Src/stm32l5xx_hal_pka.c ****   * @{
1669:../../Drivers/STM32L5xx_HAL_Driver/Src/stm32l5xx_hal_pka.c ****   */
1670:../../Drivers/STM32L5xx_HAL_Driver/Src/stm32l5xx_hal_pka.c **** 
1671:../../Drivers/STM32L5xx_HAL_Driver/Src/stm32l5xx_hal_pka.c **** /**
1672:../../Drivers/STM32L5xx_HAL_Driver/Src/stm32l5xx_hal_pka.c ****   * @brief  Return the PKA handle state.
1673:../../Drivers/STM32L5xx_HAL_Driver/Src/stm32l5xx_hal_pka.c ****   * @param  hpka PKA handle
1674:../../Drivers/STM32L5xx_HAL_Driver/Src/stm32l5xx_hal_pka.c ****   * @retval HAL status
1675:../../Drivers/STM32L5xx_HAL_Driver/Src/stm32l5xx_hal_pka.c ****   */
1676:../../Drivers/STM32L5xx_HAL_Driver/Src/stm32l5xx_hal_pka.c **** HAL_PKA_StateTypeDef HAL_PKA_GetState(const PKA_HandleTypeDef *hpka)
1677:../../Drivers/STM32L5xx_HAL_Driver/Src/stm32l5xx_hal_pka.c **** {
 491              		.loc 1 1677 1 is_stmt 1 view -0
 492              		.cfi_startproc
 493              		@ args = 0, pretend = 0, frame = 0
 494              		@ frame_needed = 0, uses_anonymous_args = 0
 495              		@ link register save eliminated.
1678:../../Drivers/STM32L5xx_HAL_Driver/Src/stm32l5xx_hal_pka.c ****   /* Return PKA handle state */
1679:../../Drivers/STM32L5xx_HAL_Driver/Src/stm32l5xx_hal_pka.c ****   return hpka->State;
ARM GAS  /tmp/cc0Rn02K.s 			page 40


 496              		.loc 1 1679 3 view .LVU122
 497              		.loc 1 1679 14 is_stmt 0 view .LVU123
 498 0000 0079     		ldrb	r0, [r0, #4]	@ zero_extendqisi2
 499              	.LVL37:
1680:../../Drivers/STM32L5xx_HAL_Driver/Src/stm32l5xx_hal_pka.c **** }
 500              		.loc 1 1680 1 view .LVU124
 501 0002 7047     		bx	lr
 502              		.cfi_endproc
 503              	.LFE255:
 505              		.section	.text.HAL_PKA_GetError,"ax",%progbits
 506              		.align	1
 507              		.global	HAL_PKA_GetError
 508              		.syntax unified
 509              		.thumb
 510              		.thumb_func
 512              	HAL_PKA_GetError:
 513              	.LVL38:
 514              	.LFB256:
1681:../../Drivers/STM32L5xx_HAL_Driver/Src/stm32l5xx_hal_pka.c **** 
1682:../../Drivers/STM32L5xx_HAL_Driver/Src/stm32l5xx_hal_pka.c **** /**
1683:../../Drivers/STM32L5xx_HAL_Driver/Src/stm32l5xx_hal_pka.c ****   * @brief  Return the PKA error code.
1684:../../Drivers/STM32L5xx_HAL_Driver/Src/stm32l5xx_hal_pka.c ****   * @param  hpka PKA handle
1685:../../Drivers/STM32L5xx_HAL_Driver/Src/stm32l5xx_hal_pka.c ****   * @retval PKA error code
1686:../../Drivers/STM32L5xx_HAL_Driver/Src/stm32l5xx_hal_pka.c ****   */
1687:../../Drivers/STM32L5xx_HAL_Driver/Src/stm32l5xx_hal_pka.c **** uint32_t HAL_PKA_GetError(const PKA_HandleTypeDef *hpka)
1688:../../Drivers/STM32L5xx_HAL_Driver/Src/stm32l5xx_hal_pka.c **** {
 515              		.loc 1 1688 1 is_stmt 1 view -0
 516              		.cfi_startproc
 517              		@ args = 0, pretend = 0, frame = 0
 518              		@ frame_needed = 0, uses_anonymous_args = 0
 519              		@ link register save eliminated.
1689:../../Drivers/STM32L5xx_HAL_Driver/Src/stm32l5xx_hal_pka.c ****   /* Return PKA handle error code */
1690:../../Drivers/STM32L5xx_HAL_Driver/Src/stm32l5xx_hal_pka.c ****   return hpka->ErrorCode;
 520              		.loc 1 1690 3 view .LVU126
 521              		.loc 1 1690 14 is_stmt 0 view .LVU127
 522 0000 8068     		ldr	r0, [r0, #8]
 523              	.LVL39:
1691:../../Drivers/STM32L5xx_HAL_Driver/Src/stm32l5xx_hal_pka.c **** }
 524              		.loc 1 1691 1 view .LVU128
 525 0002 7047     		bx	lr
 526              		.cfi_endproc
 527              	.LFE256:
 529              		.section	.text.PKA_GetMode,"ax",%progbits
 530              		.align	1
 531              		.global	PKA_GetMode
 532              		.syntax unified
 533              		.thumb
 534              		.thumb_func
 536              	PKA_GetMode:
 537              	.LVL40:
 538              	.LFB257:
1692:../../Drivers/STM32L5xx_HAL_Driver/Src/stm32l5xx_hal_pka.c **** 
1693:../../Drivers/STM32L5xx_HAL_Driver/Src/stm32l5xx_hal_pka.c **** /**
1694:../../Drivers/STM32L5xx_HAL_Driver/Src/stm32l5xx_hal_pka.c ****   * @}
1695:../../Drivers/STM32L5xx_HAL_Driver/Src/stm32l5xx_hal_pka.c ****   */
1696:../../Drivers/STM32L5xx_HAL_Driver/Src/stm32l5xx_hal_pka.c **** 
1697:../../Drivers/STM32L5xx_HAL_Driver/Src/stm32l5xx_hal_pka.c **** /**
ARM GAS  /tmp/cc0Rn02K.s 			page 41


1698:../../Drivers/STM32L5xx_HAL_Driver/Src/stm32l5xx_hal_pka.c ****   * @}
1699:../../Drivers/STM32L5xx_HAL_Driver/Src/stm32l5xx_hal_pka.c ****   */
1700:../../Drivers/STM32L5xx_HAL_Driver/Src/stm32l5xx_hal_pka.c **** 
1701:../../Drivers/STM32L5xx_HAL_Driver/Src/stm32l5xx_hal_pka.c **** /** @addtogroup PKA_Private_Functions
1702:../../Drivers/STM32L5xx_HAL_Driver/Src/stm32l5xx_hal_pka.c ****   * @{
1703:../../Drivers/STM32L5xx_HAL_Driver/Src/stm32l5xx_hal_pka.c ****   */
1704:../../Drivers/STM32L5xx_HAL_Driver/Src/stm32l5xx_hal_pka.c **** 
1705:../../Drivers/STM32L5xx_HAL_Driver/Src/stm32l5xx_hal_pka.c **** /**
1706:../../Drivers/STM32L5xx_HAL_Driver/Src/stm32l5xx_hal_pka.c ****   * @brief  Get PKA operating mode.
1707:../../Drivers/STM32L5xx_HAL_Driver/Src/stm32l5xx_hal_pka.c ****   * @param  hpka PKA handle
1708:../../Drivers/STM32L5xx_HAL_Driver/Src/stm32l5xx_hal_pka.c ****   * @retval Return the current mode
1709:../../Drivers/STM32L5xx_HAL_Driver/Src/stm32l5xx_hal_pka.c ****   */
1710:../../Drivers/STM32L5xx_HAL_Driver/Src/stm32l5xx_hal_pka.c **** uint32_t PKA_GetMode(const PKA_HandleTypeDef *hpka)
1711:../../Drivers/STM32L5xx_HAL_Driver/Src/stm32l5xx_hal_pka.c **** {
 539              		.loc 1 1711 1 is_stmt 1 view -0
 540              		.cfi_startproc
 541              		@ args = 0, pretend = 0, frame = 0
 542              		@ frame_needed = 0, uses_anonymous_args = 0
 543              		@ link register save eliminated.
1712:../../Drivers/STM32L5xx_HAL_Driver/Src/stm32l5xx_hal_pka.c ****   /* return the shifted PKA_CR_MODE value */
1713:../../Drivers/STM32L5xx_HAL_Driver/Src/stm32l5xx_hal_pka.c ****   return (uint32_t)(READ_BIT(hpka->Instance->CR, PKA_CR_MODE) >> PKA_CR_MODE_Pos);
 544              		.loc 1 1713 3 view .LVU130
 545              		.loc 1 1713 21 is_stmt 0 view .LVU131
 546 0000 0368     		ldr	r3, [r0]
 547 0002 1868     		ldr	r0, [r3]
 548              	.LVL41:
1714:../../Drivers/STM32L5xx_HAL_Driver/Src/stm32l5xx_hal_pka.c **** }
 549              		.loc 1 1714 1 view .LVU132
 550 0004 C0F30520 		ubfx	r0, r0, #8, #6
 551 0008 7047     		bx	lr
 552              		.cfi_endproc
 553              	.LFE257:
 555              		.section	.text.HAL_PKA_IRQHandler,"ax",%progbits
 556              		.align	1
 557              		.global	HAL_PKA_IRQHandler
 558              		.syntax unified
 559              		.thumb
 560              		.thumb_func
 562              	HAL_PKA_IRQHandler:
 563              	.LVL42:
 564              	.LFB252:
1564:../../Drivers/STM32L5xx_HAL_Driver/Src/stm32l5xx_hal_pka.c ****   uint32_t mode = PKA_GetMode(hpka);
 565              		.loc 1 1564 1 is_stmt 1 view -0
 566              		.cfi_startproc
 567              		@ args = 0, pretend = 0, frame = 0
 568              		@ frame_needed = 0, uses_anonymous_args = 0
1564:../../Drivers/STM32L5xx_HAL_Driver/Src/stm32l5xx_hal_pka.c ****   uint32_t mode = PKA_GetMode(hpka);
 569              		.loc 1 1564 1 is_stmt 0 view .LVU134
 570 0000 70B5     		push	{r4, r5, r6, lr}
 571              	.LCFI4:
 572              		.cfi_def_cfa_offset 16
 573              		.cfi_offset 4, -16
 574              		.cfi_offset 5, -12
 575              		.cfi_offset 6, -8
 576              		.cfi_offset 14, -4
 577 0002 0446     		mov	r4, r0
1565:../../Drivers/STM32L5xx_HAL_Driver/Src/stm32l5xx_hal_pka.c ****   uint32_t itsource = READ_REG(hpka->Instance->CR);
ARM GAS  /tmp/cc0Rn02K.s 			page 42


 578              		.loc 1 1565 3 is_stmt 1 view .LVU135
1565:../../Drivers/STM32L5xx_HAL_Driver/Src/stm32l5xx_hal_pka.c ****   uint32_t itsource = READ_REG(hpka->Instance->CR);
 579              		.loc 1 1565 19 is_stmt 0 view .LVU136
 580 0004 FFF7FEFF 		bl	PKA_GetMode
 581              	.LVL43:
1566:../../Drivers/STM32L5xx_HAL_Driver/Src/stm32l5xx_hal_pka.c ****   uint32_t flag  =   READ_REG(hpka->Instance->SR);
 582              		.loc 1 1566 3 is_stmt 1 view .LVU137
1566:../../Drivers/STM32L5xx_HAL_Driver/Src/stm32l5xx_hal_pka.c ****   uint32_t flag  =   READ_REG(hpka->Instance->SR);
 583              		.loc 1 1566 23 is_stmt 0 view .LVU138
 584 0008 2368     		ldr	r3, [r4]
1566:../../Drivers/STM32L5xx_HAL_Driver/Src/stm32l5xx_hal_pka.c ****   uint32_t flag  =   READ_REG(hpka->Instance->SR);
 585              		.loc 1 1566 12 view .LVU139
 586 000a 1D68     		ldr	r5, [r3]
 587              	.LVL44:
1567:../../Drivers/STM32L5xx_HAL_Driver/Src/stm32l5xx_hal_pka.c **** 
 588              		.loc 1 1567 3 is_stmt 1 view .LVU140
1567:../../Drivers/STM32L5xx_HAL_Driver/Src/stm32l5xx_hal_pka.c **** 
 589              		.loc 1 1567 12 is_stmt 0 view .LVU141
 590 000c 5E68     		ldr	r6, [r3, #4]
 591              	.LVL45:
1570:../../Drivers/STM32L5xx_HAL_Driver/Src/stm32l5xx_hal_pka.c ****   {
 592              		.loc 1 1570 3 is_stmt 1 view .LVU142
1570:../../Drivers/STM32L5xx_HAL_Driver/Src/stm32l5xx_hal_pka.c ****   {
 593              		.loc 1 1570 6 is_stmt 0 view .LVU143
 594 000e 15F4801F 		tst	r5, #1048576
 595 0012 09D0     		beq	.L41
1570:../../Drivers/STM32L5xx_HAL_Driver/Src/stm32l5xx_hal_pka.c ****   {
 596              		.loc 1 1570 55 discriminator 1 view .LVU144
 597 0014 16F4801F 		tst	r6, #1048576
 598 0018 06D0     		beq	.L41
1572:../../Drivers/STM32L5xx_HAL_Driver/Src/stm32l5xx_hal_pka.c **** 
 599              		.loc 1 1572 5 is_stmt 1 view .LVU145
1572:../../Drivers/STM32L5xx_HAL_Driver/Src/stm32l5xx_hal_pka.c **** 
 600              		.loc 1 1572 9 is_stmt 0 view .LVU146
 601 001a A268     		ldr	r2, [r4, #8]
1572:../../Drivers/STM32L5xx_HAL_Driver/Src/stm32l5xx_hal_pka.c **** 
 602              		.loc 1 1572 21 view .LVU147
 603 001c 42F00102 		orr	r2, r2, #1
 604 0020 A260     		str	r2, [r4, #8]
1575:../../Drivers/STM32L5xx_HAL_Driver/Src/stm32l5xx_hal_pka.c ****   }
 605              		.loc 1 1575 5 is_stmt 1 view .LVU148
 606 0022 4FF48012 		mov	r2, #1048576
 607 0026 9A60     		str	r2, [r3, #8]
 608              	.L41:
1579:../../Drivers/STM32L5xx_HAL_Driver/Src/stm32l5xx_hal_pka.c ****   {
 609              		.loc 1 1579 3 view .LVU149
1579:../../Drivers/STM32L5xx_HAL_Driver/Src/stm32l5xx_hal_pka.c ****   {
 610              		.loc 1 1579 6 is_stmt 0 view .LVU150
 611 0028 15F4002F 		tst	r5, #524288
 612 002c 0AD0     		beq	.L42
1579:../../Drivers/STM32L5xx_HAL_Driver/Src/stm32l5xx_hal_pka.c ****   {
 613              		.loc 1 1579 53 discriminator 1 view .LVU151
 614 002e 16F4002F 		tst	r6, #524288
 615 0032 07D0     		beq	.L42
1581:../../Drivers/STM32L5xx_HAL_Driver/Src/stm32l5xx_hal_pka.c **** 
 616              		.loc 1 1581 5 is_stmt 1 view .LVU152
1581:../../Drivers/STM32L5xx_HAL_Driver/Src/stm32l5xx_hal_pka.c **** 
ARM GAS  /tmp/cc0Rn02K.s 			page 43


 617              		.loc 1 1581 9 is_stmt 0 view .LVU153
 618 0034 A368     		ldr	r3, [r4, #8]
1581:../../Drivers/STM32L5xx_HAL_Driver/Src/stm32l5xx_hal_pka.c **** 
 619              		.loc 1 1581 21 view .LVU154
 620 0036 43F00203 		orr	r3, r3, #2
 621 003a A360     		str	r3, [r4, #8]
1584:../../Drivers/STM32L5xx_HAL_Driver/Src/stm32l5xx_hal_pka.c ****   }
 622              		.loc 1 1584 5 is_stmt 1 view .LVU155
 623 003c 2368     		ldr	r3, [r4]
 624 003e 4FF40022 		mov	r2, #524288
 625 0042 9A60     		str	r2, [r3, #8]
 626              	.L42:
1588:../../Drivers/STM32L5xx_HAL_Driver/Src/stm32l5xx_hal_pka.c ****   {
 627              		.loc 1 1588 3 view .LVU156
1588:../../Drivers/STM32L5xx_HAL_Driver/Src/stm32l5xx_hal_pka.c ****   {
 628              		.loc 1 1588 6 is_stmt 0 view .LVU157
 629 0044 2428     		cmp	r0, #36
 630 0046 08D0     		beq	.L47
 631              	.L43:
1597:../../Drivers/STM32L5xx_HAL_Driver/Src/stm32l5xx_hal_pka.c ****   {
 632              		.loc 1 1597 3 is_stmt 1 view .LVU158
1597:../../Drivers/STM32L5xx_HAL_Driver/Src/stm32l5xx_hal_pka.c ****   {
 633              		.loc 1 1597 11 is_stmt 0 view .LVU159
 634 0048 A368     		ldr	r3, [r4, #8]
1597:../../Drivers/STM32L5xx_HAL_Driver/Src/stm32l5xx_hal_pka.c ****   {
 635              		.loc 1 1597 6 view .LVU160
 636 004a 83B9     		cbnz	r3, .L48
 637              	.LVL46:
 638              	.L44:
1607:../../Drivers/STM32L5xx_HAL_Driver/Src/stm32l5xx_hal_pka.c ****   {
 639              		.loc 1 1607 3 is_stmt 1 view .LVU161
1607:../../Drivers/STM32L5xx_HAL_Driver/Src/stm32l5xx_hal_pka.c ****   {
 640              		.loc 1 1607 6 is_stmt 0 view .LVU162
 641 004c 15F4003F 		tst	r5, #131072
 642 0050 02D0     		beq	.L40
1607:../../Drivers/STM32L5xx_HAL_Driver/Src/stm32l5xx_hal_pka.c ****   {
 643              		.loc 1 1607 55 discriminator 1 view .LVU163
 644 0052 16F4003F 		tst	r6, #131072
 645 0056 0ED1     		bne	.L49
 646              	.L40:
1621:../../Drivers/STM32L5xx_HAL_Driver/Src/stm32l5xx_hal_pka.c **** 
 647              		.loc 1 1621 1 view .LVU164
 648 0058 70BD     		pop	{r4, r5, r6, pc}
 649              	.LVL47:
 650              	.L47:
1591:../../Drivers/STM32L5xx_HAL_Driver/Src/stm32l5xx_hal_pka.c ****     {
 651              		.loc 1 1591 5 is_stmt 1 view .LVU165
1591:../../Drivers/STM32L5xx_HAL_Driver/Src/stm32l5xx_hal_pka.c ****     {
 652              		.loc 1 1591 13 is_stmt 0 view .LVU166
 653 005a 2368     		ldr	r3, [r4]
1591:../../Drivers/STM32L5xx_HAL_Driver/Src/stm32l5xx_hal_pka.c ****     {
 654              		.loc 1 1591 28 view .LVU167
 655 005c D3F8E83E 		ldr	r3, [r3, #3816]
1591:../../Drivers/STM32L5xx_HAL_Driver/Src/stm32l5xx_hal_pka.c ****     {
 656              		.loc 1 1591 8 view .LVU168
 657 0060 002B     		cmp	r3, #0
 658 0062 F1D0     		beq	.L43
ARM GAS  /tmp/cc0Rn02K.s 			page 44


1593:../../Drivers/STM32L5xx_HAL_Driver/Src/stm32l5xx_hal_pka.c ****     }
 659              		.loc 1 1593 7 is_stmt 1 view .LVU169
1593:../../Drivers/STM32L5xx_HAL_Driver/Src/stm32l5xx_hal_pka.c ****     }
 660              		.loc 1 1593 11 is_stmt 0 view .LVU170
 661 0064 A368     		ldr	r3, [r4, #8]
1593:../../Drivers/STM32L5xx_HAL_Driver/Src/stm32l5xx_hal_pka.c ****     }
 662              		.loc 1 1593 23 view .LVU171
 663 0066 43F00803 		orr	r3, r3, #8
 664 006a A360     		str	r3, [r4, #8]
 665 006c ECE7     		b	.L43
 666              	.L48:
1602:../../Drivers/STM32L5xx_HAL_Driver/Src/stm32l5xx_hal_pka.c **** #endif /* USE_HAL_PKA_REGISTER_CALLBACKS */
 667              		.loc 1 1602 5 is_stmt 1 view .LVU172
 668 006e 2046     		mov	r0, r4
 669              	.LVL48:
1602:../../Drivers/STM32L5xx_HAL_Driver/Src/stm32l5xx_hal_pka.c **** #endif /* USE_HAL_PKA_REGISTER_CALLBACKS */
 670              		.loc 1 1602 5 is_stmt 0 view .LVU173
 671 0070 FFF7FEFF 		bl	HAL_PKA_ErrorCallback
 672              	.LVL49:
 673 0074 EAE7     		b	.L44
 674              	.L49:
1610:../../Drivers/STM32L5xx_HAL_Driver/Src/stm32l5xx_hal_pka.c **** 
 675              		.loc 1 1610 5 is_stmt 1 view .LVU174
 676 0076 2368     		ldr	r3, [r4]
 677 0078 4FF40032 		mov	r2, #131072
 678 007c 9A60     		str	r2, [r3, #8]
1613:../../Drivers/STM32L5xx_HAL_Driver/Src/stm32l5xx_hal_pka.c **** 
 679              		.loc 1 1613 5 view .LVU175
1613:../../Drivers/STM32L5xx_HAL_Driver/Src/stm32l5xx_hal_pka.c **** 
 680              		.loc 1 1613 17 is_stmt 0 view .LVU176
 681 007e 0123     		movs	r3, #1
 682 0080 2371     		strb	r3, [r4, #4]
1618:../../Drivers/STM32L5xx_HAL_Driver/Src/stm32l5xx_hal_pka.c **** #endif /* USE_HAL_PKA_REGISTER_CALLBACKS */
 683              		.loc 1 1618 5 is_stmt 1 view .LVU177
 684 0082 2046     		mov	r0, r4
 685 0084 FFF7FEFF 		bl	HAL_PKA_OperationCpltCallback
 686              	.LVL50:
1621:../../Drivers/STM32L5xx_HAL_Driver/Src/stm32l5xx_hal_pka.c **** 
 687              		.loc 1 1621 1 is_stmt 0 view .LVU178
 688 0088 E6E7     		b	.L40
 689              		.cfi_endproc
 690              	.LFE252:
 692              		.section	.text.PKA_PollEndOfOperation,"ax",%progbits
 693              		.align	1
 694              		.global	PKA_PollEndOfOperation
 695              		.syntax unified
 696              		.thumb
 697              		.thumb_func
 699              	PKA_PollEndOfOperation:
 700              	.LVL51:
 701              	.LFB258:
1715:../../Drivers/STM32L5xx_HAL_Driver/Src/stm32l5xx_hal_pka.c **** 
1716:../../Drivers/STM32L5xx_HAL_Driver/Src/stm32l5xx_hal_pka.c **** /**
1717:../../Drivers/STM32L5xx_HAL_Driver/Src/stm32l5xx_hal_pka.c ****   * @brief  Wait for operation completion or timeout.
1718:../../Drivers/STM32L5xx_HAL_Driver/Src/stm32l5xx_hal_pka.c ****   * @param  hpka PKA handle
1719:../../Drivers/STM32L5xx_HAL_Driver/Src/stm32l5xx_hal_pka.c ****   * @param  Timeout Timeout duration in millisecond.
1720:../../Drivers/STM32L5xx_HAL_Driver/Src/stm32l5xx_hal_pka.c ****   * @param  Tickstart Tick start value
ARM GAS  /tmp/cc0Rn02K.s 			page 45


1721:../../Drivers/STM32L5xx_HAL_Driver/Src/stm32l5xx_hal_pka.c ****   * @retval HAL status
1722:../../Drivers/STM32L5xx_HAL_Driver/Src/stm32l5xx_hal_pka.c ****   */
1723:../../Drivers/STM32L5xx_HAL_Driver/Src/stm32l5xx_hal_pka.c **** HAL_StatusTypeDef PKA_PollEndOfOperation(const PKA_HandleTypeDef *hpka, uint32_t Timeout, uint32_t 
1724:../../Drivers/STM32L5xx_HAL_Driver/Src/stm32l5xx_hal_pka.c **** {
 702              		.loc 1 1724 1 is_stmt 1 view -0
 703              		.cfi_startproc
 704              		@ args = 0, pretend = 0, frame = 0
 705              		@ frame_needed = 0, uses_anonymous_args = 0
 706              		.loc 1 1724 1 is_stmt 0 view .LVU180
 707 0000 70B5     		push	{r4, r5, r6, lr}
 708              	.LCFI5:
 709              		.cfi_def_cfa_offset 16
 710              		.cfi_offset 4, -16
 711              		.cfi_offset 5, -12
 712              		.cfi_offset 6, -8
 713              		.cfi_offset 14, -4
 714 0002 0546     		mov	r5, r0
 715 0004 0C46     		mov	r4, r1
 716 0006 1646     		mov	r6, r2
1725:../../Drivers/STM32L5xx_HAL_Driver/Src/stm32l5xx_hal_pka.c ****   /* Wait for the end of operation or timeout */
1726:../../Drivers/STM32L5xx_HAL_Driver/Src/stm32l5xx_hal_pka.c ****   while ((hpka->Instance->SR & PKA_SR_PROCENDF) == 0UL)
 717              		.loc 1 1726 3 is_stmt 1 view .LVU181
 718              	.LVL52:
 719              	.L52:
 720              		.loc 1 1726 49 view .LVU182
 721              		.loc 1 1726 15 is_stmt 0 view .LVU183
 722 0008 2B68     		ldr	r3, [r5]
 723              		.loc 1 1726 25 view .LVU184
 724 000a 5B68     		ldr	r3, [r3, #4]
 725              		.loc 1 1726 49 view .LVU185
 726 000c 13F4003F 		tst	r3, #131072
 727 0010 0BD1     		bne	.L58
1727:../../Drivers/STM32L5xx_HAL_Driver/Src/stm32l5xx_hal_pka.c ****   {
1728:../../Drivers/STM32L5xx_HAL_Driver/Src/stm32l5xx_hal_pka.c ****     /* Check if timeout is disabled (set to infinite wait) */
1729:../../Drivers/STM32L5xx_HAL_Driver/Src/stm32l5xx_hal_pka.c ****     if (Timeout != HAL_MAX_DELAY)
 728              		.loc 1 1729 5 is_stmt 1 view .LVU186
 729              		.loc 1 1729 8 is_stmt 0 view .LVU187
 730 0012 B4F1FF3F 		cmp	r4, #-1
 731 0016 F7D0     		beq	.L52
1730:../../Drivers/STM32L5xx_HAL_Driver/Src/stm32l5xx_hal_pka.c ****     {
1731:../../Drivers/STM32L5xx_HAL_Driver/Src/stm32l5xx_hal_pka.c ****       if (((HAL_GetTick() - Tickstart) > Timeout) || (Timeout == 0UL))
 732              		.loc 1 1731 7 is_stmt 1 view .LVU188
 733              		.loc 1 1731 13 is_stmt 0 view .LVU189
 734 0018 FFF7FEFF 		bl	HAL_GetTick
 735              	.LVL53:
 736              		.loc 1 1731 27 view .LVU190
 737 001c 801B     		subs	r0, r0, r6
 738              		.loc 1 1731 10 view .LVU191
 739 001e A042     		cmp	r0, r4
 740 0020 05D8     		bhi	.L55
 741              		.loc 1 1731 51 discriminator 1 view .LVU192
 742 0022 002C     		cmp	r4, #0
 743 0024 F0D1     		bne	.L52
1732:../../Drivers/STM32L5xx_HAL_Driver/Src/stm32l5xx_hal_pka.c ****       {
1733:../../Drivers/STM32L5xx_HAL_Driver/Src/stm32l5xx_hal_pka.c ****         return HAL_TIMEOUT;
 744              		.loc 1 1733 16 view .LVU193
 745 0026 0320     		movs	r0, #3
ARM GAS  /tmp/cc0Rn02K.s 			page 46


 746 0028 00E0     		b	.L53
 747              	.L58:
1734:../../Drivers/STM32L5xx_HAL_Driver/Src/stm32l5xx_hal_pka.c ****       }
1735:../../Drivers/STM32L5xx_HAL_Driver/Src/stm32l5xx_hal_pka.c ****     }
1736:../../Drivers/STM32L5xx_HAL_Driver/Src/stm32l5xx_hal_pka.c ****   }
1737:../../Drivers/STM32L5xx_HAL_Driver/Src/stm32l5xx_hal_pka.c ****   return HAL_OK;
 748              		.loc 1 1737 10 view .LVU194
 749 002a 0020     		movs	r0, #0
 750              	.L53:
1738:../../Drivers/STM32L5xx_HAL_Driver/Src/stm32l5xx_hal_pka.c **** }
 751              		.loc 1 1738 1 view .LVU195
 752 002c 70BD     		pop	{r4, r5, r6, pc}
 753              	.LVL54:
 754              	.L55:
1733:../../Drivers/STM32L5xx_HAL_Driver/Src/stm32l5xx_hal_pka.c ****       }
 755              		.loc 1 1733 16 view .LVU196
 756 002e 0320     		movs	r0, #3
 757 0030 FCE7     		b	.L53
 758              		.cfi_endproc
 759              	.LFE258:
 761              		.section	.text.PKA_CheckError,"ax",%progbits
 762              		.align	1
 763              		.global	PKA_CheckError
 764              		.syntax unified
 765              		.thumb
 766              		.thumb_func
 768              	PKA_CheckError:
 769              	.LVL55:
 770              	.LFB259:
1739:../../Drivers/STM32L5xx_HAL_Driver/Src/stm32l5xx_hal_pka.c **** 
1740:../../Drivers/STM32L5xx_HAL_Driver/Src/stm32l5xx_hal_pka.c **** /**
1741:../../Drivers/STM32L5xx_HAL_Driver/Src/stm32l5xx_hal_pka.c ****   * @brief  Return a hal error code based on PKA error flags.
1742:../../Drivers/STM32L5xx_HAL_Driver/Src/stm32l5xx_hal_pka.c ****   * @param  hpka PKA handle
1743:../../Drivers/STM32L5xx_HAL_Driver/Src/stm32l5xx_hal_pka.c ****   * @param  mode PKA operating mode
1744:../../Drivers/STM32L5xx_HAL_Driver/Src/stm32l5xx_hal_pka.c ****   * @retval error code
1745:../../Drivers/STM32L5xx_HAL_Driver/Src/stm32l5xx_hal_pka.c ****   */
1746:../../Drivers/STM32L5xx_HAL_Driver/Src/stm32l5xx_hal_pka.c **** uint32_t PKA_CheckError(const PKA_HandleTypeDef *hpka, uint32_t mode)
1747:../../Drivers/STM32L5xx_HAL_Driver/Src/stm32l5xx_hal_pka.c **** {
 771              		.loc 1 1747 1 is_stmt 1 view -0
 772              		.cfi_startproc
 773              		@ args = 0, pretend = 0, frame = 0
 774              		@ frame_needed = 0, uses_anonymous_args = 0
 775              		@ link register save eliminated.
1748:../../Drivers/STM32L5xx_HAL_Driver/Src/stm32l5xx_hal_pka.c ****   uint32_t err = HAL_PKA_ERROR_NONE;
 776              		.loc 1 1748 3 view .LVU198
1749:../../Drivers/STM32L5xx_HAL_Driver/Src/stm32l5xx_hal_pka.c **** 
1750:../../Drivers/STM32L5xx_HAL_Driver/Src/stm32l5xx_hal_pka.c ****   /* Check RAMERR error */
1751:../../Drivers/STM32L5xx_HAL_Driver/Src/stm32l5xx_hal_pka.c ****   if (__HAL_PKA_GET_FLAG(hpka, PKA_FLAG_RAMERR) == SET)
 777              		.loc 1 1751 3 view .LVU199
 778              		.loc 1 1751 7 is_stmt 0 view .LVU200
 779 0000 0368     		ldr	r3, [r0]
 780 0002 5868     		ldr	r0, [r3, #4]
 781              	.LVL56:
 782              		.loc 1 1751 6 view .LVU201
 783 0004 10F40020 		ands	r0, r0, #524288
 784 0008 00D0     		beq	.L60
1752:../../Drivers/STM32L5xx_HAL_Driver/Src/stm32l5xx_hal_pka.c ****   {
ARM GAS  /tmp/cc0Rn02K.s 			page 47


1753:../../Drivers/STM32L5xx_HAL_Driver/Src/stm32l5xx_hal_pka.c ****     err |= HAL_PKA_ERROR_RAMERR;
 785              		.loc 1 1753 9 view .LVU202
 786 000a 0220     		movs	r0, #2
 787              	.L60:
 788              	.LVL57:
1754:../../Drivers/STM32L5xx_HAL_Driver/Src/stm32l5xx_hal_pka.c ****   }
1755:../../Drivers/STM32L5xx_HAL_Driver/Src/stm32l5xx_hal_pka.c **** 
1756:../../Drivers/STM32L5xx_HAL_Driver/Src/stm32l5xx_hal_pka.c ****   /* Check ADDRERR error */
1757:../../Drivers/STM32L5xx_HAL_Driver/Src/stm32l5xx_hal_pka.c ****   if (__HAL_PKA_GET_FLAG(hpka, PKA_FLAG_ADDRERR) == SET)
 789              		.loc 1 1757 3 is_stmt 1 view .LVU203
 790              		.loc 1 1757 7 is_stmt 0 view .LVU204
 791 000c 5A68     		ldr	r2, [r3, #4]
 792              		.loc 1 1757 6 view .LVU205
 793 000e 12F4801F 		tst	r2, #1048576
 794 0012 01D0     		beq	.L61
1758:../../Drivers/STM32L5xx_HAL_Driver/Src/stm32l5xx_hal_pka.c ****   {
1759:../../Drivers/STM32L5xx_HAL_Driver/Src/stm32l5xx_hal_pka.c ****     err |= HAL_PKA_ERROR_ADDRERR;
 795              		.loc 1 1759 5 is_stmt 1 view .LVU206
 796              		.loc 1 1759 9 is_stmt 0 view .LVU207
 797 0014 40F00100 		orr	r0, r0, #1
 798              	.LVL58:
 799              	.L61:
1760:../../Drivers/STM32L5xx_HAL_Driver/Src/stm32l5xx_hal_pka.c ****   }
1761:../../Drivers/STM32L5xx_HAL_Driver/Src/stm32l5xx_hal_pka.c **** 
1762:../../Drivers/STM32L5xx_HAL_Driver/Src/stm32l5xx_hal_pka.c ****   /* Check the operation success in case of ECDSA signature */
1763:../../Drivers/STM32L5xx_HAL_Driver/Src/stm32l5xx_hal_pka.c ****   if (mode == PKA_MODE_ECDSA_SIGNATURE)
 800              		.loc 1 1763 3 is_stmt 1 view .LVU208
 801              		.loc 1 1763 6 is_stmt 0 view .LVU209
 802 0018 2429     		cmp	r1, #36
 803 001a 00D0     		beq	.L64
 804              	.L59:
1764:../../Drivers/STM32L5xx_HAL_Driver/Src/stm32l5xx_hal_pka.c ****   {
1765:../../Drivers/STM32L5xx_HAL_Driver/Src/stm32l5xx_hal_pka.c **** #define EDCSA_SIGN_NOERROR 0UL
1766:../../Drivers/STM32L5xx_HAL_Driver/Src/stm32l5xx_hal_pka.c ****     /* If error output result is different from no error, ecsa sign operation need to be repeated *
1767:../../Drivers/STM32L5xx_HAL_Driver/Src/stm32l5xx_hal_pka.c ****     if (hpka->Instance->RAM[PKA_ECDSA_SIGN_OUT_ERROR] != EDCSA_SIGN_NOERROR)
1768:../../Drivers/STM32L5xx_HAL_Driver/Src/stm32l5xx_hal_pka.c ****     {
1769:../../Drivers/STM32L5xx_HAL_Driver/Src/stm32l5xx_hal_pka.c ****       err |= HAL_PKA_ERROR_OPERATION;
1770:../../Drivers/STM32L5xx_HAL_Driver/Src/stm32l5xx_hal_pka.c ****     }
1771:../../Drivers/STM32L5xx_HAL_Driver/Src/stm32l5xx_hal_pka.c ****   }
1772:../../Drivers/STM32L5xx_HAL_Driver/Src/stm32l5xx_hal_pka.c **** 
1773:../../Drivers/STM32L5xx_HAL_Driver/Src/stm32l5xx_hal_pka.c ****   return err;
1774:../../Drivers/STM32L5xx_HAL_Driver/Src/stm32l5xx_hal_pka.c **** }
 805              		.loc 1 1774 1 view .LVU210
 806 001c 7047     		bx	lr
 807              	.L64:
1767:../../Drivers/STM32L5xx_HAL_Driver/Src/stm32l5xx_hal_pka.c ****     {
 808              		.loc 1 1767 5 is_stmt 1 view .LVU211
1767:../../Drivers/STM32L5xx_HAL_Driver/Src/stm32l5xx_hal_pka.c ****     {
 809              		.loc 1 1767 28 is_stmt 0 view .LVU212
 810 001e D3F8E83E 		ldr	r3, [r3, #3816]
1767:../../Drivers/STM32L5xx_HAL_Driver/Src/stm32l5xx_hal_pka.c ****     {
 811              		.loc 1 1767 8 view .LVU213
 812 0022 002B     		cmp	r3, #0
 813 0024 FAD0     		beq	.L59
1769:../../Drivers/STM32L5xx_HAL_Driver/Src/stm32l5xx_hal_pka.c ****     }
 814              		.loc 1 1769 7 is_stmt 1 view .LVU214
1769:../../Drivers/STM32L5xx_HAL_Driver/Src/stm32l5xx_hal_pka.c ****     }
ARM GAS  /tmp/cc0Rn02K.s 			page 48


 815              		.loc 1 1769 11 is_stmt 0 view .LVU215
 816 0026 40F00800 		orr	r0, r0, #8
 817              	.LVL59:
1773:../../Drivers/STM32L5xx_HAL_Driver/Src/stm32l5xx_hal_pka.c **** }
 818              		.loc 1 1773 3 is_stmt 1 view .LVU216
1773:../../Drivers/STM32L5xx_HAL_Driver/Src/stm32l5xx_hal_pka.c **** }
 819              		.loc 1 1773 10 is_stmt 0 view .LVU217
 820 002a F7E7     		b	.L59
 821              		.cfi_endproc
 822              	.LFE259:
 824              		.section	.text.PKA_GetBitSize_u8,"ax",%progbits
 825              		.align	1
 826              		.global	PKA_GetBitSize_u8
 827              		.syntax unified
 828              		.thumb
 829              		.thumb_func
 831              	PKA_GetBitSize_u8:
 832              	.LVL60:
 833              	.LFB260:
1775:../../Drivers/STM32L5xx_HAL_Driver/Src/stm32l5xx_hal_pka.c **** 
1776:../../Drivers/STM32L5xx_HAL_Driver/Src/stm32l5xx_hal_pka.c **** /**
1777:../../Drivers/STM32L5xx_HAL_Driver/Src/stm32l5xx_hal_pka.c ****   * @brief  Get number of bits inside an array of u8.
1778:../../Drivers/STM32L5xx_HAL_Driver/Src/stm32l5xx_hal_pka.c ****   * @param  byteNumber Number of u8 inside the array
1779:../../Drivers/STM32L5xx_HAL_Driver/Src/stm32l5xx_hal_pka.c ****   */
1780:../../Drivers/STM32L5xx_HAL_Driver/Src/stm32l5xx_hal_pka.c **** uint32_t PKA_GetBitSize_u8(uint32_t byteNumber)
1781:../../Drivers/STM32L5xx_HAL_Driver/Src/stm32l5xx_hal_pka.c **** {
 834              		.loc 1 1781 1 is_stmt 1 view -0
 835              		.cfi_startproc
 836              		@ args = 0, pretend = 0, frame = 0
 837              		@ frame_needed = 0, uses_anonymous_args = 0
 838              		@ link register save eliminated.
1782:../../Drivers/STM32L5xx_HAL_Driver/Src/stm32l5xx_hal_pka.c ****   /* Convert from number of uint8_t in an array to the associated number of bits in this array */
1783:../../Drivers/STM32L5xx_HAL_Driver/Src/stm32l5xx_hal_pka.c ****   return byteNumber * 8UL;
 839              		.loc 1 1783 3 view .LVU219
1784:../../Drivers/STM32L5xx_HAL_Driver/Src/stm32l5xx_hal_pka.c **** }
 840              		.loc 1 1784 1 is_stmt 0 view .LVU220
 841 0000 C000     		lsls	r0, r0, #3
 842              	.LVL61:
 843              		.loc 1 1784 1 view .LVU221
 844 0002 7047     		bx	lr
 845              		.cfi_endproc
 846              	.LFE260:
 848              		.section	.text.PKA_GetOptBitSize_u8,"ax",%progbits
 849              		.align	1
 850              		.global	PKA_GetOptBitSize_u8
 851              		.syntax unified
 852              		.thumb
 853              		.thumb_func
 855              	PKA_GetOptBitSize_u8:
 856              	.LVL62:
 857              	.LFB261:
1785:../../Drivers/STM32L5xx_HAL_Driver/Src/stm32l5xx_hal_pka.c **** 
1786:../../Drivers/STM32L5xx_HAL_Driver/Src/stm32l5xx_hal_pka.c **** /**
1787:../../Drivers/STM32L5xx_HAL_Driver/Src/stm32l5xx_hal_pka.c ****   * @brief  Get optimal number of bits inside an array of u8.
1788:../../Drivers/STM32L5xx_HAL_Driver/Src/stm32l5xx_hal_pka.c ****   * @param  byteNumber Number of u8 inside the array
1789:../../Drivers/STM32L5xx_HAL_Driver/Src/stm32l5xx_hal_pka.c ****   * @param  msb Most significant uint8_t of the array
1790:../../Drivers/STM32L5xx_HAL_Driver/Src/stm32l5xx_hal_pka.c ****   */
ARM GAS  /tmp/cc0Rn02K.s 			page 49


1791:../../Drivers/STM32L5xx_HAL_Driver/Src/stm32l5xx_hal_pka.c **** uint32_t PKA_GetOptBitSize_u8(uint32_t byteNumber, uint8_t msb)
1792:../../Drivers/STM32L5xx_HAL_Driver/Src/stm32l5xx_hal_pka.c **** {
 858              		.loc 1 1792 1 is_stmt 1 view -0
 859              		.cfi_startproc
 860              		@ args = 0, pretend = 0, frame = 0
 861              		@ frame_needed = 0, uses_anonymous_args = 0
 862              		@ link register save eliminated.
1793:../../Drivers/STM32L5xx_HAL_Driver/Src/stm32l5xx_hal_pka.c ****   uint32_t position;
 863              		.loc 1 1793 3 view .LVU223
1794:../../Drivers/STM32L5xx_HAL_Driver/Src/stm32l5xx_hal_pka.c **** 
1795:../../Drivers/STM32L5xx_HAL_Driver/Src/stm32l5xx_hal_pka.c ****   position = 32UL - __CLZ(msb);
 864              		.loc 1 1795 3 view .LVU224
 865              	.LBB4:
 866              	.LBI4:
 867              		.file 2 "../../Drivers/CMSIS/Include/cmsis_gcc.h"
   1:../../Drivers/CMSIS/Include/cmsis_gcc.h **** /**************************************************************************//**
   2:../../Drivers/CMSIS/Include/cmsis_gcc.h ****  * @file     cmsis_gcc.h
   3:../../Drivers/CMSIS/Include/cmsis_gcc.h ****  * @brief    CMSIS compiler GCC header file
   4:../../Drivers/CMSIS/Include/cmsis_gcc.h ****  * @version  V5.2.0
   5:../../Drivers/CMSIS/Include/cmsis_gcc.h ****  * @date     08. May 2019
   6:../../Drivers/CMSIS/Include/cmsis_gcc.h ****  ******************************************************************************/
   7:../../Drivers/CMSIS/Include/cmsis_gcc.h **** /*
   8:../../Drivers/CMSIS/Include/cmsis_gcc.h ****  * Copyright (c) 2009-2019 Arm Limited. All rights reserved.
   9:../../Drivers/CMSIS/Include/cmsis_gcc.h ****  *
  10:../../Drivers/CMSIS/Include/cmsis_gcc.h ****  * SPDX-License-Identifier: Apache-2.0
  11:../../Drivers/CMSIS/Include/cmsis_gcc.h ****  *
  12:../../Drivers/CMSIS/Include/cmsis_gcc.h ****  * Licensed under the Apache License, Version 2.0 (the License); you may
  13:../../Drivers/CMSIS/Include/cmsis_gcc.h ****  * not use this file except in compliance with the License.
  14:../../Drivers/CMSIS/Include/cmsis_gcc.h ****  * You may obtain a copy of the License at
  15:../../Drivers/CMSIS/Include/cmsis_gcc.h ****  *
  16:../../Drivers/CMSIS/Include/cmsis_gcc.h ****  * www.apache.org/licenses/LICENSE-2.0
  17:../../Drivers/CMSIS/Include/cmsis_gcc.h ****  *
  18:../../Drivers/CMSIS/Include/cmsis_gcc.h ****  * Unless required by applicable law or agreed to in writing, software
  19:../../Drivers/CMSIS/Include/cmsis_gcc.h ****  * distributed under the License is distributed on an AS IS BASIS, WITHOUT
  20:../../Drivers/CMSIS/Include/cmsis_gcc.h ****  * WARRANTIES OR CONDITIONS OF ANY KIND, either express or implied.
  21:../../Drivers/CMSIS/Include/cmsis_gcc.h ****  * See the License for the specific language governing permissions and
  22:../../Drivers/CMSIS/Include/cmsis_gcc.h ****  * limitations under the License.
  23:../../Drivers/CMSIS/Include/cmsis_gcc.h ****  */
  24:../../Drivers/CMSIS/Include/cmsis_gcc.h **** 
  25:../../Drivers/CMSIS/Include/cmsis_gcc.h **** #ifndef __CMSIS_GCC_H
  26:../../Drivers/CMSIS/Include/cmsis_gcc.h **** #define __CMSIS_GCC_H
  27:../../Drivers/CMSIS/Include/cmsis_gcc.h **** 
  28:../../Drivers/CMSIS/Include/cmsis_gcc.h **** /* ignore some GCC warnings */
  29:../../Drivers/CMSIS/Include/cmsis_gcc.h **** #pragma GCC diagnostic push
  30:../../Drivers/CMSIS/Include/cmsis_gcc.h **** #pragma GCC diagnostic ignored "-Wsign-conversion"
  31:../../Drivers/CMSIS/Include/cmsis_gcc.h **** #pragma GCC diagnostic ignored "-Wconversion"
  32:../../Drivers/CMSIS/Include/cmsis_gcc.h **** #pragma GCC diagnostic ignored "-Wunused-parameter"
  33:../../Drivers/CMSIS/Include/cmsis_gcc.h **** 
  34:../../Drivers/CMSIS/Include/cmsis_gcc.h **** /* Fallback for __has_builtin */
  35:../../Drivers/CMSIS/Include/cmsis_gcc.h **** #ifndef __has_builtin
  36:../../Drivers/CMSIS/Include/cmsis_gcc.h ****   #define __has_builtin(x) (0)
  37:../../Drivers/CMSIS/Include/cmsis_gcc.h **** #endif
  38:../../Drivers/CMSIS/Include/cmsis_gcc.h **** 
  39:../../Drivers/CMSIS/Include/cmsis_gcc.h **** /* CMSIS compiler specific defines */
  40:../../Drivers/CMSIS/Include/cmsis_gcc.h **** #ifndef   __ASM
  41:../../Drivers/CMSIS/Include/cmsis_gcc.h ****   #define __ASM                                  __asm
  42:../../Drivers/CMSIS/Include/cmsis_gcc.h **** #endif
ARM GAS  /tmp/cc0Rn02K.s 			page 50


  43:../../Drivers/CMSIS/Include/cmsis_gcc.h **** #ifndef   __INLINE
  44:../../Drivers/CMSIS/Include/cmsis_gcc.h ****   #define __INLINE                               inline
  45:../../Drivers/CMSIS/Include/cmsis_gcc.h **** #endif
  46:../../Drivers/CMSIS/Include/cmsis_gcc.h **** #ifndef   __STATIC_INLINE
  47:../../Drivers/CMSIS/Include/cmsis_gcc.h ****   #define __STATIC_INLINE                        static inline
  48:../../Drivers/CMSIS/Include/cmsis_gcc.h **** #endif
  49:../../Drivers/CMSIS/Include/cmsis_gcc.h **** #ifndef   __STATIC_FORCEINLINE                 
  50:../../Drivers/CMSIS/Include/cmsis_gcc.h ****   #define __STATIC_FORCEINLINE                   __attribute__((always_inline)) static inline
  51:../../Drivers/CMSIS/Include/cmsis_gcc.h **** #endif                                           
  52:../../Drivers/CMSIS/Include/cmsis_gcc.h **** #ifndef   __NO_RETURN
  53:../../Drivers/CMSIS/Include/cmsis_gcc.h ****   #define __NO_RETURN                            __attribute__((__noreturn__))
  54:../../Drivers/CMSIS/Include/cmsis_gcc.h **** #endif
  55:../../Drivers/CMSIS/Include/cmsis_gcc.h **** #ifndef   __USED
  56:../../Drivers/CMSIS/Include/cmsis_gcc.h ****   #define __USED                                 __attribute__((used))
  57:../../Drivers/CMSIS/Include/cmsis_gcc.h **** #endif
  58:../../Drivers/CMSIS/Include/cmsis_gcc.h **** #ifndef   __WEAK
  59:../../Drivers/CMSIS/Include/cmsis_gcc.h ****   #define __WEAK                                 __attribute__((weak))
  60:../../Drivers/CMSIS/Include/cmsis_gcc.h **** #endif
  61:../../Drivers/CMSIS/Include/cmsis_gcc.h **** #ifndef   __PACKED
  62:../../Drivers/CMSIS/Include/cmsis_gcc.h ****   #define __PACKED                               __attribute__((packed, aligned(1)))
  63:../../Drivers/CMSIS/Include/cmsis_gcc.h **** #endif
  64:../../Drivers/CMSIS/Include/cmsis_gcc.h **** #ifndef   __PACKED_STRUCT
  65:../../Drivers/CMSIS/Include/cmsis_gcc.h ****   #define __PACKED_STRUCT                        struct __attribute__((packed, aligned(1)))
  66:../../Drivers/CMSIS/Include/cmsis_gcc.h **** #endif
  67:../../Drivers/CMSIS/Include/cmsis_gcc.h **** #ifndef   __PACKED_UNION
  68:../../Drivers/CMSIS/Include/cmsis_gcc.h ****   #define __PACKED_UNION                         union __attribute__((packed, aligned(1)))
  69:../../Drivers/CMSIS/Include/cmsis_gcc.h **** #endif
  70:../../Drivers/CMSIS/Include/cmsis_gcc.h **** #ifndef   __UNALIGNED_UINT32        /* deprecated */
  71:../../Drivers/CMSIS/Include/cmsis_gcc.h ****   #pragma GCC diagnostic push
  72:../../Drivers/CMSIS/Include/cmsis_gcc.h ****   #pragma GCC diagnostic ignored "-Wpacked"
  73:../../Drivers/CMSIS/Include/cmsis_gcc.h ****   #pragma GCC diagnostic ignored "-Wattributes"
  74:../../Drivers/CMSIS/Include/cmsis_gcc.h ****   struct __attribute__((packed)) T_UINT32 { uint32_t v; };
  75:../../Drivers/CMSIS/Include/cmsis_gcc.h ****   #pragma GCC diagnostic pop
  76:../../Drivers/CMSIS/Include/cmsis_gcc.h ****   #define __UNALIGNED_UINT32(x)                  (((struct T_UINT32 *)(x))->v)
  77:../../Drivers/CMSIS/Include/cmsis_gcc.h **** #endif
  78:../../Drivers/CMSIS/Include/cmsis_gcc.h **** #ifndef   __UNALIGNED_UINT16_WRITE
  79:../../Drivers/CMSIS/Include/cmsis_gcc.h ****   #pragma GCC diagnostic push
  80:../../Drivers/CMSIS/Include/cmsis_gcc.h ****   #pragma GCC diagnostic ignored "-Wpacked"
  81:../../Drivers/CMSIS/Include/cmsis_gcc.h ****   #pragma GCC diagnostic ignored "-Wattributes"
  82:../../Drivers/CMSIS/Include/cmsis_gcc.h ****   __PACKED_STRUCT T_UINT16_WRITE { uint16_t v; };
  83:../../Drivers/CMSIS/Include/cmsis_gcc.h ****   #pragma GCC diagnostic pop
  84:../../Drivers/CMSIS/Include/cmsis_gcc.h ****   #define __UNALIGNED_UINT16_WRITE(addr, val)    (void)((((struct T_UINT16_WRITE *)(void *)(addr))-
  85:../../Drivers/CMSIS/Include/cmsis_gcc.h **** #endif
  86:../../Drivers/CMSIS/Include/cmsis_gcc.h **** #ifndef   __UNALIGNED_UINT16_READ
  87:../../Drivers/CMSIS/Include/cmsis_gcc.h ****   #pragma GCC diagnostic push
  88:../../Drivers/CMSIS/Include/cmsis_gcc.h ****   #pragma GCC diagnostic ignored "-Wpacked"
  89:../../Drivers/CMSIS/Include/cmsis_gcc.h ****   #pragma GCC diagnostic ignored "-Wattributes"
  90:../../Drivers/CMSIS/Include/cmsis_gcc.h ****   __PACKED_STRUCT T_UINT16_READ { uint16_t v; };
  91:../../Drivers/CMSIS/Include/cmsis_gcc.h ****   #pragma GCC diagnostic pop
  92:../../Drivers/CMSIS/Include/cmsis_gcc.h ****   #define __UNALIGNED_UINT16_READ(addr)          (((const struct T_UINT16_READ *)(const void *)(add
  93:../../Drivers/CMSIS/Include/cmsis_gcc.h **** #endif
  94:../../Drivers/CMSIS/Include/cmsis_gcc.h **** #ifndef   __UNALIGNED_UINT32_WRITE
  95:../../Drivers/CMSIS/Include/cmsis_gcc.h ****   #pragma GCC diagnostic push
  96:../../Drivers/CMSIS/Include/cmsis_gcc.h ****   #pragma GCC diagnostic ignored "-Wpacked"
  97:../../Drivers/CMSIS/Include/cmsis_gcc.h ****   #pragma GCC diagnostic ignored "-Wattributes"
  98:../../Drivers/CMSIS/Include/cmsis_gcc.h ****   __PACKED_STRUCT T_UINT32_WRITE { uint32_t v; };
  99:../../Drivers/CMSIS/Include/cmsis_gcc.h ****   #pragma GCC diagnostic pop
ARM GAS  /tmp/cc0Rn02K.s 			page 51


 100:../../Drivers/CMSIS/Include/cmsis_gcc.h ****   #define __UNALIGNED_UINT32_WRITE(addr, val)    (void)((((struct T_UINT32_WRITE *)(void *)(addr))-
 101:../../Drivers/CMSIS/Include/cmsis_gcc.h **** #endif
 102:../../Drivers/CMSIS/Include/cmsis_gcc.h **** #ifndef   __UNALIGNED_UINT32_READ
 103:../../Drivers/CMSIS/Include/cmsis_gcc.h ****   #pragma GCC diagnostic push
 104:../../Drivers/CMSIS/Include/cmsis_gcc.h ****   #pragma GCC diagnostic ignored "-Wpacked"
 105:../../Drivers/CMSIS/Include/cmsis_gcc.h ****   #pragma GCC diagnostic ignored "-Wattributes"
 106:../../Drivers/CMSIS/Include/cmsis_gcc.h ****   __PACKED_STRUCT T_UINT32_READ { uint32_t v; };
 107:../../Drivers/CMSIS/Include/cmsis_gcc.h ****   #pragma GCC diagnostic pop
 108:../../Drivers/CMSIS/Include/cmsis_gcc.h ****   #define __UNALIGNED_UINT32_READ(addr)          (((const struct T_UINT32_READ *)(const void *)(add
 109:../../Drivers/CMSIS/Include/cmsis_gcc.h **** #endif
 110:../../Drivers/CMSIS/Include/cmsis_gcc.h **** #ifndef   __ALIGNED
 111:../../Drivers/CMSIS/Include/cmsis_gcc.h ****   #define __ALIGNED(x)                           __attribute__((aligned(x)))
 112:../../Drivers/CMSIS/Include/cmsis_gcc.h **** #endif
 113:../../Drivers/CMSIS/Include/cmsis_gcc.h **** #ifndef   __RESTRICT
 114:../../Drivers/CMSIS/Include/cmsis_gcc.h ****   #define __RESTRICT                             __restrict
 115:../../Drivers/CMSIS/Include/cmsis_gcc.h **** #endif
 116:../../Drivers/CMSIS/Include/cmsis_gcc.h **** #ifndef   __COMPILER_BARRIER
 117:../../Drivers/CMSIS/Include/cmsis_gcc.h ****   #define __COMPILER_BARRIER()                   __ASM volatile("":::"memory")
 118:../../Drivers/CMSIS/Include/cmsis_gcc.h **** #endif
 119:../../Drivers/CMSIS/Include/cmsis_gcc.h **** 
 120:../../Drivers/CMSIS/Include/cmsis_gcc.h **** /* #########################  Startup and Lowlevel Init  ######################## */
 121:../../Drivers/CMSIS/Include/cmsis_gcc.h **** 
 122:../../Drivers/CMSIS/Include/cmsis_gcc.h **** #ifndef __PROGRAM_START
 123:../../Drivers/CMSIS/Include/cmsis_gcc.h **** 
 124:../../Drivers/CMSIS/Include/cmsis_gcc.h **** /**
 125:../../Drivers/CMSIS/Include/cmsis_gcc.h ****   \brief   Initializes data and bss sections
 126:../../Drivers/CMSIS/Include/cmsis_gcc.h ****   \details This default implementations initialized all data and additional bss
 127:../../Drivers/CMSIS/Include/cmsis_gcc.h ****            sections relying on .copy.table and .zero.table specified properly
 128:../../Drivers/CMSIS/Include/cmsis_gcc.h ****            in the used linker script.
 129:../../Drivers/CMSIS/Include/cmsis_gcc.h ****   
 130:../../Drivers/CMSIS/Include/cmsis_gcc.h ****  */
 131:../../Drivers/CMSIS/Include/cmsis_gcc.h **** __STATIC_FORCEINLINE __NO_RETURN void __cmsis_start(void)
 132:../../Drivers/CMSIS/Include/cmsis_gcc.h **** {
 133:../../Drivers/CMSIS/Include/cmsis_gcc.h ****   extern void _start(void) __NO_RETURN;
 134:../../Drivers/CMSIS/Include/cmsis_gcc.h ****   
 135:../../Drivers/CMSIS/Include/cmsis_gcc.h ****   typedef struct {
 136:../../Drivers/CMSIS/Include/cmsis_gcc.h ****     uint32_t const* src;
 137:../../Drivers/CMSIS/Include/cmsis_gcc.h ****     uint32_t* dest;
 138:../../Drivers/CMSIS/Include/cmsis_gcc.h ****     uint32_t  wlen;
 139:../../Drivers/CMSIS/Include/cmsis_gcc.h ****   } __copy_table_t;
 140:../../Drivers/CMSIS/Include/cmsis_gcc.h ****   
 141:../../Drivers/CMSIS/Include/cmsis_gcc.h ****   typedef struct {
 142:../../Drivers/CMSIS/Include/cmsis_gcc.h ****     uint32_t* dest;
 143:../../Drivers/CMSIS/Include/cmsis_gcc.h ****     uint32_t  wlen;
 144:../../Drivers/CMSIS/Include/cmsis_gcc.h ****   } __zero_table_t;
 145:../../Drivers/CMSIS/Include/cmsis_gcc.h ****   
 146:../../Drivers/CMSIS/Include/cmsis_gcc.h ****   extern const __copy_table_t __copy_table_start__;
 147:../../Drivers/CMSIS/Include/cmsis_gcc.h ****   extern const __copy_table_t __copy_table_end__;
 148:../../Drivers/CMSIS/Include/cmsis_gcc.h ****   extern const __zero_table_t __zero_table_start__;
 149:../../Drivers/CMSIS/Include/cmsis_gcc.h ****   extern const __zero_table_t __zero_table_end__;
 150:../../Drivers/CMSIS/Include/cmsis_gcc.h **** 
 151:../../Drivers/CMSIS/Include/cmsis_gcc.h ****   for (__copy_table_t const* pTable = &__copy_table_start__; pTable < &__copy_table_end__; ++pTable
 152:../../Drivers/CMSIS/Include/cmsis_gcc.h ****     for(uint32_t i=0u; i<pTable->wlen; ++i) {
 153:../../Drivers/CMSIS/Include/cmsis_gcc.h ****       pTable->dest[i] = pTable->src[i];
 154:../../Drivers/CMSIS/Include/cmsis_gcc.h ****     }
 155:../../Drivers/CMSIS/Include/cmsis_gcc.h ****   }
 156:../../Drivers/CMSIS/Include/cmsis_gcc.h ****  
ARM GAS  /tmp/cc0Rn02K.s 			page 52


 157:../../Drivers/CMSIS/Include/cmsis_gcc.h ****   for (__zero_table_t const* pTable = &__zero_table_start__; pTable < &__zero_table_end__; ++pTable
 158:../../Drivers/CMSIS/Include/cmsis_gcc.h ****     for(uint32_t i=0u; i<pTable->wlen; ++i) {
 159:../../Drivers/CMSIS/Include/cmsis_gcc.h ****       pTable->dest[i] = 0u;
 160:../../Drivers/CMSIS/Include/cmsis_gcc.h ****     }
 161:../../Drivers/CMSIS/Include/cmsis_gcc.h ****   }
 162:../../Drivers/CMSIS/Include/cmsis_gcc.h ****  
 163:../../Drivers/CMSIS/Include/cmsis_gcc.h ****   _start();
 164:../../Drivers/CMSIS/Include/cmsis_gcc.h **** }
 165:../../Drivers/CMSIS/Include/cmsis_gcc.h ****   
 166:../../Drivers/CMSIS/Include/cmsis_gcc.h **** #define __PROGRAM_START           __cmsis_start
 167:../../Drivers/CMSIS/Include/cmsis_gcc.h **** #endif
 168:../../Drivers/CMSIS/Include/cmsis_gcc.h **** 
 169:../../Drivers/CMSIS/Include/cmsis_gcc.h **** #ifndef __INITIAL_SP
 170:../../Drivers/CMSIS/Include/cmsis_gcc.h **** #define __INITIAL_SP              __StackTop
 171:../../Drivers/CMSIS/Include/cmsis_gcc.h **** #endif
 172:../../Drivers/CMSIS/Include/cmsis_gcc.h **** 
 173:../../Drivers/CMSIS/Include/cmsis_gcc.h **** #ifndef __STACK_LIMIT
 174:../../Drivers/CMSIS/Include/cmsis_gcc.h **** #define __STACK_LIMIT             __StackLimit
 175:../../Drivers/CMSIS/Include/cmsis_gcc.h **** #endif
 176:../../Drivers/CMSIS/Include/cmsis_gcc.h **** 
 177:../../Drivers/CMSIS/Include/cmsis_gcc.h **** #ifndef __VECTOR_TABLE
 178:../../Drivers/CMSIS/Include/cmsis_gcc.h **** #define __VECTOR_TABLE            __Vectors
 179:../../Drivers/CMSIS/Include/cmsis_gcc.h **** #endif
 180:../../Drivers/CMSIS/Include/cmsis_gcc.h **** 
 181:../../Drivers/CMSIS/Include/cmsis_gcc.h **** #ifndef __VECTOR_TABLE_ATTRIBUTE
 182:../../Drivers/CMSIS/Include/cmsis_gcc.h **** #define __VECTOR_TABLE_ATTRIBUTE  __attribute((used, section(".vectors")))
 183:../../Drivers/CMSIS/Include/cmsis_gcc.h **** #endif
 184:../../Drivers/CMSIS/Include/cmsis_gcc.h **** 
 185:../../Drivers/CMSIS/Include/cmsis_gcc.h **** /* ###########################  Core Function Access  ########################### */
 186:../../Drivers/CMSIS/Include/cmsis_gcc.h **** /** \ingroup  CMSIS_Core_FunctionInterface
 187:../../Drivers/CMSIS/Include/cmsis_gcc.h ****     \defgroup CMSIS_Core_RegAccFunctions CMSIS Core Register Access Functions
 188:../../Drivers/CMSIS/Include/cmsis_gcc.h ****   @{
 189:../../Drivers/CMSIS/Include/cmsis_gcc.h ****  */
 190:../../Drivers/CMSIS/Include/cmsis_gcc.h **** 
 191:../../Drivers/CMSIS/Include/cmsis_gcc.h **** /**
 192:../../Drivers/CMSIS/Include/cmsis_gcc.h ****   \brief   Enable IRQ Interrupts
 193:../../Drivers/CMSIS/Include/cmsis_gcc.h ****   \details Enables IRQ interrupts by clearing the I-bit in the CPSR.
 194:../../Drivers/CMSIS/Include/cmsis_gcc.h ****            Can only be executed in Privileged modes.
 195:../../Drivers/CMSIS/Include/cmsis_gcc.h ****  */
 196:../../Drivers/CMSIS/Include/cmsis_gcc.h **** __STATIC_FORCEINLINE void __enable_irq(void)
 197:../../Drivers/CMSIS/Include/cmsis_gcc.h **** {
 198:../../Drivers/CMSIS/Include/cmsis_gcc.h ****   __ASM volatile ("cpsie i" : : : "memory");
 199:../../Drivers/CMSIS/Include/cmsis_gcc.h **** }
 200:../../Drivers/CMSIS/Include/cmsis_gcc.h **** 
 201:../../Drivers/CMSIS/Include/cmsis_gcc.h **** 
 202:../../Drivers/CMSIS/Include/cmsis_gcc.h **** /**
 203:../../Drivers/CMSIS/Include/cmsis_gcc.h ****   \brief   Disable IRQ Interrupts
 204:../../Drivers/CMSIS/Include/cmsis_gcc.h ****   \details Disables IRQ interrupts by setting the I-bit in the CPSR.
 205:../../Drivers/CMSIS/Include/cmsis_gcc.h ****            Can only be executed in Privileged modes.
 206:../../Drivers/CMSIS/Include/cmsis_gcc.h ****  */
 207:../../Drivers/CMSIS/Include/cmsis_gcc.h **** __STATIC_FORCEINLINE void __disable_irq(void)
 208:../../Drivers/CMSIS/Include/cmsis_gcc.h **** {
 209:../../Drivers/CMSIS/Include/cmsis_gcc.h ****   __ASM volatile ("cpsid i" : : : "memory");
 210:../../Drivers/CMSIS/Include/cmsis_gcc.h **** }
 211:../../Drivers/CMSIS/Include/cmsis_gcc.h **** 
 212:../../Drivers/CMSIS/Include/cmsis_gcc.h **** 
 213:../../Drivers/CMSIS/Include/cmsis_gcc.h **** /**
ARM GAS  /tmp/cc0Rn02K.s 			page 53


 214:../../Drivers/CMSIS/Include/cmsis_gcc.h ****   \brief   Get Control Register
 215:../../Drivers/CMSIS/Include/cmsis_gcc.h ****   \details Returns the content of the Control Register.
 216:../../Drivers/CMSIS/Include/cmsis_gcc.h ****   \return               Control Register value
 217:../../Drivers/CMSIS/Include/cmsis_gcc.h ****  */
 218:../../Drivers/CMSIS/Include/cmsis_gcc.h **** __STATIC_FORCEINLINE uint32_t __get_CONTROL(void)
 219:../../Drivers/CMSIS/Include/cmsis_gcc.h **** {
 220:../../Drivers/CMSIS/Include/cmsis_gcc.h ****   uint32_t result;
 221:../../Drivers/CMSIS/Include/cmsis_gcc.h **** 
 222:../../Drivers/CMSIS/Include/cmsis_gcc.h ****   __ASM volatile ("MRS %0, control" : "=r" (result) );
 223:../../Drivers/CMSIS/Include/cmsis_gcc.h ****   return(result);
 224:../../Drivers/CMSIS/Include/cmsis_gcc.h **** }
 225:../../Drivers/CMSIS/Include/cmsis_gcc.h **** 
 226:../../Drivers/CMSIS/Include/cmsis_gcc.h **** 
 227:../../Drivers/CMSIS/Include/cmsis_gcc.h **** #if (defined (__ARM_FEATURE_CMSE ) && (__ARM_FEATURE_CMSE == 3))
 228:../../Drivers/CMSIS/Include/cmsis_gcc.h **** /**
 229:../../Drivers/CMSIS/Include/cmsis_gcc.h ****   \brief   Get Control Register (non-secure)
 230:../../Drivers/CMSIS/Include/cmsis_gcc.h ****   \details Returns the content of the non-secure Control Register when in secure mode.
 231:../../Drivers/CMSIS/Include/cmsis_gcc.h ****   \return               non-secure Control Register value
 232:../../Drivers/CMSIS/Include/cmsis_gcc.h ****  */
 233:../../Drivers/CMSIS/Include/cmsis_gcc.h **** __STATIC_FORCEINLINE uint32_t __TZ_get_CONTROL_NS(void)
 234:../../Drivers/CMSIS/Include/cmsis_gcc.h **** {
 235:../../Drivers/CMSIS/Include/cmsis_gcc.h ****   uint32_t result;
 236:../../Drivers/CMSIS/Include/cmsis_gcc.h **** 
 237:../../Drivers/CMSIS/Include/cmsis_gcc.h ****   __ASM volatile ("MRS %0, control_ns" : "=r" (result) );
 238:../../Drivers/CMSIS/Include/cmsis_gcc.h ****   return(result);
 239:../../Drivers/CMSIS/Include/cmsis_gcc.h **** }
 240:../../Drivers/CMSIS/Include/cmsis_gcc.h **** #endif
 241:../../Drivers/CMSIS/Include/cmsis_gcc.h **** 
 242:../../Drivers/CMSIS/Include/cmsis_gcc.h **** 
 243:../../Drivers/CMSIS/Include/cmsis_gcc.h **** /**
 244:../../Drivers/CMSIS/Include/cmsis_gcc.h ****   \brief   Set Control Register
 245:../../Drivers/CMSIS/Include/cmsis_gcc.h ****   \details Writes the given value to the Control Register.
 246:../../Drivers/CMSIS/Include/cmsis_gcc.h ****   \param [in]    control  Control Register value to set
 247:../../Drivers/CMSIS/Include/cmsis_gcc.h ****  */
 248:../../Drivers/CMSIS/Include/cmsis_gcc.h **** __STATIC_FORCEINLINE void __set_CONTROL(uint32_t control)
 249:../../Drivers/CMSIS/Include/cmsis_gcc.h **** {
 250:../../Drivers/CMSIS/Include/cmsis_gcc.h ****   __ASM volatile ("MSR control, %0" : : "r" (control) : "memory");
 251:../../Drivers/CMSIS/Include/cmsis_gcc.h **** }
 252:../../Drivers/CMSIS/Include/cmsis_gcc.h **** 
 253:../../Drivers/CMSIS/Include/cmsis_gcc.h **** 
 254:../../Drivers/CMSIS/Include/cmsis_gcc.h **** #if (defined (__ARM_FEATURE_CMSE ) && (__ARM_FEATURE_CMSE == 3))
 255:../../Drivers/CMSIS/Include/cmsis_gcc.h **** /**
 256:../../Drivers/CMSIS/Include/cmsis_gcc.h ****   \brief   Set Control Register (non-secure)
 257:../../Drivers/CMSIS/Include/cmsis_gcc.h ****   \details Writes the given value to the non-secure Control Register when in secure state.
 258:../../Drivers/CMSIS/Include/cmsis_gcc.h ****   \param [in]    control  Control Register value to set
 259:../../Drivers/CMSIS/Include/cmsis_gcc.h ****  */
 260:../../Drivers/CMSIS/Include/cmsis_gcc.h **** __STATIC_FORCEINLINE void __TZ_set_CONTROL_NS(uint32_t control)
 261:../../Drivers/CMSIS/Include/cmsis_gcc.h **** {
 262:../../Drivers/CMSIS/Include/cmsis_gcc.h ****   __ASM volatile ("MSR control_ns, %0" : : "r" (control) : "memory");
 263:../../Drivers/CMSIS/Include/cmsis_gcc.h **** }
 264:../../Drivers/CMSIS/Include/cmsis_gcc.h **** #endif
 265:../../Drivers/CMSIS/Include/cmsis_gcc.h **** 
 266:../../Drivers/CMSIS/Include/cmsis_gcc.h **** 
 267:../../Drivers/CMSIS/Include/cmsis_gcc.h **** /**
 268:../../Drivers/CMSIS/Include/cmsis_gcc.h ****   \brief   Get IPSR Register
 269:../../Drivers/CMSIS/Include/cmsis_gcc.h ****   \details Returns the content of the IPSR Register.
 270:../../Drivers/CMSIS/Include/cmsis_gcc.h ****   \return               IPSR Register value
ARM GAS  /tmp/cc0Rn02K.s 			page 54


 271:../../Drivers/CMSIS/Include/cmsis_gcc.h ****  */
 272:../../Drivers/CMSIS/Include/cmsis_gcc.h **** __STATIC_FORCEINLINE uint32_t __get_IPSR(void)
 273:../../Drivers/CMSIS/Include/cmsis_gcc.h **** {
 274:../../Drivers/CMSIS/Include/cmsis_gcc.h ****   uint32_t result;
 275:../../Drivers/CMSIS/Include/cmsis_gcc.h **** 
 276:../../Drivers/CMSIS/Include/cmsis_gcc.h ****   __ASM volatile ("MRS %0, ipsr" : "=r" (result) );
 277:../../Drivers/CMSIS/Include/cmsis_gcc.h ****   return(result);
 278:../../Drivers/CMSIS/Include/cmsis_gcc.h **** }
 279:../../Drivers/CMSIS/Include/cmsis_gcc.h **** 
 280:../../Drivers/CMSIS/Include/cmsis_gcc.h **** 
 281:../../Drivers/CMSIS/Include/cmsis_gcc.h **** /**
 282:../../Drivers/CMSIS/Include/cmsis_gcc.h ****   \brief   Get APSR Register
 283:../../Drivers/CMSIS/Include/cmsis_gcc.h ****   \details Returns the content of the APSR Register.
 284:../../Drivers/CMSIS/Include/cmsis_gcc.h ****   \return               APSR Register value
 285:../../Drivers/CMSIS/Include/cmsis_gcc.h ****  */
 286:../../Drivers/CMSIS/Include/cmsis_gcc.h **** __STATIC_FORCEINLINE uint32_t __get_APSR(void)
 287:../../Drivers/CMSIS/Include/cmsis_gcc.h **** {
 288:../../Drivers/CMSIS/Include/cmsis_gcc.h ****   uint32_t result;
 289:../../Drivers/CMSIS/Include/cmsis_gcc.h **** 
 290:../../Drivers/CMSIS/Include/cmsis_gcc.h ****   __ASM volatile ("MRS %0, apsr" : "=r" (result) );
 291:../../Drivers/CMSIS/Include/cmsis_gcc.h ****   return(result);
 292:../../Drivers/CMSIS/Include/cmsis_gcc.h **** }
 293:../../Drivers/CMSIS/Include/cmsis_gcc.h **** 
 294:../../Drivers/CMSIS/Include/cmsis_gcc.h **** 
 295:../../Drivers/CMSIS/Include/cmsis_gcc.h **** /**
 296:../../Drivers/CMSIS/Include/cmsis_gcc.h ****   \brief   Get xPSR Register
 297:../../Drivers/CMSIS/Include/cmsis_gcc.h ****   \details Returns the content of the xPSR Register.
 298:../../Drivers/CMSIS/Include/cmsis_gcc.h ****   \return               xPSR Register value
 299:../../Drivers/CMSIS/Include/cmsis_gcc.h ****  */
 300:../../Drivers/CMSIS/Include/cmsis_gcc.h **** __STATIC_FORCEINLINE uint32_t __get_xPSR(void)
 301:../../Drivers/CMSIS/Include/cmsis_gcc.h **** {
 302:../../Drivers/CMSIS/Include/cmsis_gcc.h ****   uint32_t result;
 303:../../Drivers/CMSIS/Include/cmsis_gcc.h **** 
 304:../../Drivers/CMSIS/Include/cmsis_gcc.h ****   __ASM volatile ("MRS %0, xpsr" : "=r" (result) );
 305:../../Drivers/CMSIS/Include/cmsis_gcc.h ****   return(result);
 306:../../Drivers/CMSIS/Include/cmsis_gcc.h **** }
 307:../../Drivers/CMSIS/Include/cmsis_gcc.h **** 
 308:../../Drivers/CMSIS/Include/cmsis_gcc.h **** 
 309:../../Drivers/CMSIS/Include/cmsis_gcc.h **** /**
 310:../../Drivers/CMSIS/Include/cmsis_gcc.h ****   \brief   Get Process Stack Pointer
