ARM GAS  /tmp/cczkRLel.s 			page 1


   1              		.cpu cortex-m33
   2              		.arch armv8-m.main
   3              		.fpu fpv4-sp-d16
   4              		.arch_extension dsp
   5              		.eabi_attribute 27, 1
   6              		.eabi_attribute 28, 1
   7              		.eabi_attribute 20, 1
   8              		.eabi_attribute 21, 1
   9              		.eabi_attribute 23, 3
  10              		.eabi_attribute 24, 1
  11              		.eabi_attribute 25, 1
  12              		.eabi_attribute 26, 1
  13              		.eabi_attribute 30, 1
  14              		.eabi_attribute 34, 1
  15              		.eabi_attribute 18, 4
  16              		.file	"stm32l5xx_hal_gtzc.c"
  17              		.text
  18              	.Ltext0:
  19              		.cfi_sections	.debug_frame
  20              		.file 1 "../../Drivers/STM32L5xx_HAL_Driver/Src/stm32l5xx_hal_gtzc.c"
  21              		.section	.text.HAL_GTZC_TZSC_ConfigPeriphAttributes,"ax",%progbits
  22              		.align	1
  23              		.global	HAL_GTZC_TZSC_ConfigPeriphAttributes
  24              		.syntax unified
  25              		.thumb
  26              		.thumb_func
  28              	HAL_GTZC_TZSC_ConfigPeriphAttributes:
  29              	.LVL0:
  30              	.LFB202:
   1:../../Drivers/STM32L5xx_HAL_Driver/Src/stm32l5xx_hal_gtzc.c **** /**
   2:../../Drivers/STM32L5xx_HAL_Driver/Src/stm32l5xx_hal_gtzc.c ****   ******************************************************************************
   3:../../Drivers/STM32L5xx_HAL_Driver/Src/stm32l5xx_hal_gtzc.c ****   * @file    stm32l5xx_hal_gtzc.c
   4:../../Drivers/STM32L5xx_HAL_Driver/Src/stm32l5xx_hal_gtzc.c ****   * @author  MCD Application Team
   5:../../Drivers/STM32L5xx_HAL_Driver/Src/stm32l5xx_hal_gtzc.c ****   * @brief   GTZC HAL module driver.
   6:../../Drivers/STM32L5xx_HAL_Driver/Src/stm32l5xx_hal_gtzc.c ****   *          This file provides firmware functions to manage the following
   7:../../Drivers/STM32L5xx_HAL_Driver/Src/stm32l5xx_hal_gtzc.c ****   *          functionalities of GTZC peripheral:
   8:../../Drivers/STM32L5xx_HAL_Driver/Src/stm32l5xx_hal_gtzc.c ****   *           + TZSC Initialization and Configuration functions
   9:../../Drivers/STM32L5xx_HAL_Driver/Src/stm32l5xx_hal_gtzc.c ****   *           + TZSC-MPCWM Initialization and Configuration functions
  10:../../Drivers/STM32L5xx_HAL_Driver/Src/stm32l5xx_hal_gtzc.c ****   *           + MPCBB Initialization and Configuration functions
  11:../../Drivers/STM32L5xx_HAL_Driver/Src/stm32l5xx_hal_gtzc.c ****   *           + TZSC, TZSC-MPCWM and MPCBB Lock functions
  12:../../Drivers/STM32L5xx_HAL_Driver/Src/stm32l5xx_hal_gtzc.c ****   *           + TZIC Initialization and Configuration functions
  13:../../Drivers/STM32L5xx_HAL_Driver/Src/stm32l5xx_hal_gtzc.c ****   *
  14:../../Drivers/STM32L5xx_HAL_Driver/Src/stm32l5xx_hal_gtzc.c ****   ******************************************************************************
  15:../../Drivers/STM32L5xx_HAL_Driver/Src/stm32l5xx_hal_gtzc.c ****   * @attention
  16:../../Drivers/STM32L5xx_HAL_Driver/Src/stm32l5xx_hal_gtzc.c ****   *
  17:../../Drivers/STM32L5xx_HAL_Driver/Src/stm32l5xx_hal_gtzc.c ****   * Copyright (c) 2019 STMicroelectronics.
  18:../../Drivers/STM32L5xx_HAL_Driver/Src/stm32l5xx_hal_gtzc.c ****   * All rights reserved.
  19:../../Drivers/STM32L5xx_HAL_Driver/Src/stm32l5xx_hal_gtzc.c ****   *
  20:../../Drivers/STM32L5xx_HAL_Driver/Src/stm32l5xx_hal_gtzc.c ****   * This software is licensed under terms that can be found in the LICENSE file
  21:../../Drivers/STM32L5xx_HAL_Driver/Src/stm32l5xx_hal_gtzc.c ****   * in the root directory of this software component.
  22:../../Drivers/STM32L5xx_HAL_Driver/Src/stm32l5xx_hal_gtzc.c ****   * If no LICENSE file comes with this software, it is provided AS-IS.
  23:../../Drivers/STM32L5xx_HAL_Driver/Src/stm32l5xx_hal_gtzc.c ****   *
  24:../../Drivers/STM32L5xx_HAL_Driver/Src/stm32l5xx_hal_gtzc.c ****   ******************************************************************************
  25:../../Drivers/STM32L5xx_HAL_Driver/Src/stm32l5xx_hal_gtzc.c ****   @verbatim
  26:../../Drivers/STM32L5xx_HAL_Driver/Src/stm32l5xx_hal_gtzc.c ****   ==============================================================================
  27:../../Drivers/STM32L5xx_HAL_Driver/Src/stm32l5xx_hal_gtzc.c ****                 ##### GTZC main features #####
  28:../../Drivers/STM32L5xx_HAL_Driver/Src/stm32l5xx_hal_gtzc.c ****   ==============================================================================
ARM GAS  /tmp/cczkRLel.s 			page 2


  29:../../Drivers/STM32L5xx_HAL_Driver/Src/stm32l5xx_hal_gtzc.c ****   [..]
  30:../../Drivers/STM32L5xx_HAL_Driver/Src/stm32l5xx_hal_gtzc.c ****     (+) Global TrustZone Controller (GTZC) composed of three sub-blocks:
  31:../../Drivers/STM32L5xx_HAL_Driver/Src/stm32l5xx_hal_gtzc.c ****       (++) TZSC: TrustZone security controller
  32:../../Drivers/STM32L5xx_HAL_Driver/Src/stm32l5xx_hal_gtzc.c ****             This sub-block defines the secure/privileged state of master and slave
  33:../../Drivers/STM32L5xx_HAL_Driver/Src/stm32l5xx_hal_gtzc.c ****             peripherals. It also controls the secure state of subregions
  34:../../Drivers/STM32L5xx_HAL_Driver/Src/stm32l5xx_hal_gtzc.c ****             for the watermark memory peripheral controller (MPCWM).
  35:../../Drivers/STM32L5xx_HAL_Driver/Src/stm32l5xx_hal_gtzc.c ****       (++) MPCBB: Block-Based memory protection controller
  36:../../Drivers/STM32L5xx_HAL_Driver/Src/stm32l5xx_hal_gtzc.c ****             This sub-block defines the secure state of all blocks
  37:../../Drivers/STM32L5xx_HAL_Driver/Src/stm32l5xx_hal_gtzc.c ****             (256-byte pages) of the associated SRAM.
  38:../../Drivers/STM32L5xx_HAL_Driver/Src/stm32l5xx_hal_gtzc.c ****       (++) TZIC: TrustZone illegal access controller
  39:../../Drivers/STM32L5xx_HAL_Driver/Src/stm32l5xx_hal_gtzc.c ****             This sub-block gathers all illegal access events in the system and
  40:../../Drivers/STM32L5xx_HAL_Driver/Src/stm32l5xx_hal_gtzc.c ****             generates a secure interrupt towards NVIC.
  41:../../Drivers/STM32L5xx_HAL_Driver/Src/stm32l5xx_hal_gtzc.c **** 
  42:../../Drivers/STM32L5xx_HAL_Driver/Src/stm32l5xx_hal_gtzc.c ****     (+) These sub-blocks are used to configure TrustZone system security in
  43:../../Drivers/STM32L5xx_HAL_Driver/Src/stm32l5xx_hal_gtzc.c ****         a product having bus agents with programmable-security and privileged
  44:../../Drivers/STM32L5xx_HAL_Driver/Src/stm32l5xx_hal_gtzc.c ****         attributes (securable) such as:
  45:../../Drivers/STM32L5xx_HAL_Driver/Src/stm32l5xx_hal_gtzc.c ****       (++) on-chip RAM with programmable secure blocks (pages)
  46:../../Drivers/STM32L5xx_HAL_Driver/Src/stm32l5xx_hal_gtzc.c ****       (++) AHB and APB peripherals with programmable security and/or privilege access
  47:../../Drivers/STM32L5xx_HAL_Driver/Src/stm32l5xx_hal_gtzc.c ****       (++) AHB master granted as secure and/or privilege
  48:../../Drivers/STM32L5xx_HAL_Driver/Src/stm32l5xx_hal_gtzc.c ****       (++) off-chip memories with secure areas
  49:../../Drivers/STM32L5xx_HAL_Driver/Src/stm32l5xx_hal_gtzc.c **** 
  50:../../Drivers/STM32L5xx_HAL_Driver/Src/stm32l5xx_hal_gtzc.c ****   [..]
  51:../../Drivers/STM32L5xx_HAL_Driver/Src/stm32l5xx_hal_gtzc.c ****     (+) TZIC accessible only with secure privileged transactions.
  52:../../Drivers/STM32L5xx_HAL_Driver/Src/stm32l5xx_hal_gtzc.c ****     (+) Secure and non-secure access supported for privileged and unprivileged
  53:../../Drivers/STM32L5xx_HAL_Driver/Src/stm32l5xx_hal_gtzc.c ****         part of TZSC and MPCBB
  54:../../Drivers/STM32L5xx_HAL_Driver/Src/stm32l5xx_hal_gtzc.c **** 
  55:../../Drivers/STM32L5xx_HAL_Driver/Src/stm32l5xx_hal_gtzc.c ****   ==============================================================================
  56:../../Drivers/STM32L5xx_HAL_Driver/Src/stm32l5xx_hal_gtzc.c ****                          ##### How to use this driver #####
  57:../../Drivers/STM32L5xx_HAL_Driver/Src/stm32l5xx_hal_gtzc.c ****   ==============================================================================
  58:../../Drivers/STM32L5xx_HAL_Driver/Src/stm32l5xx_hal_gtzc.c ****   [..]
  59:../../Drivers/STM32L5xx_HAL_Driver/Src/stm32l5xx_hal_gtzc.c ****     The GTZC HAL driver can be used as follows:
  60:../../Drivers/STM32L5xx_HAL_Driver/Src/stm32l5xx_hal_gtzc.c **** 
  61:../../Drivers/STM32L5xx_HAL_Driver/Src/stm32l5xx_hal_gtzc.c ****     (#) Configure or get back securable peripherals attributes using
  62:../../Drivers/STM32L5xx_HAL_Driver/Src/stm32l5xx_hal_gtzc.c ****         HAL_GTZC_TZSC_ConfigPeriphAttributes() / HAL_GTZC_TZSC_GetConfigPeriphAttributes()
  63:../../Drivers/STM32L5xx_HAL_Driver/Src/stm32l5xx_hal_gtzc.c **** 
  64:../../Drivers/STM32L5xx_HAL_Driver/Src/stm32l5xx_hal_gtzc.c ****     (#) Configure or get back MPCWM memories attributes using
  65:../../Drivers/STM32L5xx_HAL_Driver/Src/stm32l5xx_hal_gtzc.c ****         HAL_GTZC_TZSC_MPCWM_ConfigMemAttributes() / HAL_GTZC_TZSC_MPCWM_GetConfigMemAttributes()
  66:../../Drivers/STM32L5xx_HAL_Driver/Src/stm32l5xx_hal_gtzc.c **** 
  67:../../Drivers/STM32L5xx_HAL_Driver/Src/stm32l5xx_hal_gtzc.c ****     (#) Lock TZSC sub-block or get lock status using HAL_GTZC_TZSC_Lock() /
  68:../../Drivers/STM32L5xx_HAL_Driver/Src/stm32l5xx_hal_gtzc.c ****         HAL_GTZC_TZSC_GetLock()
  69:../../Drivers/STM32L5xx_HAL_Driver/Src/stm32l5xx_hal_gtzc.c **** 
  70:../../Drivers/STM32L5xx_HAL_Driver/Src/stm32l5xx_hal_gtzc.c ****     (#) Configure or get back MPCBB memories complete configuration using
  71:../../Drivers/STM32L5xx_HAL_Driver/Src/stm32l5xx_hal_gtzc.c ****         HAL_GTZC_MPCBB_ConfigMem() / HAL_GTZC_MPCBB_GetConfigMem()
  72:../../Drivers/STM32L5xx_HAL_Driver/Src/stm32l5xx_hal_gtzc.c **** 
  73:../../Drivers/STM32L5xx_HAL_Driver/Src/stm32l5xx_hal_gtzc.c ****     (#) Configure or get back MPCBB memories attributes using
  74:../../Drivers/STM32L5xx_HAL_Driver/Src/stm32l5xx_hal_gtzc.c ****         HAL_GTZC_MPCBB_ConfigMemAttributes() / HAL_GTZC_MPCBB_GetConfigMemAttributes()
  75:../../Drivers/STM32L5xx_HAL_Driver/Src/stm32l5xx_hal_gtzc.c **** 
  76:../../Drivers/STM32L5xx_HAL_Driver/Src/stm32l5xx_hal_gtzc.c ****     (#) Lock MPCBB configuration or get lock status using HAL_GTZC_MPCBB_Lock() /
  77:../../Drivers/STM32L5xx_HAL_Driver/Src/stm32l5xx_hal_gtzc.c ****         HAL_GTZC_MPCBB_GetLock()
  78:../../Drivers/STM32L5xx_HAL_Driver/Src/stm32l5xx_hal_gtzc.c **** 
  79:../../Drivers/STM32L5xx_HAL_Driver/Src/stm32l5xx_hal_gtzc.c ****     (#) Lock MPCBB super-blocks or get lock status using HAL_GTZC_MPCBB_LockConfig() /
  80:../../Drivers/STM32L5xx_HAL_Driver/Src/stm32l5xx_hal_gtzc.c ****         HAL_GTZC_MPCBB_GetLockConfig()
  81:../../Drivers/STM32L5xx_HAL_Driver/Src/stm32l5xx_hal_gtzc.c **** 
  82:../../Drivers/STM32L5xx_HAL_Driver/Src/stm32l5xx_hal_gtzc.c ****     (#) Illegal access detection can be configured through TZIC sub-block using
  83:../../Drivers/STM32L5xx_HAL_Driver/Src/stm32l5xx_hal_gtzc.c ****         following functions: HAL_GTZC_TZIC_DisableIT() / HAL_GTZC_TZIC_EnableIT()
  84:../../Drivers/STM32L5xx_HAL_Driver/Src/stm32l5xx_hal_gtzc.c **** 
  85:../../Drivers/STM32L5xx_HAL_Driver/Src/stm32l5xx_hal_gtzc.c ****     (#) Illegal access flags can be retrieved through HAL_GTZC_TZIC_GetFlag() and
ARM GAS  /tmp/cczkRLel.s 			page 3


  86:../../Drivers/STM32L5xx_HAL_Driver/Src/stm32l5xx_hal_gtzc.c ****         HAL_GTZC_TZIC_ClearFlag() functions
  87:../../Drivers/STM32L5xx_HAL_Driver/Src/stm32l5xx_hal_gtzc.c **** 
  88:../../Drivers/STM32L5xx_HAL_Driver/Src/stm32l5xx_hal_gtzc.c ****     (#) Illegal access interrupt service routines are served by HAL_GTZC_IRQHandler()
  89:../../Drivers/STM32L5xx_HAL_Driver/Src/stm32l5xx_hal_gtzc.c ****         and user can add his own code using HAL_GTZC_TZIC_Callback()
  90:../../Drivers/STM32L5xx_HAL_Driver/Src/stm32l5xx_hal_gtzc.c **** 
  91:../../Drivers/STM32L5xx_HAL_Driver/Src/stm32l5xx_hal_gtzc.c ****   @endverbatim
  92:../../Drivers/STM32L5xx_HAL_Driver/Src/stm32l5xx_hal_gtzc.c ****   ******************************************************************************
  93:../../Drivers/STM32L5xx_HAL_Driver/Src/stm32l5xx_hal_gtzc.c ****   */
  94:../../Drivers/STM32L5xx_HAL_Driver/Src/stm32l5xx_hal_gtzc.c **** 
  95:../../Drivers/STM32L5xx_HAL_Driver/Src/stm32l5xx_hal_gtzc.c **** /* Includes ------------------------------------------------------------------*/
  96:../../Drivers/STM32L5xx_HAL_Driver/Src/stm32l5xx_hal_gtzc.c **** #include "stm32l5xx_hal.h"
  97:../../Drivers/STM32L5xx_HAL_Driver/Src/stm32l5xx_hal_gtzc.c **** 
  98:../../Drivers/STM32L5xx_HAL_Driver/Src/stm32l5xx_hal_gtzc.c **** /** @addtogroup STM32L5xx_HAL_Driver
  99:../../Drivers/STM32L5xx_HAL_Driver/Src/stm32l5xx_hal_gtzc.c ****   * @{
 100:../../Drivers/STM32L5xx_HAL_Driver/Src/stm32l5xx_hal_gtzc.c ****   */
 101:../../Drivers/STM32L5xx_HAL_Driver/Src/stm32l5xx_hal_gtzc.c **** 
 102:../../Drivers/STM32L5xx_HAL_Driver/Src/stm32l5xx_hal_gtzc.c **** /** @defgroup GTZC GTZC
 103:../../Drivers/STM32L5xx_HAL_Driver/Src/stm32l5xx_hal_gtzc.c ****   * @brief GTZC HAL module driver
 104:../../Drivers/STM32L5xx_HAL_Driver/Src/stm32l5xx_hal_gtzc.c ****   * @{
 105:../../Drivers/STM32L5xx_HAL_Driver/Src/stm32l5xx_hal_gtzc.c ****   */
 106:../../Drivers/STM32L5xx_HAL_Driver/Src/stm32l5xx_hal_gtzc.c **** 
 107:../../Drivers/STM32L5xx_HAL_Driver/Src/stm32l5xx_hal_gtzc.c **** #ifdef HAL_GTZC_MODULE_ENABLED
 108:../../Drivers/STM32L5xx_HAL_Driver/Src/stm32l5xx_hal_gtzc.c **** 
 109:../../Drivers/STM32L5xx_HAL_Driver/Src/stm32l5xx_hal_gtzc.c **** /* Private typedef -----------------------------------------------------------*/
 110:../../Drivers/STM32L5xx_HAL_Driver/Src/stm32l5xx_hal_gtzc.c **** /* Private constants ---------------------------------------------------------*/
 111:../../Drivers/STM32L5xx_HAL_Driver/Src/stm32l5xx_hal_gtzc.c **** 
 112:../../Drivers/STM32L5xx_HAL_Driver/Src/stm32l5xx_hal_gtzc.c **** /** @defgroup GTZC_Private_Constants GTZC Private Constants
 113:../../Drivers/STM32L5xx_HAL_Driver/Src/stm32l5xx_hal_gtzc.c ****   * @{
 114:../../Drivers/STM32L5xx_HAL_Driver/Src/stm32l5xx_hal_gtzc.c ****   */
 115:../../Drivers/STM32L5xx_HAL_Driver/Src/stm32l5xx_hal_gtzc.c **** 
 116:../../Drivers/STM32L5xx_HAL_Driver/Src/stm32l5xx_hal_gtzc.c **** /* Definitions for GTZC_TZSC_MPCWM */
 117:../../Drivers/STM32L5xx_HAL_Driver/Src/stm32l5xx_hal_gtzc.c **** #define GTZC_TZSC_MPCWM1_MEM_SIZE      0x10000000U    /* 256MB max size */
 118:../../Drivers/STM32L5xx_HAL_Driver/Src/stm32l5xx_hal_gtzc.c **** #define GTZC_TZSC_MPCWM2_MEM_SIZE      0x10000000U    /* 256MB max size */
 119:../../Drivers/STM32L5xx_HAL_Driver/Src/stm32l5xx_hal_gtzc.c **** #define GTZC_TZSC_MPCWM3_MEM_SIZE      0x10000000U    /* 256MB max size */
 120:../../Drivers/STM32L5xx_HAL_Driver/Src/stm32l5xx_hal_gtzc.c **** 
 121:../../Drivers/STM32L5xx_HAL_Driver/Src/stm32l5xx_hal_gtzc.c **** /* Definitions for GTZC TZSC & TZIC ALL register values */
 122:../../Drivers/STM32L5xx_HAL_Driver/Src/stm32l5xx_hal_gtzc.c **** #define TZSC_SECCFGR1_ALL       (0xFFFFFFFFUL)
 123:../../Drivers/STM32L5xx_HAL_Driver/Src/stm32l5xx_hal_gtzc.c **** #if defined (STM32L562xx)
 124:../../Drivers/STM32L5xx_HAL_Driver/Src/stm32l5xx_hal_gtzc.c **** #define TZSC_SECCFGR2_ALL       (0x0007FFFFUL)
 125:../../Drivers/STM32L5xx_HAL_Driver/Src/stm32l5xx_hal_gtzc.c **** #else
 126:../../Drivers/STM32L5xx_HAL_Driver/Src/stm32l5xx_hal_gtzc.c **** #define TZSC_SECCFGR2_ALL       (0x00076FFFUL)
 127:../../Drivers/STM32L5xx_HAL_Driver/Src/stm32l5xx_hal_gtzc.c **** #endif /* STM32L562xx */
 128:../../Drivers/STM32L5xx_HAL_Driver/Src/stm32l5xx_hal_gtzc.c **** #define TZSC_PRIVCFGR1_ALL      (0xFFFFFFFFUL)
 129:../../Drivers/STM32L5xx_HAL_Driver/Src/stm32l5xx_hal_gtzc.c **** #if defined (STM32L562xx)
 130:../../Drivers/STM32L5xx_HAL_Driver/Src/stm32l5xx_hal_gtzc.c **** #define TZSC_PRIVCFGR2_ALL      (0x0007FFFFUL)
 131:../../Drivers/STM32L5xx_HAL_Driver/Src/stm32l5xx_hal_gtzc.c **** #else
 132:../../Drivers/STM32L5xx_HAL_Driver/Src/stm32l5xx_hal_gtzc.c **** #define TZSC_PRIVCFGR2_ALL      (0x00076FFFUL)
 133:../../Drivers/STM32L5xx_HAL_Driver/Src/stm32l5xx_hal_gtzc.c **** #endif /* STM32L562xx */
 134:../../Drivers/STM32L5xx_HAL_Driver/Src/stm32l5xx_hal_gtzc.c **** #define TZIC_IER1_ALL           (0xFFFFFFFFUL)
 135:../../Drivers/STM32L5xx_HAL_Driver/Src/stm32l5xx_hal_gtzc.c **** #if defined (STM32L562xx)
 136:../../Drivers/STM32L5xx_HAL_Driver/Src/stm32l5xx_hal_gtzc.c **** #define TZIC_IER2_ALL           (0x3FFFFFFFUL)
 137:../../Drivers/STM32L5xx_HAL_Driver/Src/stm32l5xx_hal_gtzc.c **** #else
 138:../../Drivers/STM32L5xx_HAL_Driver/Src/stm32l5xx_hal_gtzc.c **** #define TZIC_IER2_ALL           (0x3FFF6FFFUL)
 139:../../Drivers/STM32L5xx_HAL_Driver/Src/stm32l5xx_hal_gtzc.c **** #endif /* STM32L562xx */
 140:../../Drivers/STM32L5xx_HAL_Driver/Src/stm32l5xx_hal_gtzc.c **** #define TZIC_IER3_ALL           (0x000000FFUL)
 141:../../Drivers/STM32L5xx_HAL_Driver/Src/stm32l5xx_hal_gtzc.c **** #define TZIC_FCR1_ALL           (0xFFFFFFFFUL)
 142:../../Drivers/STM32L5xx_HAL_Driver/Src/stm32l5xx_hal_gtzc.c **** #if defined (STM32L562xx)
ARM GAS  /tmp/cczkRLel.s 			page 4


 143:../../Drivers/STM32L5xx_HAL_Driver/Src/stm32l5xx_hal_gtzc.c **** #define TZIC_FCR2_ALL           (0x3FFFFFFFUL)
 144:../../Drivers/STM32L5xx_HAL_Driver/Src/stm32l5xx_hal_gtzc.c **** #else
 145:../../Drivers/STM32L5xx_HAL_Driver/Src/stm32l5xx_hal_gtzc.c **** #define TZIC_FCR2_ALL           (0x3FFF6FFFUL)
 146:../../Drivers/STM32L5xx_HAL_Driver/Src/stm32l5xx_hal_gtzc.c **** #endif /* STM32L562xx */
 147:../../Drivers/STM32L5xx_HAL_Driver/Src/stm32l5xx_hal_gtzc.c **** #define TZIC_FCR3_ALL           (0x000000FFUL)
 148:../../Drivers/STM32L5xx_HAL_Driver/Src/stm32l5xx_hal_gtzc.c **** 
 149:../../Drivers/STM32L5xx_HAL_Driver/Src/stm32l5xx_hal_gtzc.c **** /**
 150:../../Drivers/STM32L5xx_HAL_Driver/Src/stm32l5xx_hal_gtzc.c ****   * @}
 151:../../Drivers/STM32L5xx_HAL_Driver/Src/stm32l5xx_hal_gtzc.c ****   */
 152:../../Drivers/STM32L5xx_HAL_Driver/Src/stm32l5xx_hal_gtzc.c **** 
 153:../../Drivers/STM32L5xx_HAL_Driver/Src/stm32l5xx_hal_gtzc.c **** /* Private macros ------------------------------------------------------------*/
 154:../../Drivers/STM32L5xx_HAL_Driver/Src/stm32l5xx_hal_gtzc.c **** 
 155:../../Drivers/STM32L5xx_HAL_Driver/Src/stm32l5xx_hal_gtzc.c **** /** @defgroup GTZC_Private_Macros GTZC Private Macros
 156:../../Drivers/STM32L5xx_HAL_Driver/Src/stm32l5xx_hal_gtzc.c ****   * @{
 157:../../Drivers/STM32L5xx_HAL_Driver/Src/stm32l5xx_hal_gtzc.c ****   */
 158:../../Drivers/STM32L5xx_HAL_Driver/Src/stm32l5xx_hal_gtzc.c **** 
 159:../../Drivers/STM32L5xx_HAL_Driver/Src/stm32l5xx_hal_gtzc.c **** #define IS_ADDRESS_IN(mem, address)\
 160:../../Drivers/STM32L5xx_HAL_Driver/Src/stm32l5xx_hal_gtzc.c ****   (   (   ( (uint32_t)(address) >= (uint32_t)GTZC_BASE_ADDRESS_NS(mem) )                           
 161:../../Drivers/STM32L5xx_HAL_Driver/Src/stm32l5xx_hal_gtzc.c ****           && ( (uint32_t)(address) < ((uint32_t)GTZC_BASE_ADDRESS_NS(mem) + (uint32_t)GTZC_MEM_SIZE
 162:../../Drivers/STM32L5xx_HAL_Driver/Src/stm32l5xx_hal_gtzc.c ****       || (   ( (uint32_t)(address) >= (uint32_t)GTZC_BASE_ADDRESS_S(mem) )                         
 163:../../Drivers/STM32L5xx_HAL_Driver/Src/stm32l5xx_hal_gtzc.c ****              && ( (uint32_t)(address) < ((uint32_t)GTZC_BASE_ADDRESS_S(mem) + (uint32_t)GTZC_MEM_SI
 164:../../Drivers/STM32L5xx_HAL_Driver/Src/stm32l5xx_hal_gtzc.c **** 
 165:../../Drivers/STM32L5xx_HAL_Driver/Src/stm32l5xx_hal_gtzc.c **** #define IS_ADDRESS_IN_S(mem, address)\
 166:../../Drivers/STM32L5xx_HAL_Driver/Src/stm32l5xx_hal_gtzc.c ****   (   ( (uint32_t)(address) >= (uint32_t)GTZC_BASE_ADDRESS_S(mem) )                                
 167:../../Drivers/STM32L5xx_HAL_Driver/Src/stm32l5xx_hal_gtzc.c ****       && ( (uint32_t)(address) < ((uint32_t)GTZC_BASE_ADDRESS_S(mem) + (uint32_t)GTZC_MEM_SIZE(mem)
 168:../../Drivers/STM32L5xx_HAL_Driver/Src/stm32l5xx_hal_gtzc.c **** 
 169:../../Drivers/STM32L5xx_HAL_Driver/Src/stm32l5xx_hal_gtzc.c **** #define IS_ADDRESS_IN_NS(mem, address)\
 170:../../Drivers/STM32L5xx_HAL_Driver/Src/stm32l5xx_hal_gtzc.c ****   (   ( (uint32_t)(address) >= (uint32_t)GTZC_BASE_ADDRESS_NS(mem) )                               
 171:../../Drivers/STM32L5xx_HAL_Driver/Src/stm32l5xx_hal_gtzc.c ****       && ( (uint32_t)(address) < ((uint32_t)GTZC_BASE_ADDRESS_NS(mem) + (uint32_t)GTZC_MEM_SIZE(mem
 172:../../Drivers/STM32L5xx_HAL_Driver/Src/stm32l5xx_hal_gtzc.c **** 
 173:../../Drivers/STM32L5xx_HAL_Driver/Src/stm32l5xx_hal_gtzc.c **** #define GTZC_BASE_ADDRESS(mem)\
 174:../../Drivers/STM32L5xx_HAL_Driver/Src/stm32l5xx_hal_gtzc.c ****   ( mem ## _BASE )
 175:../../Drivers/STM32L5xx_HAL_Driver/Src/stm32l5xx_hal_gtzc.c **** 
 176:../../Drivers/STM32L5xx_HAL_Driver/Src/stm32l5xx_hal_gtzc.c **** /**
 177:../../Drivers/STM32L5xx_HAL_Driver/Src/stm32l5xx_hal_gtzc.c ****   * @}
 178:../../Drivers/STM32L5xx_HAL_Driver/Src/stm32l5xx_hal_gtzc.c ****   */
 179:../../Drivers/STM32L5xx_HAL_Driver/Src/stm32l5xx_hal_gtzc.c **** 
 180:../../Drivers/STM32L5xx_HAL_Driver/Src/stm32l5xx_hal_gtzc.c **** /* Private variables ---------------------------------------------------------*/
 181:../../Drivers/STM32L5xx_HAL_Driver/Src/stm32l5xx_hal_gtzc.c **** /* Private function prototypes -----------------------------------------------*/
 182:../../Drivers/STM32L5xx_HAL_Driver/Src/stm32l5xx_hal_gtzc.c **** /* Exported functions --------------------------------------------------------*/
 183:../../Drivers/STM32L5xx_HAL_Driver/Src/stm32l5xx_hal_gtzc.c **** 
 184:../../Drivers/STM32L5xx_HAL_Driver/Src/stm32l5xx_hal_gtzc.c **** /** @defgroup GTZC_Exported_Functions GTZC Exported Functions
 185:../../Drivers/STM32L5xx_HAL_Driver/Src/stm32l5xx_hal_gtzc.c ****   * @{
 186:../../Drivers/STM32L5xx_HAL_Driver/Src/stm32l5xx_hal_gtzc.c ****   */
 187:../../Drivers/STM32L5xx_HAL_Driver/Src/stm32l5xx_hal_gtzc.c **** 
 188:../../Drivers/STM32L5xx_HAL_Driver/Src/stm32l5xx_hal_gtzc.c **** /** @defgroup GTZC_Exported_Functions_Group1  TZSC Configuration functions
 189:../../Drivers/STM32L5xx_HAL_Driver/Src/stm32l5xx_hal_gtzc.c ****   * @brief    TZSC Configuration functions
 190:../../Drivers/STM32L5xx_HAL_Driver/Src/stm32l5xx_hal_gtzc.c ****   *
 191:../../Drivers/STM32L5xx_HAL_Driver/Src/stm32l5xx_hal_gtzc.c ****   @verbatim
 192:../../Drivers/STM32L5xx_HAL_Driver/Src/stm32l5xx_hal_gtzc.c ****   ==============================================================================
 193:../../Drivers/STM32L5xx_HAL_Driver/Src/stm32l5xx_hal_gtzc.c ****             ##### TZSC Configuration functions #####
 194:../../Drivers/STM32L5xx_HAL_Driver/Src/stm32l5xx_hal_gtzc.c ****   ==============================================================================
 195:../../Drivers/STM32L5xx_HAL_Driver/Src/stm32l5xx_hal_gtzc.c ****   [..]
 196:../../Drivers/STM32L5xx_HAL_Driver/Src/stm32l5xx_hal_gtzc.c ****     This section provides functions allowing to configure TZSC
 197:../../Drivers/STM32L5xx_HAL_Driver/Src/stm32l5xx_hal_gtzc.c ****     TZSC is TrustZone Security Controller
 198:../../Drivers/STM32L5xx_HAL_Driver/Src/stm32l5xx_hal_gtzc.c **** @endverbatim
 199:../../Drivers/STM32L5xx_HAL_Driver/Src/stm32l5xx_hal_gtzc.c ****   * @{
ARM GAS  /tmp/cczkRLel.s 			page 5


 200:../../Drivers/STM32L5xx_HAL_Driver/Src/stm32l5xx_hal_gtzc.c ****   */
 201:../../Drivers/STM32L5xx_HAL_Driver/Src/stm32l5xx_hal_gtzc.c **** 
 202:../../Drivers/STM32L5xx_HAL_Driver/Src/stm32l5xx_hal_gtzc.c **** /**
 203:../../Drivers/STM32L5xx_HAL_Driver/Src/stm32l5xx_hal_gtzc.c ****   * @brief  Configure TZSC on a single peripheral or on all peripherals.
 204:../../Drivers/STM32L5xx_HAL_Driver/Src/stm32l5xx_hal_gtzc.c ****   * @note   Secure and non-secure attributes can only be set from the secure
 205:../../Drivers/STM32L5xx_HAL_Driver/Src/stm32l5xx_hal_gtzc.c ****   *         state when the system implements the security (TZEN=1).
 206:../../Drivers/STM32L5xx_HAL_Driver/Src/stm32l5xx_hal_gtzc.c ****   * @note   Privilege and non-privilege attributes can only be set from the
 207:../../Drivers/STM32L5xx_HAL_Driver/Src/stm32l5xx_hal_gtzc.c ****   *         privilege state when TZEN=0 or TZEN=1
 208:../../Drivers/STM32L5xx_HAL_Driver/Src/stm32l5xx_hal_gtzc.c ****   * @note   Security and privilege attributes can be set independently.
 209:../../Drivers/STM32L5xx_HAL_Driver/Src/stm32l5xx_hal_gtzc.c ****   * @note   Default state is non-secure and unprivileged access allowed.
 210:../../Drivers/STM32L5xx_HAL_Driver/Src/stm32l5xx_hal_gtzc.c ****   * @param  PeriphId Peripheral identifier
 211:../../Drivers/STM32L5xx_HAL_Driver/Src/stm32l5xx_hal_gtzc.c ****   *         This parameter can be a value of @ref GTZC_TZSC_TZIC_PeriphId.
 212:../../Drivers/STM32L5xx_HAL_Driver/Src/stm32l5xx_hal_gtzc.c ****   *         Use GTZC_PERIPH_ALL to select all peripherals.
 213:../../Drivers/STM32L5xx_HAL_Driver/Src/stm32l5xx_hal_gtzc.c ****   * @param  PeriphAttributes Peripheral attributes, see @ref GTZC_TZSC_PeriphAttributes.
 214:../../Drivers/STM32L5xx_HAL_Driver/Src/stm32l5xx_hal_gtzc.c ****   * @retval HAL status.
 215:../../Drivers/STM32L5xx_HAL_Driver/Src/stm32l5xx_hal_gtzc.c ****   */
 216:../../Drivers/STM32L5xx_HAL_Driver/Src/stm32l5xx_hal_gtzc.c **** HAL_StatusTypeDef HAL_GTZC_TZSC_ConfigPeriphAttributes(uint32_t PeriphId,
 217:../../Drivers/STM32L5xx_HAL_Driver/Src/stm32l5xx_hal_gtzc.c ****                                                        uint32_t PeriphAttributes)
 218:../../Drivers/STM32L5xx_HAL_Driver/Src/stm32l5xx_hal_gtzc.c **** {
  31              		.loc 1 218 1 view -0
  32              		.cfi_startproc
  33              		@ args = 0, pretend = 0, frame = 0
  34              		@ frame_needed = 0, uses_anonymous_args = 0
  35              		@ link register save eliminated.
 219:../../Drivers/STM32L5xx_HAL_Driver/Src/stm32l5xx_hal_gtzc.c ****   uint32_t register_address;
  36              		.loc 1 219 3 view .LVU1
 220:../../Drivers/STM32L5xx_HAL_Driver/Src/stm32l5xx_hal_gtzc.c **** 
 221:../../Drivers/STM32L5xx_HAL_Driver/Src/stm32l5xx_hal_gtzc.c ****   /* check entry parameters */
 222:../../Drivers/STM32L5xx_HAL_Driver/Src/stm32l5xx_hal_gtzc.c ****   if ((PeriphAttributes > (GTZC_TZSC_PERIPH_SEC | GTZC_TZSC_PERIPH_PRIV))
  37              		.loc 1 222 3 view .LVU2
  38              		.loc 1 222 6 is_stmt 0 view .LVU3
  39 0000 B1F5417F 		cmp	r1, #772
  40 0004 7CD2     		bcs	.L11
 218:../../Drivers/STM32L5xx_HAL_Driver/Src/stm32l5xx_hal_gtzc.c ****   uint32_t register_address;
  41              		.loc 1 218 1 view .LVU4
  42 0006 10B4     		push	{r4}
  43              	.LCFI0:
  44              		.cfi_def_cfa_offset 4
  45              		.cfi_offset 4, -4
 223:../../Drivers/STM32L5xx_HAL_Driver/Src/stm32l5xx_hal_gtzc.c ****       || (HAL_GTZC_GET_ARRAY_INDEX(PeriphId) >= GTZC_TZSC_PERIPH_NUMBER)
  46              		.loc 1 223 11 view .LVU5
  47 0008 030F     		lsrs	r3, r0, #28
  48 000a 00F01F02 		and	r2, r0, #31
  49 000e 02EB4314 		add	r4, r2, r3, lsl #5
  50              		.loc 1 223 7 view .LVU6
  51 0012 322C     		cmp	r4, #50
  52 0014 76D8     		bhi	.L12
 224:../../Drivers/STM32L5xx_HAL_Driver/Src/stm32l5xx_hal_gtzc.c ****       || (((PeriphId & GTZC_PERIPH_ALL) != 0U) && (HAL_GTZC_GET_ARRAY_INDEX(PeriphId) != 0U)))
  53              		.loc 1 224 7 view .LVU7
  54 0016 10F02000 		ands	r0, r0, #32
  55              	.LVL1:
  56              		.loc 1 224 7 view .LVU8
  57 001a 01D0     		beq	.L3
  58              		.loc 1 224 48 discriminator 1 view .LVU9
  59 001c 002C     		cmp	r4, #0
  60 001e 75D1     		bne	.L13
  61              	.L3:
ARM GAS  /tmp/cczkRLel.s 			page 6


 225:../../Drivers/STM32L5xx_HAL_Driver/Src/stm32l5xx_hal_gtzc.c ****   {
 226:../../Drivers/STM32L5xx_HAL_Driver/Src/stm32l5xx_hal_gtzc.c ****     return HAL_ERROR;
 227:../../Drivers/STM32L5xx_HAL_Driver/Src/stm32l5xx_hal_gtzc.c ****   }
 228:../../Drivers/STM32L5xx_HAL_Driver/Src/stm32l5xx_hal_gtzc.c **** 
 229:../../Drivers/STM32L5xx_HAL_Driver/Src/stm32l5xx_hal_gtzc.c ****   if ((PeriphId & GTZC_PERIPH_ALL) != 0U)
  62              		.loc 1 229 3 is_stmt 1 view .LVU10
  63              		.loc 1 229 6 is_stmt 0 view .LVU11
  64 0020 0028     		cmp	r0, #0
  65 0022 37D0     		beq	.L4
 230:../../Drivers/STM32L5xx_HAL_Driver/Src/stm32l5xx_hal_gtzc.c ****   {
 231:../../Drivers/STM32L5xx_HAL_Driver/Src/stm32l5xx_hal_gtzc.c ****     /* special case where same attributes are applied to all peripherals */
 232:../../Drivers/STM32L5xx_HAL_Driver/Src/stm32l5xx_hal_gtzc.c **** 
 233:../../Drivers/STM32L5xx_HAL_Driver/Src/stm32l5xx_hal_gtzc.c **** #if defined(__ARM_FEATURE_CMSE) && (__ARM_FEATURE_CMSE == 3U)
 234:../../Drivers/STM32L5xx_HAL_Driver/Src/stm32l5xx_hal_gtzc.c ****     /* secure configuration */
 235:../../Drivers/STM32L5xx_HAL_Driver/Src/stm32l5xx_hal_gtzc.c ****     if ((PeriphAttributes & GTZC_TZSC_PERIPH_SEC) == GTZC_TZSC_PERIPH_SEC)
  66              		.loc 1 235 5 is_stmt 1 view .LVU12
  67              		.loc 1 235 8 is_stmt 0 view .LVU13
  68 0024 40F20113 		movw	r3, #257
  69 0028 8B43     		bics	r3, r3, r1
  70 002a 0BD0     		beq	.L20
 236:../../Drivers/STM32L5xx_HAL_Driver/Src/stm32l5xx_hal_gtzc.c ****     {
 237:../../Drivers/STM32L5xx_HAL_Driver/Src/stm32l5xx_hal_gtzc.c ****       SET_BIT(GTZC_TZSC->SECCFGR1, TZSC_SECCFGR1_ALL);
 238:../../Drivers/STM32L5xx_HAL_Driver/Src/stm32l5xx_hal_gtzc.c ****       SET_BIT(GTZC_TZSC->SECCFGR2, TZSC_SECCFGR2_ALL);
 239:../../Drivers/STM32L5xx_HAL_Driver/Src/stm32l5xx_hal_gtzc.c ****     }
 240:../../Drivers/STM32L5xx_HAL_Driver/Src/stm32l5xx_hal_gtzc.c ****     else if ((PeriphAttributes & GTZC_TZSC_PERIPH_NSEC) == GTZC_TZSC_PERIPH_NSEC)
  71              		.loc 1 240 10 is_stmt 1 view .LVU14
  72              		.loc 1 240 13 is_stmt 0 view .LVU15
  73 002c 11F4807F 		tst	r1, #256
  74 0030 13D0     		beq	.L6
 241:../../Drivers/STM32L5xx_HAL_Driver/Src/stm32l5xx_hal_gtzc.c ****     {
 242:../../Drivers/STM32L5xx_HAL_Driver/Src/stm32l5xx_hal_gtzc.c ****       CLEAR_BIT(GTZC_TZSC->SECCFGR1, TZSC_SECCFGR1_ALL);
  75              		.loc 1 242 7 is_stmt 1 view .LVU16
  76 0032 394A     		ldr	r2, .L24
  77 0034 1369     		ldr	r3, [r2, #16]
  78 0036 0023     		movs	r3, #0
  79 0038 1361     		str	r3, [r2, #16]
 243:../../Drivers/STM32L5xx_HAL_Driver/Src/stm32l5xx_hal_gtzc.c ****       CLEAR_BIT(GTZC_TZSC->SECCFGR2, TZSC_SECCFGR2_ALL);
  80              		.loc 1 243 7 view .LVU17
  81 003a 5369     		ldr	r3, [r2, #20]
  82 003c DB0C     		lsrs	r3, r3, #19
  83 003e DB04     		lsls	r3, r3, #19
  84 0040 5361     		str	r3, [r2, #20]
  85 0042 0AE0     		b	.L6
  86              	.L20:
 237:../../Drivers/STM32L5xx_HAL_Driver/Src/stm32l5xx_hal_gtzc.c ****       SET_BIT(GTZC_TZSC->SECCFGR2, TZSC_SECCFGR2_ALL);
  87              		.loc 1 237 7 view .LVU18
  88 0044 344A     		ldr	r2, .L24
  89 0046 1369     		ldr	r3, [r2, #16]
  90 0048 4FF0FF33 		mov	r3, #-1
  91 004c 1361     		str	r3, [r2, #16]
 238:../../Drivers/STM32L5xx_HAL_Driver/Src/stm32l5xx_hal_gtzc.c ****     }
  92              		.loc 1 238 7 view .LVU19
  93 004e 5369     		ldr	r3, [r2, #20]
  94 0050 6FEAD343 		mvn	r3, r3, lsr #19
  95 0054 6FEAC343 		mvn	r3, r3, lsl #19
  96 0058 5361     		str	r3, [r2, #20]
  97              	.L6:
ARM GAS  /tmp/cczkRLel.s 			page 7


 244:../../Drivers/STM32L5xx_HAL_Driver/Src/stm32l5xx_hal_gtzc.c ****     }
 245:../../Drivers/STM32L5xx_HAL_Driver/Src/stm32l5xx_hal_gtzc.c ****     else
 246:../../Drivers/STM32L5xx_HAL_Driver/Src/stm32l5xx_hal_gtzc.c ****     {
 247:../../Drivers/STM32L5xx_HAL_Driver/Src/stm32l5xx_hal_gtzc.c ****       /* do nothing */
 248:../../Drivers/STM32L5xx_HAL_Driver/Src/stm32l5xx_hal_gtzc.c ****     }
  98              		.loc 1 248 5 view .LVU20
 249:../../Drivers/STM32L5xx_HAL_Driver/Src/stm32l5xx_hal_gtzc.c **** #endif /* defined(__ARM_FEATURE_CMSE) && (__ARM_FEATURE_CMSE == 3U) */
 250:../../Drivers/STM32L5xx_HAL_Driver/Src/stm32l5xx_hal_gtzc.c **** 
 251:../../Drivers/STM32L5xx_HAL_Driver/Src/stm32l5xx_hal_gtzc.c ****     /* privilege configuration */
 252:../../Drivers/STM32L5xx_HAL_Driver/Src/stm32l5xx_hal_gtzc.c ****     if ((PeriphAttributes & GTZC_TZSC_PERIPH_PRIV) == GTZC_TZSC_PERIPH_PRIV)
  99              		.loc 1 252 5 view .LVU21
 100              		.loc 1 252 8 is_stmt 0 view .LVU22
 101 005a 40F20223 		movw	r3, #514
 102 005e 8B43     		bics	r3, r3, r1
 103 0060 0BD0     		beq	.L21
 253:../../Drivers/STM32L5xx_HAL_Driver/Src/stm32l5xx_hal_gtzc.c ****     {
 254:../../Drivers/STM32L5xx_HAL_Driver/Src/stm32l5xx_hal_gtzc.c ****       SET_BIT(GTZC_TZSC->PRIVCFGR1, TZSC_PRIVCFGR1_ALL);
 255:../../Drivers/STM32L5xx_HAL_Driver/Src/stm32l5xx_hal_gtzc.c ****       SET_BIT(GTZC_TZSC->PRIVCFGR2, TZSC_PRIVCFGR2_ALL);
 256:../../Drivers/STM32L5xx_HAL_Driver/Src/stm32l5xx_hal_gtzc.c ****     }
 257:../../Drivers/STM32L5xx_HAL_Driver/Src/stm32l5xx_hal_gtzc.c ****     else if ((PeriphAttributes & GTZC_TZSC_PERIPH_NPRIV) == GTZC_TZSC_PERIPH_NPRIV)
 104              		.loc 1 257 10 is_stmt 1 view .LVU23
 105              		.loc 1 257 13 is_stmt 0 view .LVU24
 106 0062 11F4007F 		tst	r1, #512
 107 0066 53D0     		beq	.L14
 258:../../Drivers/STM32L5xx_HAL_Driver/Src/stm32l5xx_hal_gtzc.c ****     {
 259:../../Drivers/STM32L5xx_HAL_Driver/Src/stm32l5xx_hal_gtzc.c ****       CLEAR_BIT(GTZC_TZSC->PRIVCFGR1, TZSC_PRIVCFGR1_ALL);
 108              		.loc 1 259 7 is_stmt 1 view .LVU25
 109 0068 2B4A     		ldr	r2, .L24
 110 006a 136A     		ldr	r3, [r2, #32]
 111 006c 0020     		movs	r0, #0
 112 006e 1062     		str	r0, [r2, #32]
 260:../../Drivers/STM32L5xx_HAL_Driver/Src/stm32l5xx_hal_gtzc.c ****       CLEAR_BIT(GTZC_TZSC->PRIVCFGR2, TZSC_PRIVCFGR2_ALL);
 113              		.loc 1 260 7 view .LVU26
 114 0070 536A     		ldr	r3, [r2, #36]
 115 0072 DB0C     		lsrs	r3, r3, #19
 116 0074 DB04     		lsls	r3, r3, #19
 117 0076 5362     		str	r3, [r2, #36]
 118 0078 45E0     		b	.L2
 119              	.L21:
 254:../../Drivers/STM32L5xx_HAL_Driver/Src/stm32l5xx_hal_gtzc.c ****       SET_BIT(GTZC_TZSC->PRIVCFGR2, TZSC_PRIVCFGR2_ALL);
 120              		.loc 1 254 7 view .LVU27
 121 007a 274A     		ldr	r2, .L24
 122 007c 136A     		ldr	r3, [r2, #32]
 123 007e 4FF0FF33 		mov	r3, #-1
 124 0082 1362     		str	r3, [r2, #32]
 255:../../Drivers/STM32L5xx_HAL_Driver/Src/stm32l5xx_hal_gtzc.c ****     }
 125              		.loc 1 255 7 view .LVU28
 126 0084 536A     		ldr	r3, [r2, #36]
 127 0086 6FEAD343 		mvn	r3, r3, lsr #19
 128 008a 6FEAC343 		mvn	r3, r3, lsl #19
 129 008e 5362     		str	r3, [r2, #36]
 261:../../Drivers/STM32L5xx_HAL_Driver/Src/stm32l5xx_hal_gtzc.c ****     }
 262:../../Drivers/STM32L5xx_HAL_Driver/Src/stm32l5xx_hal_gtzc.c ****     else
 263:../../Drivers/STM32L5xx_HAL_Driver/Src/stm32l5xx_hal_gtzc.c ****     {
 264:../../Drivers/STM32L5xx_HAL_Driver/Src/stm32l5xx_hal_gtzc.c ****       /* do nothing */
 265:../../Drivers/STM32L5xx_HAL_Driver/Src/stm32l5xx_hal_gtzc.c ****     }
 266:../../Drivers/STM32L5xx_HAL_Driver/Src/stm32l5xx_hal_gtzc.c ****   }
ARM GAS  /tmp/cczkRLel.s 			page 8


 267:../../Drivers/STM32L5xx_HAL_Driver/Src/stm32l5xx_hal_gtzc.c ****   else
 268:../../Drivers/STM32L5xx_HAL_Driver/Src/stm32l5xx_hal_gtzc.c ****   {
 269:../../Drivers/STM32L5xx_HAL_Driver/Src/stm32l5xx_hal_gtzc.c ****     /* common case where only one peripheral is configured */
 270:../../Drivers/STM32L5xx_HAL_Driver/Src/stm32l5xx_hal_gtzc.c **** 
 271:../../Drivers/STM32L5xx_HAL_Driver/Src/stm32l5xx_hal_gtzc.c **** #if defined(__ARM_FEATURE_CMSE) && (__ARM_FEATURE_CMSE == 3U)
 272:../../Drivers/STM32L5xx_HAL_Driver/Src/stm32l5xx_hal_gtzc.c ****     /* secure configuration */
 273:../../Drivers/STM32L5xx_HAL_Driver/Src/stm32l5xx_hal_gtzc.c ****     register_address = (uint32_t) &(GTZC_TZSC->SECCFGR1) + (4U * GTZC_GET_REG_INDEX(PeriphId));
 274:../../Drivers/STM32L5xx_HAL_Driver/Src/stm32l5xx_hal_gtzc.c ****     if ((PeriphAttributes & GTZC_TZSC_PERIPH_SEC) == GTZC_TZSC_PERIPH_SEC)
 275:../../Drivers/STM32L5xx_HAL_Driver/Src/stm32l5xx_hal_gtzc.c ****     {
 276:../../Drivers/STM32L5xx_HAL_Driver/Src/stm32l5xx_hal_gtzc.c ****       SET_BIT(*(__IO uint32_t *)register_address, 1UL << GTZC_GET_PERIPH_POS(PeriphId));
 277:../../Drivers/STM32L5xx_HAL_Driver/Src/stm32l5xx_hal_gtzc.c ****     }
 278:../../Drivers/STM32L5xx_HAL_Driver/Src/stm32l5xx_hal_gtzc.c ****     else if ((PeriphAttributes & GTZC_TZSC_PERIPH_NSEC) == GTZC_TZSC_PERIPH_NSEC)
 279:../../Drivers/STM32L5xx_HAL_Driver/Src/stm32l5xx_hal_gtzc.c ****     {
 280:../../Drivers/STM32L5xx_HAL_Driver/Src/stm32l5xx_hal_gtzc.c ****       CLEAR_BIT(*(__IO uint32_t *)register_address, 1UL << GTZC_GET_PERIPH_POS(PeriphId));
 281:../../Drivers/STM32L5xx_HAL_Driver/Src/stm32l5xx_hal_gtzc.c ****     }
 282:../../Drivers/STM32L5xx_HAL_Driver/Src/stm32l5xx_hal_gtzc.c ****     else
 283:../../Drivers/STM32L5xx_HAL_Driver/Src/stm32l5xx_hal_gtzc.c ****     {
 284:../../Drivers/STM32L5xx_HAL_Driver/Src/stm32l5xx_hal_gtzc.c ****       /* do nothing */
 285:../../Drivers/STM32L5xx_HAL_Driver/Src/stm32l5xx_hal_gtzc.c ****     }
 286:../../Drivers/STM32L5xx_HAL_Driver/Src/stm32l5xx_hal_gtzc.c **** #endif /* defined(__ARM_FEATURE_CMSE) && (__ARM_FEATURE_CMSE == 3U) */
 287:../../Drivers/STM32L5xx_HAL_Driver/Src/stm32l5xx_hal_gtzc.c **** 
 288:../../Drivers/STM32L5xx_HAL_Driver/Src/stm32l5xx_hal_gtzc.c ****     /* privilege configuration */
 289:../../Drivers/STM32L5xx_HAL_Driver/Src/stm32l5xx_hal_gtzc.c ****     register_address = (uint32_t) &(GTZC_TZSC->PRIVCFGR1) + (4U * GTZC_GET_REG_INDEX(PeriphId));
 290:../../Drivers/STM32L5xx_HAL_Driver/Src/stm32l5xx_hal_gtzc.c ****     if ((PeriphAttributes & GTZC_TZSC_PERIPH_PRIV) == GTZC_TZSC_PERIPH_PRIV)
 291:../../Drivers/STM32L5xx_HAL_Driver/Src/stm32l5xx_hal_gtzc.c ****     {
 292:../../Drivers/STM32L5xx_HAL_Driver/Src/stm32l5xx_hal_gtzc.c ****       SET_BIT(*(__IO uint32_t *)register_address, 1UL << GTZC_GET_PERIPH_POS(PeriphId));
 293:../../Drivers/STM32L5xx_HAL_Driver/Src/stm32l5xx_hal_gtzc.c ****     }
 294:../../Drivers/STM32L5xx_HAL_Driver/Src/stm32l5xx_hal_gtzc.c ****     else if ((PeriphAttributes & GTZC_TZSC_PERIPH_NPRIV) == GTZC_TZSC_PERIPH_NPRIV)
 295:../../Drivers/STM32L5xx_HAL_Driver/Src/stm32l5xx_hal_gtzc.c ****     {
 296:../../Drivers/STM32L5xx_HAL_Driver/Src/stm32l5xx_hal_gtzc.c ****       CLEAR_BIT(*(__IO uint32_t *)register_address, 1UL << GTZC_GET_PERIPH_POS(PeriphId));
 297:../../Drivers/STM32L5xx_HAL_Driver/Src/stm32l5xx_hal_gtzc.c ****     }
 298:../../Drivers/STM32L5xx_HAL_Driver/Src/stm32l5xx_hal_gtzc.c ****     else
 299:../../Drivers/STM32L5xx_HAL_Driver/Src/stm32l5xx_hal_gtzc.c ****     {
 300:../../Drivers/STM32L5xx_HAL_Driver/Src/stm32l5xx_hal_gtzc.c ****       /* do nothing */
 301:../../Drivers/STM32L5xx_HAL_Driver/Src/stm32l5xx_hal_gtzc.c ****     }
 302:../../Drivers/STM32L5xx_HAL_Driver/Src/stm32l5xx_hal_gtzc.c ****   }
 303:../../Drivers/STM32L5xx_HAL_Driver/Src/stm32l5xx_hal_gtzc.c ****   return HAL_OK;
 130              		.loc 1 303 10 is_stmt 0 view .LVU29
 131 0090 0020     		movs	r0, #0
 132 0092 38E0     		b	.L2
 133              	.L4:
 273:../../Drivers/STM32L5xx_HAL_Driver/Src/stm32l5xx_hal_gtzc.c ****     if ((PeriphAttributes & GTZC_TZSC_PERIPH_SEC) == GTZC_TZSC_PERIPH_SEC)
 134              		.loc 1 273 5 is_stmt 1 view .LVU30
 273:../../Drivers/STM32L5xx_HAL_Driver/Src/stm32l5xx_hal_gtzc.c ****     if ((PeriphAttributes & GTZC_TZSC_PERIPH_SEC) == GTZC_TZSC_PERIPH_SEC)
 135              		.loc 1 273 58 is_stmt 0 view .LVU31
 136 0094 2148     		ldr	r0, .L24+4
 137 0096 1844     		add	r0, r0, r3
 273:../../Drivers/STM32L5xx_HAL_Driver/Src/stm32l5xx_hal_gtzc.c ****     if ((PeriphAttributes & GTZC_TZSC_PERIPH_SEC) == GTZC_TZSC_PERIPH_SEC)
 138              		.loc 1 273 22 view .LVU32
 139 0098 8000     		lsls	r0, r0, #2
 140              	.LVL2:
 274:../../Drivers/STM32L5xx_HAL_Driver/Src/stm32l5xx_hal_gtzc.c ****     {
 141              		.loc 1 274 5 is_stmt 1 view .LVU33
 274:../../Drivers/STM32L5xx_HAL_Driver/Src/stm32l5xx_hal_gtzc.c ****     {
 142              		.loc 1 274 8 is_stmt 0 view .LVU34
 143 009a 40F20114 		movw	r4, #257
 144 009e 8C43     		bics	r4, r4, r1
ARM GAS  /tmp/cczkRLel.s 			page 9


 145 00a0 0BD0     		beq	.L22
 278:../../Drivers/STM32L5xx_HAL_Driver/Src/stm32l5xx_hal_gtzc.c ****     {
 146              		.loc 1 278 10 is_stmt 1 view .LVU35
 278:../../Drivers/STM32L5xx_HAL_Driver/Src/stm32l5xx_hal_gtzc.c ****     {
 147              		.loc 1 278 13 is_stmt 0 view .LVU36
 148 00a2 11F4807F 		tst	r1, #256
 149 00a6 10D0     		beq	.L9
 280:../../Drivers/STM32L5xx_HAL_Driver/Src/stm32l5xx_hal_gtzc.c ****     }
 150              		.loc 1 280 7 is_stmt 1 view .LVU37
 151 00a8 0468     		ldr	r4, [r0]
 152 00aa 4FF0010C 		mov	ip, #1
 153 00ae 0CFA02FC 		lsl	ip, ip, r2
 154 00b2 24EA0C04 		bic	r4, r4, ip
 155 00b6 0460     		str	r4, [r0]
 156 00b8 07E0     		b	.L9
 157              	.L22:
 276:../../Drivers/STM32L5xx_HAL_Driver/Src/stm32l5xx_hal_gtzc.c ****     }
 158              		.loc 1 276 7 view .LVU38
 159 00ba 0468     		ldr	r4, [r0]
 160 00bc 4FF0010C 		mov	ip, #1
 161 00c0 0CFA02FC 		lsl	ip, ip, r2
 162 00c4 44EA0C04 		orr	r4, r4, ip
 163 00c8 0460     		str	r4, [r0]
 164              	.L9:
 285:../../Drivers/STM32L5xx_HAL_Driver/Src/stm32l5xx_hal_gtzc.c **** #endif /* defined(__ARM_FEATURE_CMSE) && (__ARM_FEATURE_CMSE == 3U) */
 165              		.loc 1 285 5 view .LVU39
 289:../../Drivers/STM32L5xx_HAL_Driver/Src/stm32l5xx_hal_gtzc.c ****     if ((PeriphAttributes & GTZC_TZSC_PERIPH_PRIV) == GTZC_TZSC_PERIPH_PRIV)
 166              		.loc 1 289 5 view .LVU40
 289:../../Drivers/STM32L5xx_HAL_Driver/Src/stm32l5xx_hal_gtzc.c ****     if ((PeriphAttributes & GTZC_TZSC_PERIPH_PRIV) == GTZC_TZSC_PERIPH_PRIV)
 167              		.loc 1 289 59 is_stmt 0 view .LVU41
 168 00ca 1548     		ldr	r0, .L24+8
 169              	.LVL3:
 289:../../Drivers/STM32L5xx_HAL_Driver/Src/stm32l5xx_hal_gtzc.c ****     if ((PeriphAttributes & GTZC_TZSC_PERIPH_PRIV) == GTZC_TZSC_PERIPH_PRIV)
 170              		.loc 1 289 59 view .LVU42
 171 00cc 1844     		add	r0, r0, r3
 289:../../Drivers/STM32L5xx_HAL_Driver/Src/stm32l5xx_hal_gtzc.c ****     if ((PeriphAttributes & GTZC_TZSC_PERIPH_PRIV) == GTZC_TZSC_PERIPH_PRIV)
 172              		.loc 1 289 22 view .LVU43
 173 00ce 8000     		lsls	r0, r0, #2
 174              	.LVL4:
 290:../../Drivers/STM32L5xx_HAL_Driver/Src/stm32l5xx_hal_gtzc.c ****     {
 175              		.loc 1 290 5 is_stmt 1 view .LVU44
 290:../../Drivers/STM32L5xx_HAL_Driver/Src/stm32l5xx_hal_gtzc.c ****     {
 176              		.loc 1 290 8 is_stmt 0 view .LVU45
 177 00d0 40F20223 		movw	r3, #514
 178 00d4 8B43     		bics	r3, r3, r1
 179 00d6 0BD0     		beq	.L23
 294:../../Drivers/STM32L5xx_HAL_Driver/Src/stm32l5xx_hal_gtzc.c ****     {
 180              		.loc 1 294 10 is_stmt 1 view .LVU46
 294:../../Drivers/STM32L5xx_HAL_Driver/Src/stm32l5xx_hal_gtzc.c ****     {
 181              		.loc 1 294 13 is_stmt 0 view .LVU47
 182 00d8 11F4007F 		tst	r1, #512
 183 00dc 1AD0     		beq	.L15
 296:../../Drivers/STM32L5xx_HAL_Driver/Src/stm32l5xx_hal_gtzc.c ****     }
 184              		.loc 1 296 7 is_stmt 1 view .LVU48
 185 00de 0368     		ldr	r3, [r0]
 186 00e0 0121     		movs	r1, #1
 187              	.LVL5:
ARM GAS  /tmp/cczkRLel.s 			page 10


 296:../../Drivers/STM32L5xx_HAL_Driver/Src/stm32l5xx_hal_gtzc.c ****     }
 188              		.loc 1 296 7 is_stmt 0 view .LVU49
 189 00e2 01FA02F2 		lsl	r2, r1, r2
 190 00e6 23EA0203 		bic	r3, r3, r2
 191 00ea 0360     		str	r3, [r0]
 192              		.loc 1 303 10 view .LVU50
 193 00ec 0020     		movs	r0, #0
 194              	.LVL6:
 195              		.loc 1 303 10 view .LVU51
 196 00ee 0AE0     		b	.L2
 197              	.LVL7:
 198              	.L23:
 292:../../Drivers/STM32L5xx_HAL_Driver/Src/stm32l5xx_hal_gtzc.c ****     }
 199              		.loc 1 292 7 is_stmt 1 view .LVU52
 200 00f0 0368     		ldr	r3, [r0]
 201 00f2 0121     		movs	r1, #1
 202              	.LVL8:
 292:../../Drivers/STM32L5xx_HAL_Driver/Src/stm32l5xx_hal_gtzc.c ****     }
 203              		.loc 1 292 7 is_stmt 0 view .LVU53
 204 00f4 01FA02F2 		lsl	r2, r1, r2
 205 00f8 1343     		orrs	r3, r3, r2
 206 00fa 0360     		str	r3, [r0]
 207              		.loc 1 303 10 view .LVU54
 208 00fc 0020     		movs	r0, #0
 209              	.LVL9:
 210              		.loc 1 303 10 view .LVU55
 211 00fe 02E0     		b	.L2
 212              	.LVL10:
 213              	.L11:
 214              	.LCFI1:
 215              		.cfi_def_cfa_offset 0
 216              		.cfi_restore 4
 226:../../Drivers/STM32L5xx_HAL_Driver/Src/stm32l5xx_hal_gtzc.c ****   }
 217              		.loc 1 226 12 view .LVU56
 218 0100 0120     		movs	r0, #1
 219              	.LVL11:
 304:../../Drivers/STM32L5xx_HAL_Driver/Src/stm32l5xx_hal_gtzc.c **** }
 220              		.loc 1 304 1 view .LVU57
 221 0102 7047     		bx	lr
 222              	.LVL12:
 223              	.L12:
 224              	.LCFI2:
 225              		.cfi_def_cfa_offset 4
 226              		.cfi_offset 4, -4
 226:../../Drivers/STM32L5xx_HAL_Driver/Src/stm32l5xx_hal_gtzc.c ****   }
 227              		.loc 1 226 12 view .LVU58
 228 0104 0120     		movs	r0, #1
 229              	.LVL13:
 230              	.L2:
 231              		.loc 1 304 1 view .LVU59
 232 0106 5DF8044B 		ldr	r4, [sp], #4
 233              	.LCFI3:
 234              		.cfi_remember_state
 235              		.cfi_restore 4
 236              		.cfi_def_cfa_offset 0
 237 010a 7047     		bx	lr
 238              	.LVL14:
ARM GAS  /tmp/cczkRLel.s 			page 11


 239              	.L13:
 240              	.LCFI4:
 241              		.cfi_restore_state
 226:../../Drivers/STM32L5xx_HAL_Driver/Src/stm32l5xx_hal_gtzc.c ****   }
 242              		.loc 1 226 12 view .LVU60
 243 010c 0120     		movs	r0, #1
 244 010e FAE7     		b	.L2
 245              	.L14:
 303:../../Drivers/STM32L5xx_HAL_Driver/Src/stm32l5xx_hal_gtzc.c **** }
 246              		.loc 1 303 10 view .LVU61
 247 0110 0020     		movs	r0, #0
 248 0112 F8E7     		b	.L2
 249              	.LVL15:
 250              	.L15:
 303:../../Drivers/STM32L5xx_HAL_Driver/Src/stm32l5xx_hal_gtzc.c **** }
 251              		.loc 1 303 10 view .LVU62
 252 0114 0020     		movs	r0, #0
 253              	.LVL16:
 303:../../Drivers/STM32L5xx_HAL_Driver/Src/stm32l5xx_hal_gtzc.c **** }
 254              		.loc 1 303 10 view .LVU63
 255 0116 F6E7     		b	.L2
 256              	.L25:
 257              		.align	2
 258              	.L24:
 259 0118 00240350 		.word	1342383104
 260 011c 04C90014 		.word	335595780
 261 0120 08C90014 		.word	335595784
 262              		.cfi_endproc
 263              	.LFE202:
 265              		.section	.text.HAL_GTZC_TZSC_GetConfigPeriphAttributes,"ax",%progbits
 266              		.align	1
 267              		.global	HAL_GTZC_TZSC_GetConfigPeriphAttributes
 268              		.syntax unified
 269              		.thumb
 270              		.thumb_func
 272              	HAL_GTZC_TZSC_GetConfigPeriphAttributes:
 273              	.LVL17:
 274              	.LFB203:
 305:../../Drivers/STM32L5xx_HAL_Driver/Src/stm32l5xx_hal_gtzc.c **** 
 306:../../Drivers/STM32L5xx_HAL_Driver/Src/stm32l5xx_hal_gtzc.c **** /**
 307:../../Drivers/STM32L5xx_HAL_Driver/Src/stm32l5xx_hal_gtzc.c ****   * @brief  Get TZSC configuration on a single peripheral or on all peripherals.
 308:../../Drivers/STM32L5xx_HAL_Driver/Src/stm32l5xx_hal_gtzc.c ****   * @param  PeriphId Peripheral identifier.
 309:../../Drivers/STM32L5xx_HAL_Driver/Src/stm32l5xx_hal_gtzc.c ****   *         This parameter can be a value of @ref GTZC_TZSC_TZIC_PeriphId.
 310:../../Drivers/STM32L5xx_HAL_Driver/Src/stm32l5xx_hal_gtzc.c ****   *         Use GTZC_PERIPH_ALL to select all peripherals.
 311:../../Drivers/STM32L5xx_HAL_Driver/Src/stm32l5xx_hal_gtzc.c ****   * @param  PeriphAttributes Peripheral attribute pointer.
 312:../../Drivers/STM32L5xx_HAL_Driver/Src/stm32l5xx_hal_gtzc.c ****   *         This parameter can be a value of @ref GTZC_TZSC_PeriphAttributes.
 313:../../Drivers/STM32L5xx_HAL_Driver/Src/stm32l5xx_hal_gtzc.c ****   *         If PeriphId target a single peripheral, pointer on a single element.
 314:../../Drivers/STM32L5xx_HAL_Driver/Src/stm32l5xx_hal_gtzc.c ****   *         If all peripherals selected (GTZC_PERIPH_ALL), pointer to an array of
 315:../../Drivers/STM32L5xx_HAL_Driver/Src/stm32l5xx_hal_gtzc.c ****   *         GTZC_TZSC_PERIPH_NUMBER elements is to be provided.
 316:../../Drivers/STM32L5xx_HAL_Driver/Src/stm32l5xx_hal_gtzc.c ****   * @retval HAL status.
 317:../../Drivers/STM32L5xx_HAL_Driver/Src/stm32l5xx_hal_gtzc.c ****   */
 318:../../Drivers/STM32L5xx_HAL_Driver/Src/stm32l5xx_hal_gtzc.c **** HAL_StatusTypeDef HAL_GTZC_TZSC_GetConfigPeriphAttributes(uint32_t PeriphId,
 319:../../Drivers/STM32L5xx_HAL_Driver/Src/stm32l5xx_hal_gtzc.c ****                                                           uint32_t *PeriphAttributes)
 320:../../Drivers/STM32L5xx_HAL_Driver/Src/stm32l5xx_hal_gtzc.c **** {
 275              		.loc 1 320 1 is_stmt 1 view -0
 276              		.cfi_startproc
 277              		@ args = 0, pretend = 0, frame = 0
ARM GAS  /tmp/cczkRLel.s 			page 12


 278              		@ frame_needed = 0, uses_anonymous_args = 0
 279              		@ link register save eliminated.
 321:../../Drivers/STM32L5xx_HAL_Driver/Src/stm32l5xx_hal_gtzc.c ****   uint32_t i;
 280              		.loc 1 321 3 view .LVU65
 322:../../Drivers/STM32L5xx_HAL_Driver/Src/stm32l5xx_hal_gtzc.c ****   uint32_t reg_value;
 281              		.loc 1 322 3 view .LVU66
 323:../../Drivers/STM32L5xx_HAL_Driver/Src/stm32l5xx_hal_gtzc.c ****   uint32_t register_address;
 282              		.loc 1 323 3 view .LVU67
 324:../../Drivers/STM32L5xx_HAL_Driver/Src/stm32l5xx_hal_gtzc.c **** 
 325:../../Drivers/STM32L5xx_HAL_Driver/Src/stm32l5xx_hal_gtzc.c ****   /* check entry parameters */
 326:../../Drivers/STM32L5xx_HAL_Driver/Src/stm32l5xx_hal_gtzc.c ****   if ((PeriphAttributes == NULL)
 283              		.loc 1 326 3 view .LVU68
 284              		.loc 1 326 6 is_stmt 0 view .LVU69
 285 0000 8C46     		mov	ip, r1
 286 0002 0029     		cmp	r1, #0
 287 0004 00F09F80 		beq	.L49
 327:../../Drivers/STM32L5xx_HAL_Driver/Src/stm32l5xx_hal_gtzc.c ****       || (HAL_GTZC_GET_ARRAY_INDEX(PeriphId) >= GTZC_TZSC_PERIPH_NUMBER)
 288              		.loc 1 327 11 view .LVU70
 289 0008 020F     		lsrs	r2, r0, #28
 290 000a 00F01F03 		and	r3, r0, #31
 291 000e 03EB4211 		add	r1, r3, r2, lsl #5
 292              	.LVL18:
 293              		.loc 1 327 7 view .LVU71
 294 0012 3229     		cmp	r1, #50
 295 0014 00F29980 		bhi	.L50
 328:../../Drivers/STM32L5xx_HAL_Driver/Src/stm32l5xx_hal_gtzc.c ****       || (((PeriphId & GTZC_PERIPH_ALL) != 0U) && (HAL_GTZC_GET_ARRAY_INDEX(PeriphId) != 0U)))
 296              		.loc 1 328 7 view .LVU72
 297 0018 10F02000 		ands	r0, r0, #32
 298              	.LVL19:
 299              		.loc 1 328 7 view .LVU73
 300 001c 02D0     		beq	.L28
 301              		.loc 1 328 48 discriminator 1 view .LVU74
 302 001e 0029     		cmp	r1, #0
 303 0020 40F09580 		bne	.L51
 304              	.L28:
 329:../../Drivers/STM32L5xx_HAL_Driver/Src/stm32l5xx_hal_gtzc.c ****   {
 330:../../Drivers/STM32L5xx_HAL_Driver/Src/stm32l5xx_hal_gtzc.c ****     return HAL_ERROR;
 331:../../Drivers/STM32L5xx_HAL_Driver/Src/stm32l5xx_hal_gtzc.c ****   }
 332:../../Drivers/STM32L5xx_HAL_Driver/Src/stm32l5xx_hal_gtzc.c **** 
 333:../../Drivers/STM32L5xx_HAL_Driver/Src/stm32l5xx_hal_gtzc.c ****   if ((PeriphId & GTZC_PERIPH_ALL) != 0U)
 305              		.loc 1 333 3 is_stmt 1 view .LVU75
 306              		.loc 1 333 6 is_stmt 0 view .LVU76
 307 0024 0028     		cmp	r0, #0
 308 0026 63D0     		beq	.L29
 334:../../Drivers/STM32L5xx_HAL_Driver/Src/stm32l5xx_hal_gtzc.c ****   {
 335:../../Drivers/STM32L5xx_HAL_Driver/Src/stm32l5xx_hal_gtzc.c ****     /* get secure configuration: read each register and deploy each bit value
 336:../../Drivers/STM32L5xx_HAL_Driver/Src/stm32l5xx_hal_gtzc.c ****      * of corresponding index in the destination array
 337:../../Drivers/STM32L5xx_HAL_Driver/Src/stm32l5xx_hal_gtzc.c ****      */
 338:../../Drivers/STM32L5xx_HAL_Driver/Src/stm32l5xx_hal_gtzc.c ****     reg_value = READ_REG(GTZC_TZSC->SECCFGR1);
 309              		.loc 1 338 5 is_stmt 1 view .LVU77
 310              		.loc 1 338 15 is_stmt 0 view .LVU78
 311 0028 4A4B     		ldr	r3, .L56
 312 002a 1969     		ldr	r1, [r3, #16]
 313              	.LVL20:
 339:../../Drivers/STM32L5xx_HAL_Driver/Src/stm32l5xx_hal_gtzc.c ****     for (i = 0U; i < 32U; i++)
 314              		.loc 1 339 5 is_stmt 1 view .LVU79
 315              		.loc 1 339 12 is_stmt 0 view .LVU80
ARM GAS  /tmp/cczkRLel.s 			page 13


 316 002c 0023     		movs	r3, #0
 317              		.loc 1 339 5 view .LVU81
 318 002e 04E0     		b	.L30
 319              	.LVL21:
 320              	.L31:
 340:../../Drivers/STM32L5xx_HAL_Driver/Src/stm32l5xx_hal_gtzc.c ****     {
 341:../../Drivers/STM32L5xx_HAL_Driver/Src/stm32l5xx_hal_gtzc.c ****       if (((reg_value & (1UL << i)) >> i) != 0U)
 342:../../Drivers/STM32L5xx_HAL_Driver/Src/stm32l5xx_hal_gtzc.c ****       {
 343:../../Drivers/STM32L5xx_HAL_Driver/Src/stm32l5xx_hal_gtzc.c ****         PeriphAttributes[i] = GTZC_TZSC_PERIPH_SEC;
 344:../../Drivers/STM32L5xx_HAL_Driver/Src/stm32l5xx_hal_gtzc.c ****       }
 345:../../Drivers/STM32L5xx_HAL_Driver/Src/stm32l5xx_hal_gtzc.c ****       else
 346:../../Drivers/STM32L5xx_HAL_Driver/Src/stm32l5xx_hal_gtzc.c ****       {
 347:../../Drivers/STM32L5xx_HAL_Driver/Src/stm32l5xx_hal_gtzc.c ****         PeriphAttributes[i] = GTZC_TZSC_PERIPH_NSEC;
 321              		.loc 1 347 9 is_stmt 1 view .LVU82
 322              		.loc 1 347 29 is_stmt 0 view .LVU83
 323 0030 4FF48072 		mov	r2, #256
 324 0034 4CF82320 		str	r2, [ip, r3, lsl #2]
 325              	.L32:
 339:../../Drivers/STM32L5xx_HAL_Driver/Src/stm32l5xx_hal_gtzc.c ****     for (i = 0U; i < 32U; i++)
 326              		.loc 1 339 28 is_stmt 1 discriminator 2 view .LVU84
 327 0038 0133     		adds	r3, r3, #1
 328              	.LVL22:
 329              	.L30:
 339:../../Drivers/STM32L5xx_HAL_Driver/Src/stm32l5xx_hal_gtzc.c ****     for (i = 0U; i < 32U; i++)
 330              		.loc 1 339 20 discriminator 1 view .LVU85
 331 003a 1F2B     		cmp	r3, #31
 332 003c 09D8     		bhi	.L52
 341:../../Drivers/STM32L5xx_HAL_Driver/Src/stm32l5xx_hal_gtzc.c ****       {
 333              		.loc 1 341 7 view .LVU86
 341:../../Drivers/STM32L5xx_HAL_Driver/Src/stm32l5xx_hal_gtzc.c ****       {
 334              		.loc 1 341 30 is_stmt 0 view .LVU87
 335 003e 0122     		movs	r2, #1
 336 0040 9A40     		lsls	r2, r2, r3
 341:../../Drivers/STM32L5xx_HAL_Driver/Src/stm32l5xx_hal_gtzc.c ****       {
 337              		.loc 1 341 23 view .LVU88
 338 0042 0A40     		ands	r2, r2, r1
 341:../../Drivers/STM32L5xx_HAL_Driver/Src/stm32l5xx_hal_gtzc.c ****       {
 339              		.loc 1 341 10 view .LVU89
 340 0044 DA40     		lsrs	r2, r2, r3
 341 0046 F3D0     		beq	.L31
 343:../../Drivers/STM32L5xx_HAL_Driver/Src/stm32l5xx_hal_gtzc.c ****       }
 342              		.loc 1 343 9 is_stmt 1 view .LVU90
 343:../../Drivers/STM32L5xx_HAL_Driver/Src/stm32l5xx_hal_gtzc.c ****       }
 343              		.loc 1 343 29 is_stmt 0 view .LVU91
 344 0048 40F20112 		movw	r2, #257
 345 004c 4CF82320 		str	r2, [ip, r3, lsl #2]
 346 0050 F2E7     		b	.L32
 347              	.L52:
 348:../../Drivers/STM32L5xx_HAL_Driver/Src/stm32l5xx_hal_gtzc.c ****       }
 349:../../Drivers/STM32L5xx_HAL_Driver/Src/stm32l5xx_hal_gtzc.c ****     }
 350:../../Drivers/STM32L5xx_HAL_Driver/Src/stm32l5xx_hal_gtzc.c **** 
 351:../../Drivers/STM32L5xx_HAL_Driver/Src/stm32l5xx_hal_gtzc.c ****     reg_value = READ_REG(GTZC_TZSC->SECCFGR2);
 348              		.loc 1 351 5 is_stmt 1 view .LVU92
 349              		.loc 1 351 15 is_stmt 0 view .LVU93
 350 0052 404A     		ldr	r2, .L56
 351 0054 5069     		ldr	r0, [r2, #20]
 352              	.LVL23:
ARM GAS  /tmp/cczkRLel.s 			page 14


 352:../../Drivers/STM32L5xx_HAL_Driver/Src/stm32l5xx_hal_gtzc.c ****     for (/*i = 32U*/; i < GTZC_TZSC_PERIPH_NUMBER; i++)
 353              		.loc 1 352 5 is_stmt 1 view .LVU94
 354 0056 04E0     		b	.L34
 355              	.L35:
 353:../../Drivers/STM32L5xx_HAL_Driver/Src/stm32l5xx_hal_gtzc.c ****     {
 354:../../Drivers/STM32L5xx_HAL_Driver/Src/stm32l5xx_hal_gtzc.c ****       if (((reg_value & (1UL << (i - 32U))) >> (i - 32U)) != 0U)
 355:../../Drivers/STM32L5xx_HAL_Driver/Src/stm32l5xx_hal_gtzc.c ****       {
 356:../../Drivers/STM32L5xx_HAL_Driver/Src/stm32l5xx_hal_gtzc.c ****         PeriphAttributes[i] = GTZC_TZSC_PERIPH_SEC;
 357:../../Drivers/STM32L5xx_HAL_Driver/Src/stm32l5xx_hal_gtzc.c ****       }
 358:../../Drivers/STM32L5xx_HAL_Driver/Src/stm32l5xx_hal_gtzc.c ****       else
 359:../../Drivers/STM32L5xx_HAL_Driver/Src/stm32l5xx_hal_gtzc.c ****       {
 360:../../Drivers/STM32L5xx_HAL_Driver/Src/stm32l5xx_hal_gtzc.c ****         PeriphAttributes[i] = GTZC_TZSC_PERIPH_NSEC;
 356              		.loc 1 360 9 view .LVU95
 357              		.loc 1 360 29 is_stmt 0 view .LVU96
 358 0058 4FF48072 		mov	r2, #256
 359 005c 4CF82320 		str	r2, [ip, r3, lsl #2]
 360              	.L36:
 352:../../Drivers/STM32L5xx_HAL_Driver/Src/stm32l5xx_hal_gtzc.c ****     for (/*i = 32U*/; i < GTZC_TZSC_PERIPH_NUMBER; i++)
 361              		.loc 1 352 53 is_stmt 1 view .LVU97
 362 0060 0133     		adds	r3, r3, #1
 363              	.LVL24:
 364              	.L34:
 352:../../Drivers/STM32L5xx_HAL_Driver/Src/stm32l5xx_hal_gtzc.c ****     for (/*i = 32U*/; i < GTZC_TZSC_PERIPH_NUMBER; i++)
 365              		.loc 1 352 25 discriminator 1 view .LVU98
 366 0062 322B     		cmp	r3, #50
 367 0064 0BD8     		bhi	.L53
 354:../../Drivers/STM32L5xx_HAL_Driver/Src/stm32l5xx_hal_gtzc.c ****       {
 368              		.loc 1 354 7 view .LVU99
 354:../../Drivers/STM32L5xx_HAL_Driver/Src/stm32l5xx_hal_gtzc.c ****       {
 369              		.loc 1 354 36 is_stmt 0 view .LVU100
 370 0066 A3F12001 		sub	r1, r3, #32
 354:../../Drivers/STM32L5xx_HAL_Driver/Src/stm32l5xx_hal_gtzc.c ****       {
 371              		.loc 1 354 30 view .LVU101
 372 006a 0122     		movs	r2, #1
 373 006c 8A40     		lsls	r2, r2, r1
 354:../../Drivers/STM32L5xx_HAL_Driver/Src/stm32l5xx_hal_gtzc.c ****       {
 374              		.loc 1 354 23 view .LVU102
 375 006e 0240     		ands	r2, r2, r0
 354:../../Drivers/STM32L5xx_HAL_Driver/Src/stm32l5xx_hal_gtzc.c ****       {
 376              		.loc 1 354 10 view .LVU103
 377 0070 CA40     		lsrs	r2, r2, r1
 378 0072 F1D0     		beq	.L35
 356:../../Drivers/STM32L5xx_HAL_Driver/Src/stm32l5xx_hal_gtzc.c ****       }
 379              		.loc 1 356 9 is_stmt 1 view .LVU104
 356:../../Drivers/STM32L5xx_HAL_Driver/Src/stm32l5xx_hal_gtzc.c ****       }
 380              		.loc 1 356 29 is_stmt 0 view .LVU105
 381 0074 40F20112 		movw	r2, #257
 382 0078 4CF82320 		str	r2, [ip, r3, lsl #2]
 383 007c F0E7     		b	.L36
 384              	.L53:
 361:../../Drivers/STM32L5xx_HAL_Driver/Src/stm32l5xx_hal_gtzc.c ****       }
 362:../../Drivers/STM32L5xx_HAL_Driver/Src/stm32l5xx_hal_gtzc.c ****     }
 363:../../Drivers/STM32L5xx_HAL_Driver/Src/stm32l5xx_hal_gtzc.c **** 
 364:../../Drivers/STM32L5xx_HAL_Driver/Src/stm32l5xx_hal_gtzc.c ****     /* get privilege configuration: read each register and deploy each bit value
 365:../../Drivers/STM32L5xx_HAL_Driver/Src/stm32l5xx_hal_gtzc.c ****      * of corresponding index in the destination array
 366:../../Drivers/STM32L5xx_HAL_Driver/Src/stm32l5xx_hal_gtzc.c ****      */
 367:../../Drivers/STM32L5xx_HAL_Driver/Src/stm32l5xx_hal_gtzc.c ****     reg_value = READ_REG(GTZC_TZSC->PRIVCFGR1);
ARM GAS  /tmp/cczkRLel.s 			page 15


 385              		.loc 1 367 5 is_stmt 1 view .LVU106
 386              		.loc 1 367 15 is_stmt 0 view .LVU107
 387 007e 354B     		ldr	r3, .L56
 388              	.LVL25:
 389              		.loc 1 367 15 view .LVU108
 390 0080 196A     		ldr	r1, [r3, #32]
 391              	.LVL26:
 368:../../Drivers/STM32L5xx_HAL_Driver/Src/stm32l5xx_hal_gtzc.c ****     for (i = 0U; i < 32U; i++)
 392              		.loc 1 368 5 is_stmt 1 view .LVU109
 393              		.loc 1 368 12 is_stmt 0 view .LVU110
 394 0082 0023     		movs	r3, #0
 395              		.loc 1 368 5 view .LVU111
 396 0084 06E0     		b	.L38
 397              	.LVL27:
 398              	.L39:
 369:../../Drivers/STM32L5xx_HAL_Driver/Src/stm32l5xx_hal_gtzc.c ****     {
 370:../../Drivers/STM32L5xx_HAL_Driver/Src/stm32l5xx_hal_gtzc.c ****       if (((reg_value & (1UL << i)) >> i) != 0U)
 371:../../Drivers/STM32L5xx_HAL_Driver/Src/stm32l5xx_hal_gtzc.c ****       {
 372:../../Drivers/STM32L5xx_HAL_Driver/Src/stm32l5xx_hal_gtzc.c ****         PeriphAttributes[i] |= GTZC_TZSC_PERIPH_PRIV;
 373:../../Drivers/STM32L5xx_HAL_Driver/Src/stm32l5xx_hal_gtzc.c ****       }
 374:../../Drivers/STM32L5xx_HAL_Driver/Src/stm32l5xx_hal_gtzc.c ****       else
 375:../../Drivers/STM32L5xx_HAL_Driver/Src/stm32l5xx_hal_gtzc.c ****       {
 376:../../Drivers/STM32L5xx_HAL_Driver/Src/stm32l5xx_hal_gtzc.c ****         PeriphAttributes[i] |= GTZC_TZSC_PERIPH_NPRIV;
 399              		.loc 1 376 9 is_stmt 1 view .LVU112
 400              		.loc 1 376 25 is_stmt 0 view .LVU113
 401 0086 5CF82320 		ldr	r2, [ip, r3, lsl #2]
 402              		.loc 1 376 29 view .LVU114
 403 008a 42F40072 		orr	r2, r2, #512
 404 008e 4CF82320 		str	r2, [ip, r3, lsl #2]
 405              	.L40:
 368:../../Drivers/STM32L5xx_HAL_Driver/Src/stm32l5xx_hal_gtzc.c ****     for (i = 0U; i < 32U; i++)
 406              		.loc 1 368 28 is_stmt 1 discriminator 2 view .LVU115
 407 0092 0133     		adds	r3, r3, #1
 408              	.LVL28:
 409              	.L38:
 368:../../Drivers/STM32L5xx_HAL_Driver/Src/stm32l5xx_hal_gtzc.c ****     for (i = 0U; i < 32U; i++)
 410              		.loc 1 368 20 discriminator 1 view .LVU116
 411 0094 1F2B     		cmp	r3, #31
 412 0096 0DD8     		bhi	.L54
 370:../../Drivers/STM32L5xx_HAL_Driver/Src/stm32l5xx_hal_gtzc.c ****       {
 413              		.loc 1 370 7 view .LVU117
 370:../../Drivers/STM32L5xx_HAL_Driver/Src/stm32l5xx_hal_gtzc.c ****       {
 414              		.loc 1 370 30 is_stmt 0 view .LVU118
 415 0098 0122     		movs	r2, #1
 416 009a 9A40     		lsls	r2, r2, r3
 370:../../Drivers/STM32L5xx_HAL_Driver/Src/stm32l5xx_hal_gtzc.c ****       {
 417              		.loc 1 370 23 view .LVU119
 418 009c 0A40     		ands	r2, r2, r1
 370:../../Drivers/STM32L5xx_HAL_Driver/Src/stm32l5xx_hal_gtzc.c ****       {
 419              		.loc 1 370 10 view .LVU120
 420 009e DA40     		lsrs	r2, r2, r3
 421 00a0 F1D0     		beq	.L39
 372:../../Drivers/STM32L5xx_HAL_Driver/Src/stm32l5xx_hal_gtzc.c ****       }
 422              		.loc 1 372 9 is_stmt 1 view .LVU121
 372:../../Drivers/STM32L5xx_HAL_Driver/Src/stm32l5xx_hal_gtzc.c ****       }
 423              		.loc 1 372 25 is_stmt 0 view .LVU122
 424 00a2 5CF82320 		ldr	r2, [ip, r3, lsl #2]
ARM GAS  /tmp/cczkRLel.s 			page 16


 372:../../Drivers/STM32L5xx_HAL_Driver/Src/stm32l5xx_hal_gtzc.c ****       }
 425              		.loc 1 372 29 view .LVU123
 426 00a6 42F40072 		orr	r2, r2, #512
 427 00aa 42F00202 		orr	r2, r2, #2
 428 00ae 4CF82320 		str	r2, [ip, r3, lsl #2]
 429 00b2 EEE7     		b	.L40
 430              	.L54:
 377:../../Drivers/STM32L5xx_HAL_Driver/Src/stm32l5xx_hal_gtzc.c ****       }
 378:../../Drivers/STM32L5xx_HAL_Driver/Src/stm32l5xx_hal_gtzc.c ****     }
 379:../../Drivers/STM32L5xx_HAL_Driver/Src/stm32l5xx_hal_gtzc.c **** 
 380:../../Drivers/STM32L5xx_HAL_Driver/Src/stm32l5xx_hal_gtzc.c ****     reg_value = READ_REG(GTZC_TZSC->PRIVCFGR2);
 431              		.loc 1 380 5 is_stmt 1 view .LVU124
 432              		.loc 1 380 15 is_stmt 0 view .LVU125
 433 00b4 274A     		ldr	r2, .L56
 434 00b6 506A     		ldr	r0, [r2, #36]
 435              	.LVL29:
 381:../../Drivers/STM32L5xx_HAL_Driver/Src/stm32l5xx_hal_gtzc.c ****     for (/*i = 32U*/; i < GTZC_TZSC_PERIPH_NUMBER; i++)
 436              		.loc 1 381 5 is_stmt 1 view .LVU126
 437 00b8 06E0     		b	.L42
 438              	.L43:
 382:../../Drivers/STM32L5xx_HAL_Driver/Src/stm32l5xx_hal_gtzc.c ****     {
 383:../../Drivers/STM32L5xx_HAL_Driver/Src/stm32l5xx_hal_gtzc.c ****       if (((reg_value & (1UL << (i - 32U))) >> (i - 32U)) != 0U)
 384:../../Drivers/STM32L5xx_HAL_Driver/Src/stm32l5xx_hal_gtzc.c ****       {
 385:../../Drivers/STM32L5xx_HAL_Driver/Src/stm32l5xx_hal_gtzc.c ****         PeriphAttributes[i] |= GTZC_TZSC_PERIPH_PRIV;
 386:../../Drivers/STM32L5xx_HAL_Driver/Src/stm32l5xx_hal_gtzc.c ****       }
 387:../../Drivers/STM32L5xx_HAL_Driver/Src/stm32l5xx_hal_gtzc.c ****       else
 388:../../Drivers/STM32L5xx_HAL_Driver/Src/stm32l5xx_hal_gtzc.c ****       {
 389:../../Drivers/STM32L5xx_HAL_Driver/Src/stm32l5xx_hal_gtzc.c ****         PeriphAttributes[i] |= GTZC_TZSC_PERIPH_NPRIV;
 439              		.loc 1 389 9 view .LVU127
 440              		.loc 1 389 25 is_stmt 0 view .LVU128
 441 00ba 5CF82320 		ldr	r2, [ip, r3, lsl #2]
 442              		.loc 1 389 29 view .LVU129
 443 00be 42F40072 		orr	r2, r2, #512
 444 00c2 4CF82320 		str	r2, [ip, r3, lsl #2]
 445              	.L44:
 381:../../Drivers/STM32L5xx_HAL_Driver/Src/stm32l5xx_hal_gtzc.c ****     for (/*i = 32U*/; i < GTZC_TZSC_PERIPH_NUMBER; i++)
 446              		.loc 1 381 53 is_stmt 1 view .LVU130
 447 00c6 0133     		adds	r3, r3, #1
 448              	.LVL30:
 449              	.L42:
 381:../../Drivers/STM32L5xx_HAL_Driver/Src/stm32l5xx_hal_gtzc.c ****     for (/*i = 32U*/; i < GTZC_TZSC_PERIPH_NUMBER; i++)
 450              		.loc 1 381 25 discriminator 1 view .LVU131
 451 00c8 322B     		cmp	r3, #50
 452 00ca 0FD8     		bhi	.L55
 383:../../Drivers/STM32L5xx_HAL_Driver/Src/stm32l5xx_hal_gtzc.c ****       {
 453              		.loc 1 383 7 view .LVU132
 383:../../Drivers/STM32L5xx_HAL_Driver/Src/stm32l5xx_hal_gtzc.c ****       {
 454              		.loc 1 383 36 is_stmt 0 view .LVU133
 455 00cc A3F12001 		sub	r1, r3, #32
 383:../../Drivers/STM32L5xx_HAL_Driver/Src/stm32l5xx_hal_gtzc.c ****       {
 456              		.loc 1 383 30 view .LVU134
 457 00d0 0122     		movs	r2, #1
 458 00d2 8A40     		lsls	r2, r2, r1
 383:../../Drivers/STM32L5xx_HAL_Driver/Src/stm32l5xx_hal_gtzc.c ****       {
 459              		.loc 1 383 23 view .LVU135
 460 00d4 0240     		ands	r2, r2, r0
 383:../../Drivers/STM32L5xx_HAL_Driver/Src/stm32l5xx_hal_gtzc.c ****       {
ARM GAS  /tmp/cczkRLel.s 			page 17


 461              		.loc 1 383 10 view .LVU136
 462 00d6 CA40     		lsrs	r2, r2, r1
 463 00d8 EFD0     		beq	.L43
 385:../../Drivers/STM32L5xx_HAL_Driver/Src/stm32l5xx_hal_gtzc.c ****       }
 464              		.loc 1 385 9 is_stmt 1 view .LVU137
 385:../../Drivers/STM32L5xx_HAL_Driver/Src/stm32l5xx_hal_gtzc.c ****       }
 465              		.loc 1 385 25 is_stmt 0 view .LVU138
 466 00da 5CF82320 		ldr	r2, [ip, r3, lsl #2]
 385:../../Drivers/STM32L5xx_HAL_Driver/Src/stm32l5xx_hal_gtzc.c ****       }
 467              		.loc 1 385 29 view .LVU139
 468 00de 42F40072 		orr	r2, r2, #512
 469 00e2 42F00202 		orr	r2, r2, #2
 470 00e6 4CF82320 		str	r2, [ip, r3, lsl #2]
 471 00ea ECE7     		b	.L44
 472              	.L55:
 390:../../Drivers/STM32L5xx_HAL_Driver/Src/stm32l5xx_hal_gtzc.c ****       }
 391:../../Drivers/STM32L5xx_HAL_Driver/Src/stm32l5xx_hal_gtzc.c ****     }
 392:../../Drivers/STM32L5xx_HAL_Driver/Src/stm32l5xx_hal_gtzc.c **** 
 393:../../Drivers/STM32L5xx_HAL_Driver/Src/stm32l5xx_hal_gtzc.c ****   }
 394:../../Drivers/STM32L5xx_HAL_Driver/Src/stm32l5xx_hal_gtzc.c ****   else
 395:../../Drivers/STM32L5xx_HAL_Driver/Src/stm32l5xx_hal_gtzc.c ****   {
 396:../../Drivers/STM32L5xx_HAL_Driver/Src/stm32l5xx_hal_gtzc.c ****     /* common case where only one peripheral is configured */
 397:../../Drivers/STM32L5xx_HAL_Driver/Src/stm32l5xx_hal_gtzc.c **** 
 398:../../Drivers/STM32L5xx_HAL_Driver/Src/stm32l5xx_hal_gtzc.c ****     /* secure configuration */
 399:../../Drivers/STM32L5xx_HAL_Driver/Src/stm32l5xx_hal_gtzc.c ****     register_address = (uint32_t) &(GTZC_TZSC->SECCFGR1) + (4U * GTZC_GET_REG_INDEX(PeriphId));
 400:../../Drivers/STM32L5xx_HAL_Driver/Src/stm32l5xx_hal_gtzc.c **** 
 401:../../Drivers/STM32L5xx_HAL_Driver/Src/stm32l5xx_hal_gtzc.c ****     if (((READ_BIT(*(__IO uint32_t *)register_address,
 402:../../Drivers/STM32L5xx_HAL_Driver/Src/stm32l5xx_hal_gtzc.c ****                    1UL << GTZC_GET_PERIPH_POS(PeriphId))) >> GTZC_GET_PERIPH_POS(PeriphId))
 403:../../Drivers/STM32L5xx_HAL_Driver/Src/stm32l5xx_hal_gtzc.c ****         != 0U)
 404:../../Drivers/STM32L5xx_HAL_Driver/Src/stm32l5xx_hal_gtzc.c ****     {
 405:../../Drivers/STM32L5xx_HAL_Driver/Src/stm32l5xx_hal_gtzc.c ****       *PeriphAttributes = GTZC_TZSC_PERIPH_SEC;
 406:../../Drivers/STM32L5xx_HAL_Driver/Src/stm32l5xx_hal_gtzc.c ****     }
 407:../../Drivers/STM32L5xx_HAL_Driver/Src/stm32l5xx_hal_gtzc.c ****     else
 408:../../Drivers/STM32L5xx_HAL_Driver/Src/stm32l5xx_hal_gtzc.c ****     {
 409:../../Drivers/STM32L5xx_HAL_Driver/Src/stm32l5xx_hal_gtzc.c ****       *PeriphAttributes = GTZC_TZSC_PERIPH_NSEC;
 410:../../Drivers/STM32L5xx_HAL_Driver/Src/stm32l5xx_hal_gtzc.c ****     }
 411:../../Drivers/STM32L5xx_HAL_Driver/Src/stm32l5xx_hal_gtzc.c **** 
 412:../../Drivers/STM32L5xx_HAL_Driver/Src/stm32l5xx_hal_gtzc.c ****     /* privilege configuration */
 413:../../Drivers/STM32L5xx_HAL_Driver/Src/stm32l5xx_hal_gtzc.c ****     register_address = (uint32_t) &(GTZC_TZSC->PRIVCFGR1) + (4U * GTZC_GET_REG_INDEX(PeriphId));
 414:../../Drivers/STM32L5xx_HAL_Driver/Src/stm32l5xx_hal_gtzc.c **** 
 415:../../Drivers/STM32L5xx_HAL_Driver/Src/stm32l5xx_hal_gtzc.c ****     if (((READ_BIT(*(__IO uint32_t *)register_address,
 416:../../Drivers/STM32L5xx_HAL_Driver/Src/stm32l5xx_hal_gtzc.c ****                    1UL << GTZC_GET_PERIPH_POS(PeriphId))) >> GTZC_GET_PERIPH_POS(PeriphId))
 417:../../Drivers/STM32L5xx_HAL_Driver/Src/stm32l5xx_hal_gtzc.c ****         != 0U)
 418:../../Drivers/STM32L5xx_HAL_Driver/Src/stm32l5xx_hal_gtzc.c ****     {
 419:../../Drivers/STM32L5xx_HAL_Driver/Src/stm32l5xx_hal_gtzc.c ****       *PeriphAttributes |= GTZC_TZSC_PERIPH_PRIV;
 420:../../Drivers/STM32L5xx_HAL_Driver/Src/stm32l5xx_hal_gtzc.c ****     }
 421:../../Drivers/STM32L5xx_HAL_Driver/Src/stm32l5xx_hal_gtzc.c ****     else
 422:../../Drivers/STM32L5xx_HAL_Driver/Src/stm32l5xx_hal_gtzc.c ****     {
 423:../../Drivers/STM32L5xx_HAL_Driver/Src/stm32l5xx_hal_gtzc.c ****       *PeriphAttributes |= GTZC_TZSC_PERIPH_NPRIV;
 424:../../Drivers/STM32L5xx_HAL_Driver/Src/stm32l5xx_hal_gtzc.c ****     }
 425:../../Drivers/STM32L5xx_HAL_Driver/Src/stm32l5xx_hal_gtzc.c ****   }
 426:../../Drivers/STM32L5xx_HAL_Driver/Src/stm32l5xx_hal_gtzc.c ****   return HAL_OK;
 473              		.loc 1 426 10 view .LVU140
 474 00ec 0020     		movs	r0, #0
 475              	.LVL31:
 476              		.loc 1 426 10 view .LVU141
 477 00ee 7047     		bx	lr
ARM GAS  /tmp/cczkRLel.s 			page 18


 478              	.LVL32:
 479              	.L29:
 399:../../Drivers/STM32L5xx_HAL_Driver/Src/stm32l5xx_hal_gtzc.c **** 
 480              		.loc 1 399 5 is_stmt 1 view .LVU142
 399:../../Drivers/STM32L5xx_HAL_Driver/Src/stm32l5xx_hal_gtzc.c **** 
 481              		.loc 1 399 58 is_stmt 0 view .LVU143
 482 00f0 1949     		ldr	r1, .L56+4
 483 00f2 1144     		add	r1, r1, r2
 399:../../Drivers/STM32L5xx_HAL_Driver/Src/stm32l5xx_hal_gtzc.c **** 
 484              		.loc 1 399 22 view .LVU144
 485 00f4 8900     		lsls	r1, r1, #2
 486              	.LVL33:
 401:../../Drivers/STM32L5xx_HAL_Driver/Src/stm32l5xx_hal_gtzc.c ****                    1UL << GTZC_GET_PERIPH_POS(PeriphId))) >> GTZC_GET_PERIPH_POS(PeriphId))
 487              		.loc 1 401 5 is_stmt 1 view .LVU145
 401:../../Drivers/STM32L5xx_HAL_Driver/Src/stm32l5xx_hal_gtzc.c ****                    1UL << GTZC_GET_PERIPH_POS(PeriphId))) >> GTZC_GET_PERIPH_POS(PeriphId))
 488              		.loc 1 401 11 is_stmt 0 view .LVU146
 489 00f6 0868     		ldr	r0, [r1]
 490 00f8 0121     		movs	r1, #1
 491              	.LVL34:
 401:../../Drivers/STM32L5xx_HAL_Driver/Src/stm32l5xx_hal_gtzc.c ****                    1UL << GTZC_GET_PERIPH_POS(PeriphId))) >> GTZC_GET_PERIPH_POS(PeriphId))
 492              		.loc 1 401 11 view .LVU147
 493 00fa 9940     		lsls	r1, r1, r3
 494 00fc 0840     		ands	r0, r0, r1
 401:../../Drivers/STM32L5xx_HAL_Driver/Src/stm32l5xx_hal_gtzc.c ****                    1UL << GTZC_GET_PERIPH_POS(PeriphId))) >> GTZC_GET_PERIPH_POS(PeriphId))
 495              		.loc 1 401 8 view .LVU148
 496 00fe D840     		lsrs	r0, r0, r3
 497 0100 14D0     		beq	.L46
 405:../../Drivers/STM32L5xx_HAL_Driver/Src/stm32l5xx_hal_gtzc.c ****     }
 498              		.loc 1 405 7 is_stmt 1 view .LVU149
 405:../../Drivers/STM32L5xx_HAL_Driver/Src/stm32l5xx_hal_gtzc.c ****     }
 499              		.loc 1 405 25 is_stmt 0 view .LVU150
 500 0102 40F20110 		movw	r0, #257
 501 0106 CCF80000 		str	r0, [ip]
 502              	.L47:
 413:../../Drivers/STM32L5xx_HAL_Driver/Src/stm32l5xx_hal_gtzc.c **** 
 503              		.loc 1 413 5 is_stmt 1 view .LVU151
 413:../../Drivers/STM32L5xx_HAL_Driver/Src/stm32l5xx_hal_gtzc.c **** 
 504              		.loc 1 413 59 is_stmt 0 view .LVU152
 505 010a 1448     		ldr	r0, .L56+8
 506 010c 1044     		add	r0, r0, r2
 413:../../Drivers/STM32L5xx_HAL_Driver/Src/stm32l5xx_hal_gtzc.c **** 
 507              		.loc 1 413 22 view .LVU153
 508 010e 8000     		lsls	r0, r0, #2
 509              	.LVL35:
 415:../../Drivers/STM32L5xx_HAL_Driver/Src/stm32l5xx_hal_gtzc.c ****                    1UL << GTZC_GET_PERIPH_POS(PeriphId))) >> GTZC_GET_PERIPH_POS(PeriphId))
 510              		.loc 1 415 5 is_stmt 1 view .LVU154
 415:../../Drivers/STM32L5xx_HAL_Driver/Src/stm32l5xx_hal_gtzc.c ****                    1UL << GTZC_GET_PERIPH_POS(PeriphId))) >> GTZC_GET_PERIPH_POS(PeriphId))
 511              		.loc 1 415 11 is_stmt 0 view .LVU155
 512 0110 0268     		ldr	r2, [r0]
 513 0112 1140     		ands	r1, r1, r2
 415:../../Drivers/STM32L5xx_HAL_Driver/Src/stm32l5xx_hal_gtzc.c ****                    1UL << GTZC_GET_PERIPH_POS(PeriphId))) >> GTZC_GET_PERIPH_POS(PeriphId))
 514              		.loc 1 415 8 view .LVU156
 515 0114 D940     		lsrs	r1, r1, r3
 516 0116 0ED0     		beq	.L48
 419:../../Drivers/STM32L5xx_HAL_Driver/Src/stm32l5xx_hal_gtzc.c ****     }
 517              		.loc 1 419 7 is_stmt 1 view .LVU157
 518 0118 DCF80030 		ldr	r3, [ip]
ARM GAS  /tmp/cczkRLel.s 			page 19


 419:../../Drivers/STM32L5xx_HAL_Driver/Src/stm32l5xx_hal_gtzc.c ****     }
 519              		.loc 1 419 25 is_stmt 0 view .LVU158
 520 011c 43F40073 		orr	r3, r3, #512
 521 0120 43F00203 		orr	r3, r3, #2
 522 0124 CCF80030 		str	r3, [ip]
 523              		.loc 1 426 10 view .LVU159
 524 0128 0020     		movs	r0, #0
 525              	.LVL36:
 526              		.loc 1 426 10 view .LVU160
 527 012a 7047     		bx	lr
 528              	.LVL37:
 529              	.L46:
 409:../../Drivers/STM32L5xx_HAL_Driver/Src/stm32l5xx_hal_gtzc.c ****     }
 530              		.loc 1 409 7 is_stmt 1 view .LVU161
 409:../../Drivers/STM32L5xx_HAL_Driver/Src/stm32l5xx_hal_gtzc.c ****     }
 531              		.loc 1 409 25 is_stmt 0 view .LVU162
 532 012c 4FF48070 		mov	r0, #256
 533 0130 CCF80000 		str	r0, [ip]
 534 0134 E9E7     		b	.L47
 535              	.LVL38:
 536              	.L48:
 423:../../Drivers/STM32L5xx_HAL_Driver/Src/stm32l5xx_hal_gtzc.c ****     }
 537              		.loc 1 423 7 is_stmt 1 view .LVU163
 538 0136 DCF80030 		ldr	r3, [ip]
 423:../../Drivers/STM32L5xx_HAL_Driver/Src/stm32l5xx_hal_gtzc.c ****     }
 539              		.loc 1 423 25 is_stmt 0 view .LVU164
 540 013a 43F40073 		orr	r3, r3, #512
 541 013e CCF80030 		str	r3, [ip]
 542              		.loc 1 426 10 view .LVU165
 543 0142 0020     		movs	r0, #0
 544              	.LVL39:
 545              		.loc 1 426 10 view .LVU166
 546 0144 7047     		bx	lr
 547              	.LVL40:
 548              	.L49:
 330:../../Drivers/STM32L5xx_HAL_Driver/Src/stm32l5xx_hal_gtzc.c ****   }
 549              		.loc 1 330 12 view .LVU167
 550 0146 0120     		movs	r0, #1
 551              	.LVL41:
 330:../../Drivers/STM32L5xx_HAL_Driver/Src/stm32l5xx_hal_gtzc.c ****   }
 552              		.loc 1 330 12 view .LVU168
 553 0148 7047     		bx	lr
 554              	.LVL42:
 555              	.L50:
 330:../../Drivers/STM32L5xx_HAL_Driver/Src/stm32l5xx_hal_gtzc.c ****   }
 556              		.loc 1 330 12 view .LVU169
 557 014a 0120     		movs	r0, #1
 558              	.LVL43:
 330:../../Drivers/STM32L5xx_HAL_Driver/Src/stm32l5xx_hal_gtzc.c ****   }
 559              		.loc 1 330 12 view .LVU170
 560 014c 7047     		bx	lr
 561              	.L51:
 562 014e 0120     		movs	r0, #1
 427:../../Drivers/STM32L5xx_HAL_Driver/Src/stm32l5xx_hal_gtzc.c **** }
 563              		.loc 1 427 1 view .LVU171
 564 0150 7047     		bx	lr
 565              	.L57:
ARM GAS  /tmp/cczkRLel.s 			page 20


 566 0152 00BF     		.align	2
 567              	.L56:
 568 0154 00240350 		.word	1342383104
 569 0158 04C90014 		.word	335595780
 570 015c 08C90014 		.word	335595784
 571              		.cfi_endproc
 572              	.LFE203:
 574              		.section	.text.HAL_GTZC_TZSC_MPCWM_ConfigMemAttributes,"ax",%progbits
 575              		.align	1
 576              		.global	HAL_GTZC_TZSC_MPCWM_ConfigMemAttributes
 577              		.syntax unified
 578              		.thumb
 579              		.thumb_func
 581              	HAL_GTZC_TZSC_MPCWM_ConfigMemAttributes:
 582              	.LVL44:
 583              	.LFB204:
 428:../../Drivers/STM32L5xx_HAL_Driver/Src/stm32l5xx_hal_gtzc.c **** 
 429:../../Drivers/STM32L5xx_HAL_Driver/Src/stm32l5xx_hal_gtzc.c **** /**
 430:../../Drivers/STM32L5xx_HAL_Driver/Src/stm32l5xx_hal_gtzc.c ****   * @}
 431:../../Drivers/STM32L5xx_HAL_Driver/Src/stm32l5xx_hal_gtzc.c ****   */
 432:../../Drivers/STM32L5xx_HAL_Driver/Src/stm32l5xx_hal_gtzc.c **** 
 433:../../Drivers/STM32L5xx_HAL_Driver/Src/stm32l5xx_hal_gtzc.c **** #if defined(__ARM_FEATURE_CMSE) && (__ARM_FEATURE_CMSE == 3U)
 434:../../Drivers/STM32L5xx_HAL_Driver/Src/stm32l5xx_hal_gtzc.c **** 
 435:../../Drivers/STM32L5xx_HAL_Driver/Src/stm32l5xx_hal_gtzc.c **** /** @defgroup GTZC_Exported_Functions_Group2 MPCWM Configuration functions
 436:../../Drivers/STM32L5xx_HAL_Driver/Src/stm32l5xx_hal_gtzc.c ****   * @brief    MPCWM Configuration functions
 437:../../Drivers/STM32L5xx_HAL_Driver/Src/stm32l5xx_hal_gtzc.c ****   *
 438:../../Drivers/STM32L5xx_HAL_Driver/Src/stm32l5xx_hal_gtzc.c ****   @verbatim
 439:../../Drivers/STM32L5xx_HAL_Driver/Src/stm32l5xx_hal_gtzc.c ****   ==============================================================================
 440:../../Drivers/STM32L5xx_HAL_Driver/Src/stm32l5xx_hal_gtzc.c ****             ##### MPCWM Configuration functions #####
 441:../../Drivers/STM32L5xx_HAL_Driver/Src/stm32l5xx_hal_gtzc.c ****   ==============================================================================
 442:../../Drivers/STM32L5xx_HAL_Driver/Src/stm32l5xx_hal_gtzc.c ****   [..]
 443:../../Drivers/STM32L5xx_HAL_Driver/Src/stm32l5xx_hal_gtzc.c ****     This section provides functions allowing to configure MPCWM
 444:../../Drivers/STM32L5xx_HAL_Driver/Src/stm32l5xx_hal_gtzc.c ****     MPCWM is Memory Protection Controller WaterMark
 445:../../Drivers/STM32L5xx_HAL_Driver/Src/stm32l5xx_hal_gtzc.c **** @endverbatim
 446:../../Drivers/STM32L5xx_HAL_Driver/Src/stm32l5xx_hal_gtzc.c ****   * @{
 447:../../Drivers/STM32L5xx_HAL_Driver/Src/stm32l5xx_hal_gtzc.c ****   */
 448:../../Drivers/STM32L5xx_HAL_Driver/Src/stm32l5xx_hal_gtzc.c **** 
 449:../../Drivers/STM32L5xx_HAL_Driver/Src/stm32l5xx_hal_gtzc.c **** /**
 450:../../Drivers/STM32L5xx_HAL_Driver/Src/stm32l5xx_hal_gtzc.c ****   * @brief  Configure a TZSC-MPCWM area.
 451:../../Drivers/STM32L5xx_HAL_Driver/Src/stm32l5xx_hal_gtzc.c ****   * @param  MemBaseAddress WM identifier.
 452:../../Drivers/STM32L5xx_HAL_Driver/Src/stm32l5xx_hal_gtzc.c ****   * @param  pMPCWM_Desc TZSC-MPCWM descriptor pointer.
 453:../../Drivers/STM32L5xx_HAL_Driver/Src/stm32l5xx_hal_gtzc.c ****   *         The structure description is available in @ref GTZC_Exported_Types.
 454:../../Drivers/STM32L5xx_HAL_Driver/Src/stm32l5xx_hal_gtzc.c ****   * @retval HAL status.
 455:../../Drivers/STM32L5xx_HAL_Driver/Src/stm32l5xx_hal_gtzc.c ****   */
 456:../../Drivers/STM32L5xx_HAL_Driver/Src/stm32l5xx_hal_gtzc.c **** HAL_StatusTypeDef HAL_GTZC_TZSC_MPCWM_ConfigMemAttributes(uint32_t MemBaseAddress,
 457:../../Drivers/STM32L5xx_HAL_Driver/Src/stm32l5xx_hal_gtzc.c ****                                                           const MPCWM_ConfigTypeDef *pMPCWM_Desc)
 458:../../Drivers/STM32L5xx_HAL_Driver/Src/stm32l5xx_hal_gtzc.c **** {
 584              		.loc 1 458 1 is_stmt 1 view -0
 585              		.cfi_startproc
 586              		@ args = 0, pretend = 0, frame = 0
 587              		@ frame_needed = 0, uses_anonymous_args = 0
 588              		@ link register save eliminated.
 459:../../Drivers/STM32L5xx_HAL_Driver/Src/stm32l5xx_hal_gtzc.c ****   uint32_t register_address;
 589              		.loc 1 459 3 view .LVU173
 460:../../Drivers/STM32L5xx_HAL_Driver/Src/stm32l5xx_hal_gtzc.c ****   uint32_t reg_value;
 590              		.loc 1 460 3 view .LVU174
 461:../../Drivers/STM32L5xx_HAL_Driver/Src/stm32l5xx_hal_gtzc.c ****   uint32_t size;
ARM GAS  /tmp/cczkRLel.s 			page 21


 591              		.loc 1 461 3 view .LVU175
 462:../../Drivers/STM32L5xx_HAL_Driver/Src/stm32l5xx_hal_gtzc.c ****   uint32_t start_pos, start_msk;
 592              		.loc 1 462 3 view .LVU176
 463:../../Drivers/STM32L5xx_HAL_Driver/Src/stm32l5xx_hal_gtzc.c ****   uint32_t length_pos, length_msk;
 593              		.loc 1 463 3 view .LVU177
 464:../../Drivers/STM32L5xx_HAL_Driver/Src/stm32l5xx_hal_gtzc.c **** 
 465:../../Drivers/STM32L5xx_HAL_Driver/Src/stm32l5xx_hal_gtzc.c ****   /* check entry parameters */
 466:../../Drivers/STM32L5xx_HAL_Driver/Src/stm32l5xx_hal_gtzc.c ****   if ((pMPCWM_Desc->AreaId > GTZC_TZSC_MPCWM_ID2)
 594              		.loc 1 466 3 view .LVU178
 595              		.loc 1 466 19 is_stmt 0 view .LVU179
 596 0000 0B68     		ldr	r3, [r1]
 597              		.loc 1 466 6 view .LVU180
 598 0002 012B     		cmp	r3, #1
 599 0004 41D8     		bhi	.L64
 467:../../Drivers/STM32L5xx_HAL_Driver/Src/stm32l5xx_hal_gtzc.c ****       || ((MemBaseAddress == FMC_BANK3) && (pMPCWM_Desc->AreaId == GTZC_TZSC_MPCWM_ID2))
 600              		.loc 1 467 7 view .LVU181
 601 0006 B0F1004F 		cmp	r0, #-2147483648
 602 000a 15D0     		beq	.L76
 603              	.L60:
 458:../../Drivers/STM32L5xx_HAL_Driver/Src/stm32l5xx_hal_gtzc.c ****   uint32_t register_address;
 604              		.loc 1 458 1 view .LVU182
 605 000c 10B4     		push	{r4}
 606              	.LCFI5:
 607              		.cfi_def_cfa_offset 4
 608              		.cfi_offset 4, -4
 468:../../Drivers/STM32L5xx_HAL_Driver/Src/stm32l5xx_hal_gtzc.c ****       || ((pMPCWM_Desc->Offset % GTZC_TZSC_MPCWM_GRANULARITY) != 0U)
 609              		.loc 1 468 23 view .LVU183
 610 000e 4A68     		ldr	r2, [r1, #4]
 611              		.loc 1 468 32 view .LVU184
 612 0010 C2F31004 		ubfx	r4, r2, #0, #17
 613              		.loc 1 468 7 view .LVU185
 614 0014 002C     		cmp	r4, #0
 615 0016 3AD1     		bne	.L66
 469:../../Drivers/STM32L5xx_HAL_Driver/Src/stm32l5xx_hal_gtzc.c ****       || ((pMPCWM_Desc->Length % GTZC_TZSC_MPCWM_GRANULARITY) != 0U))
 616              		.loc 1 469 23 view .LVU186
 617 0018 8968     		ldr	r1, [r1, #8]
 618              	.LVL45:
 619              		.loc 1 469 32 view .LVU187
 620 001a C1F31004 		ubfx	r4, r1, #0, #17
 621              		.loc 1 469 7 view .LVU188
 622 001e 002C     		cmp	r4, #0
 623 0020 39D1     		bne	.L67
 470:../../Drivers/STM32L5xx_HAL_Driver/Src/stm32l5xx_hal_gtzc.c ****   {
 471:../../Drivers/STM32L5xx_HAL_Driver/Src/stm32l5xx_hal_gtzc.c ****     return HAL_ERROR;
 472:../../Drivers/STM32L5xx_HAL_Driver/Src/stm32l5xx_hal_gtzc.c ****   }
 473:../../Drivers/STM32L5xx_HAL_Driver/Src/stm32l5xx_hal_gtzc.c **** 
 474:../../Drivers/STM32L5xx_HAL_Driver/Src/stm32l5xx_hal_gtzc.c ****   /* check descriptor content vs. memory capacity */
 475:../../Drivers/STM32L5xx_HAL_Driver/Src/stm32l5xx_hal_gtzc.c ****   switch (MemBaseAddress)
 624              		.loc 1 475 3 is_stmt 1 view .LVU189
 625 0022 B0F1004F 		cmp	r0, #-2147483648
 626 0026 11D0     		beq	.L68
 627 0028 B0F1104F 		cmp	r0, #-1879048192
 628 002c 08D0     		beq	.L62
 629 002e B0F1C04F 		cmp	r0, #1610612736
 630 0032 08D0     		beq	.L63
 631 0034 0120     		movs	r0, #1
 632              	.LVL46:
ARM GAS  /tmp/cczkRLel.s 			page 22


 633              		.loc 1 475 3 is_stmt 0 view .LVU190
 634 0036 2BE0     		b	.L59
 635              	.LVL47:
 636              	.L76:
 637              	.LCFI6:
 638              		.cfi_def_cfa_offset 0
 639              		.cfi_restore 4
 467:../../Drivers/STM32L5xx_HAL_Driver/Src/stm32l5xx_hal_gtzc.c ****       || ((pMPCWM_Desc->Offset % GTZC_TZSC_MPCWM_GRANULARITY) != 0U)
 640              		.loc 1 467 41 discriminator 1 view .LVU191
 641 0038 012B     		cmp	r3, #1
 642 003a E7D1     		bne	.L60
 471:../../Drivers/STM32L5xx_HAL_Driver/Src/stm32l5xx_hal_gtzc.c ****   }
 643              		.loc 1 471 12 view .LVU192
 644 003c 0120     		movs	r0, #1
 645              	.LVL48:
 476:../../Drivers/STM32L5xx_HAL_Driver/Src/stm32l5xx_hal_gtzc.c ****   {
 477:../../Drivers/STM32L5xx_HAL_Driver/Src/stm32l5xx_hal_gtzc.c ****     case OCTOSPI1_BASE:
 478:../../Drivers/STM32L5xx_HAL_Driver/Src/stm32l5xx_hal_gtzc.c ****       size = GTZC_TZSC_MPCWM1_MEM_SIZE;
 479:../../Drivers/STM32L5xx_HAL_Driver/Src/stm32l5xx_hal_gtzc.c ****       if (pMPCWM_Desc->AreaId == GTZC_TZSC_MPCWM_ID1)
 480:../../Drivers/STM32L5xx_HAL_Driver/Src/stm32l5xx_hal_gtzc.c ****       {
 481:../../Drivers/STM32L5xx_HAL_Driver/Src/stm32l5xx_hal_gtzc.c ****         register_address = (uint32_t) &(GTZC_TZSC_S->MPCWM1_NSWMR1);
 482:../../Drivers/STM32L5xx_HAL_Driver/Src/stm32l5xx_hal_gtzc.c ****         start_pos = GTZC_TZSC_MPCWM1_NSWMR1_NSWM1STRT_Pos;
 483:../../Drivers/STM32L5xx_HAL_Driver/Src/stm32l5xx_hal_gtzc.c ****         start_msk = GTZC_TZSC_MPCWM1_NSWMR1_NSWM1STRT_Msk;
 484:../../Drivers/STM32L5xx_HAL_Driver/Src/stm32l5xx_hal_gtzc.c ****         length_pos = GTZC_TZSC_MPCWM1_NSWMR1_NSWM1LGTH_Pos;
 485:../../Drivers/STM32L5xx_HAL_Driver/Src/stm32l5xx_hal_gtzc.c ****         length_msk = GTZC_TZSC_MPCWM1_NSWMR1_NSWM1LGTH_Msk;
 486:../../Drivers/STM32L5xx_HAL_Driver/Src/stm32l5xx_hal_gtzc.c ****       }
 487:../../Drivers/STM32L5xx_HAL_Driver/Src/stm32l5xx_hal_gtzc.c ****       else
 488:../../Drivers/STM32L5xx_HAL_Driver/Src/stm32l5xx_hal_gtzc.c ****       {
 489:../../Drivers/STM32L5xx_HAL_Driver/Src/stm32l5xx_hal_gtzc.c ****         /* Here pMPCWM_Desc->AreaId == GTZC_TZSC_MPCWM_ID2
 490:../../Drivers/STM32L5xx_HAL_Driver/Src/stm32l5xx_hal_gtzc.c ****          * (Parameter already checked)
 491:../../Drivers/STM32L5xx_HAL_Driver/Src/stm32l5xx_hal_gtzc.c ****          */
 492:../../Drivers/STM32L5xx_HAL_Driver/Src/stm32l5xx_hal_gtzc.c ****         register_address = (uint32_t) &(GTZC_TZSC_S->MPCWM1_NSWMR2);
 493:../../Drivers/STM32L5xx_HAL_Driver/Src/stm32l5xx_hal_gtzc.c ****         start_pos = GTZC_TZSC_MPCWM1_NSWMR2_NSWM2STRT_Pos;
 494:../../Drivers/STM32L5xx_HAL_Driver/Src/stm32l5xx_hal_gtzc.c ****         start_msk = GTZC_TZSC_MPCWM1_NSWMR2_NSWM2STRT_Msk;
 495:../../Drivers/STM32L5xx_HAL_Driver/Src/stm32l5xx_hal_gtzc.c ****         length_pos = GTZC_TZSC_MPCWM1_NSWMR2_NSWM2LGTH_Pos;
 496:../../Drivers/STM32L5xx_HAL_Driver/Src/stm32l5xx_hal_gtzc.c ****         length_msk = GTZC_TZSC_MPCWM1_NSWMR2_NSWM2LGTH_Msk;
 497:../../Drivers/STM32L5xx_HAL_Driver/Src/stm32l5xx_hal_gtzc.c ****       }
 498:../../Drivers/STM32L5xx_HAL_Driver/Src/stm32l5xx_hal_gtzc.c ****       break;
 499:../../Drivers/STM32L5xx_HAL_Driver/Src/stm32l5xx_hal_gtzc.c ****     case FMC_BANK1:
 500:../../Drivers/STM32L5xx_HAL_Driver/Src/stm32l5xx_hal_gtzc.c ****       size = GTZC_TZSC_MPCWM1_MEM_SIZE;
 501:../../Drivers/STM32L5xx_HAL_Driver/Src/stm32l5xx_hal_gtzc.c ****       if (pMPCWM_Desc->AreaId == GTZC_TZSC_MPCWM_ID1)
 502:../../Drivers/STM32L5xx_HAL_Driver/Src/stm32l5xx_hal_gtzc.c ****       {
 503:../../Drivers/STM32L5xx_HAL_Driver/Src/stm32l5xx_hal_gtzc.c ****         register_address = (uint32_t) &(GTZC_TZSC_S->MPCWM2_NSWMR1);
 504:../../Drivers/STM32L5xx_HAL_Driver/Src/stm32l5xx_hal_gtzc.c ****         start_pos = GTZC_TZSC_MPCWM2_NSWMR1_NSWM1STRT_Pos;
 505:../../Drivers/STM32L5xx_HAL_Driver/Src/stm32l5xx_hal_gtzc.c ****         start_msk = GTZC_TZSC_MPCWM2_NSWMR1_NSWM1STRT_Msk;
 506:../../Drivers/STM32L5xx_HAL_Driver/Src/stm32l5xx_hal_gtzc.c ****         length_pos = GTZC_TZSC_MPCWM2_NSWMR1_NSWM1LGTH_Pos;
 507:../../Drivers/STM32L5xx_HAL_Driver/Src/stm32l5xx_hal_gtzc.c ****         length_msk = GTZC_TZSC_MPCWM2_NSWMR1_NSWM1LGTH_Msk;
 508:../../Drivers/STM32L5xx_HAL_Driver/Src/stm32l5xx_hal_gtzc.c ****       }
 509:../../Drivers/STM32L5xx_HAL_Driver/Src/stm32l5xx_hal_gtzc.c ****       else
 510:../../Drivers/STM32L5xx_HAL_Driver/Src/stm32l5xx_hal_gtzc.c ****       {
 511:../../Drivers/STM32L5xx_HAL_Driver/Src/stm32l5xx_hal_gtzc.c ****         /* Here pMPCWM_Desc->AreaId == GTZC_TZSC_MPCWM_ID2
 512:../../Drivers/STM32L5xx_HAL_Driver/Src/stm32l5xx_hal_gtzc.c ****          * (Parameter already checked)
 513:../../Drivers/STM32L5xx_HAL_Driver/Src/stm32l5xx_hal_gtzc.c ****          */
 514:../../Drivers/STM32L5xx_HAL_Driver/Src/stm32l5xx_hal_gtzc.c ****         register_address = (uint32_t) &(GTZC_TZSC_S->MPCWM2_NSWMR2);
 515:../../Drivers/STM32L5xx_HAL_Driver/Src/stm32l5xx_hal_gtzc.c ****         start_pos = GTZC_TZSC_MPCWM2_NSWMR2_NSWM2STRT_Pos;
 516:../../Drivers/STM32L5xx_HAL_Driver/Src/stm32l5xx_hal_gtzc.c ****         start_msk = GTZC_TZSC_MPCWM2_NSWMR2_NSWM2STRT_Msk;
 517:../../Drivers/STM32L5xx_HAL_Driver/Src/stm32l5xx_hal_gtzc.c ****         length_pos = GTZC_TZSC_MPCWM2_NSWMR2_NSWM2LGTH_Pos;
ARM GAS  /tmp/cczkRLel.s 			page 23


 518:../../Drivers/STM32L5xx_HAL_Driver/Src/stm32l5xx_hal_gtzc.c ****         length_msk = GTZC_TZSC_MPCWM2_NSWMR2_NSWM2LGTH_Msk;
 519:../../Drivers/STM32L5xx_HAL_Driver/Src/stm32l5xx_hal_gtzc.c ****       }
 520:../../Drivers/STM32L5xx_HAL_Driver/Src/stm32l5xx_hal_gtzc.c ****       break;
 521:../../Drivers/STM32L5xx_HAL_Driver/Src/stm32l5xx_hal_gtzc.c ****     case FMC_BANK3:
 522:../../Drivers/STM32L5xx_HAL_Driver/Src/stm32l5xx_hal_gtzc.c ****       /* Here pMPCWM_Desc->AreaId == GTZC_TZSC_MPCWM_ID1
 523:../../Drivers/STM32L5xx_HAL_Driver/Src/stm32l5xx_hal_gtzc.c ****        * (Parameter already checked)
 524:../../Drivers/STM32L5xx_HAL_Driver/Src/stm32l5xx_hal_gtzc.c ****        */
 525:../../Drivers/STM32L5xx_HAL_Driver/Src/stm32l5xx_hal_gtzc.c ****       size = GTZC_TZSC_MPCWM3_MEM_SIZE;
 526:../../Drivers/STM32L5xx_HAL_Driver/Src/stm32l5xx_hal_gtzc.c ****       register_address = (uint32_t) &(GTZC_TZSC_S->MPCWM3_NSWMR1);
 527:../../Drivers/STM32L5xx_HAL_Driver/Src/stm32l5xx_hal_gtzc.c ****       start_pos = GTZC_TZSC_MPCWM3_NSWMR1_NSWM1STRT_Pos;
 528:../../Drivers/STM32L5xx_HAL_Driver/Src/stm32l5xx_hal_gtzc.c ****       start_msk = GTZC_TZSC_MPCWM3_NSWMR1_NSWM1STRT_Msk;
 529:../../Drivers/STM32L5xx_HAL_Driver/Src/stm32l5xx_hal_gtzc.c ****       length_pos = GTZC_TZSC_MPCWM3_NSWMR1_NSWM1LGTH_Pos;
 530:../../Drivers/STM32L5xx_HAL_Driver/Src/stm32l5xx_hal_gtzc.c ****       length_msk = GTZC_TZSC_MPCWM3_NSWMR1_NSWM1LGTH_Msk;
 531:../../Drivers/STM32L5xx_HAL_Driver/Src/stm32l5xx_hal_gtzc.c ****       break;
 532:../../Drivers/STM32L5xx_HAL_Driver/Src/stm32l5xx_hal_gtzc.c ****     default:
 533:../../Drivers/STM32L5xx_HAL_Driver/Src/stm32l5xx_hal_gtzc.c ****       return HAL_ERROR;
 534:../../Drivers/STM32L5xx_HAL_Driver/Src/stm32l5xx_hal_gtzc.c ****       break;
 535:../../Drivers/STM32L5xx_HAL_Driver/Src/stm32l5xx_hal_gtzc.c ****   }
 536:../../Drivers/STM32L5xx_HAL_Driver/Src/stm32l5xx_hal_gtzc.c **** 
 537:../../Drivers/STM32L5xx_HAL_Driver/Src/stm32l5xx_hal_gtzc.c ****   if ((pMPCWM_Desc->Offset > size)
 538:../../Drivers/STM32L5xx_HAL_Driver/Src/stm32l5xx_hal_gtzc.c ****       || ((pMPCWM_Desc->Offset + pMPCWM_Desc->Length) > size))
 539:../../Drivers/STM32L5xx_HAL_Driver/Src/stm32l5xx_hal_gtzc.c ****   {
 540:../../Drivers/STM32L5xx_HAL_Driver/Src/stm32l5xx_hal_gtzc.c ****     return HAL_ERROR;
 541:../../Drivers/STM32L5xx_HAL_Driver/Src/stm32l5xx_hal_gtzc.c ****   }
 542:../../Drivers/STM32L5xx_HAL_Driver/Src/stm32l5xx_hal_gtzc.c **** 
 543:../../Drivers/STM32L5xx_HAL_Driver/Src/stm32l5xx_hal_gtzc.c ****   /* write descriptor value */
 544:../../Drivers/STM32L5xx_HAL_Driver/Src/stm32l5xx_hal_gtzc.c ****   reg_value = ((pMPCWM_Desc->Offset / GTZC_TZSC_MPCWM_GRANULARITY) << start_pos) & start_msk;
 545:../../Drivers/STM32L5xx_HAL_Driver/Src/stm32l5xx_hal_gtzc.c ****   reg_value |= ((pMPCWM_Desc->Length / GTZC_TZSC_MPCWM_GRANULARITY) << length_pos) & length_msk;
 546:../../Drivers/STM32L5xx_HAL_Driver/Src/stm32l5xx_hal_gtzc.c ****   MODIFY_REG(*(__IO uint32_t *)register_address, start_msk | length_msk, reg_value);
 547:../../Drivers/STM32L5xx_HAL_Driver/Src/stm32l5xx_hal_gtzc.c **** 
 548:../../Drivers/STM32L5xx_HAL_Driver/Src/stm32l5xx_hal_gtzc.c ****   return HAL_OK;
 549:../../Drivers/STM32L5xx_HAL_Driver/Src/stm32l5xx_hal_gtzc.c **** }
 646              		.loc 1 549 1 view .LVU193
 647 003e 7047     		bx	lr
 648              	.LVL49:
 649              	.L62:
 650              	.LCFI7:
 651              		.cfi_def_cfa_offset 4
 652              		.cfi_offset 4, -4
 478:../../Drivers/STM32L5xx_HAL_Driver/Src/stm32l5xx_hal_gtzc.c ****       if (pMPCWM_Desc->AreaId == GTZC_TZSC_MPCWM_ID1)
 653              		.loc 1 478 7 is_stmt 1 view .LVU194
 479:../../Drivers/STM32L5xx_HAL_Driver/Src/stm32l5xx_hal_gtzc.c ****       {
 654              		.loc 1 479 7 view .LVU195
 479:../../Drivers/STM32L5xx_HAL_Driver/Src/stm32l5xx_hal_gtzc.c ****       {
 655              		.loc 1 479 10 is_stmt 0 view .LVU196
 656 0040 FBB9     		cbnz	r3, .L69
 481:../../Drivers/STM32L5xx_HAL_Driver/Src/stm32l5xx_hal_gtzc.c ****         start_pos = GTZC_TZSC_MPCWM1_NSWMR1_NSWM1STRT_Pos;
 657              		.loc 1 481 26 view .LVU197
 658 0042 1848     		ldr	r0, .L77
 659              	.LVL50:
 481:../../Drivers/STM32L5xx_HAL_Driver/Src/stm32l5xx_hal_gtzc.c ****         start_pos = GTZC_TZSC_MPCWM1_NSWMR1_NSWM1STRT_Pos;
 660              		.loc 1 481 26 view .LVU198
 661 0044 03E0     		b	.L61
 662              	.LVL51:
 663              	.L63:
 500:../../Drivers/STM32L5xx_HAL_Driver/Src/stm32l5xx_hal_gtzc.c ****       if (pMPCWM_Desc->AreaId == GTZC_TZSC_MPCWM_ID1)
 664              		.loc 1 500 7 is_stmt 1 view .LVU199
ARM GAS  /tmp/cczkRLel.s 			page 24


 501:../../Drivers/STM32L5xx_HAL_Driver/Src/stm32l5xx_hal_gtzc.c ****       {
 665              		.loc 1 501 7 view .LVU200
 501:../../Drivers/STM32L5xx_HAL_Driver/Src/stm32l5xx_hal_gtzc.c ****       {
 666              		.loc 1 501 10 is_stmt 0 view .LVU201
 667 0046 F3B9     		cbnz	r3, .L70
 503:../../Drivers/STM32L5xx_HAL_Driver/Src/stm32l5xx_hal_gtzc.c ****         start_pos = GTZC_TZSC_MPCWM2_NSWMR1_NSWM1STRT_Pos;
 668              		.loc 1 503 26 view .LVU202
 669 0048 1748     		ldr	r0, .L77+4
 670              	.LVL52:
 503:../../Drivers/STM32L5xx_HAL_Driver/Src/stm32l5xx_hal_gtzc.c ****         start_pos = GTZC_TZSC_MPCWM2_NSWMR1_NSWM1STRT_Pos;
 671              		.loc 1 503 26 view .LVU203
 672 004a 00E0     		b	.L61
 673              	.LVL53:
 674              	.L68:
 475:../../Drivers/STM32L5xx_HAL_Driver/Src/stm32l5xx_hal_gtzc.c ****   {
 675              		.loc 1 475 3 view .LVU204
 676 004c 1748     		ldr	r0, .L77+8
 677              	.LVL54:
 678              	.L61:
 534:../../Drivers/STM32L5xx_HAL_Driver/Src/stm32l5xx_hal_gtzc.c ****   }
 679              		.loc 1 534 7 is_stmt 1 view .LVU205
 537:../../Drivers/STM32L5xx_HAL_Driver/Src/stm32l5xx_hal_gtzc.c ****       || ((pMPCWM_Desc->Offset + pMPCWM_Desc->Length) > size))
 680              		.loc 1 537 3 view .LVU206
 537:../../Drivers/STM32L5xx_HAL_Driver/Src/stm32l5xx_hal_gtzc.c ****       || ((pMPCWM_Desc->Offset + pMPCWM_Desc->Length) > size))
 681              		.loc 1 537 6 is_stmt 0 view .LVU207
 682 004e B2F1805F 		cmp	r2, #268435456
 683 0052 22D8     		bhi	.L71
 538:../../Drivers/STM32L5xx_HAL_Driver/Src/stm32l5xx_hal_gtzc.c ****   {
 684              		.loc 1 538 32 view .LVU208
 685 0054 5318     		adds	r3, r2, r1
 538:../../Drivers/STM32L5xx_HAL_Driver/Src/stm32l5xx_hal_gtzc.c ****   {
 686              		.loc 1 538 7 view .LVU209
 687 0056 B3F1805F 		cmp	r3, #268435456
 688 005a 20D8     		bhi	.L72
 544:../../Drivers/STM32L5xx_HAL_Driver/Src/stm32l5xx_hal_gtzc.c ****   reg_value |= ((pMPCWM_Desc->Length / GTZC_TZSC_MPCWM_GRANULARITY) << length_pos) & length_msk;
 689              		.loc 1 544 3 is_stmt 1 view .LVU210
 544:../../Drivers/STM32L5xx_HAL_Driver/Src/stm32l5xx_hal_gtzc.c ****   reg_value |= ((pMPCWM_Desc->Length / GTZC_TZSC_MPCWM_GRANULARITY) << length_pos) & length_msk;
 690              		.loc 1 544 13 is_stmt 0 view .LVU211
 691 005c C2F34A42 		ubfx	r2, r2, #17, #11
 692              	.LVL55:
 545:../../Drivers/STM32L5xx_HAL_Driver/Src/stm32l5xx_hal_gtzc.c ****   MODIFY_REG(*(__IO uint32_t *)register_address, start_msk | length_msk, reg_value);
 693              		.loc 1 545 3 is_stmt 1 view .LVU212
 545:../../Drivers/STM32L5xx_HAL_Driver/Src/stm32l5xx_hal_gtzc.c ****   MODIFY_REG(*(__IO uint32_t *)register_address, start_msk | length_msk, reg_value);
 694              		.loc 1 545 84 is_stmt 0 view .LVU213
 695 0060 134B     		ldr	r3, .L77+12
 696 0062 03EA5103 		and	r3, r3, r1, lsr #1
 545:../../Drivers/STM32L5xx_HAL_Driver/Src/stm32l5xx_hal_gtzc.c ****   MODIFY_REG(*(__IO uint32_t *)register_address, start_msk | length_msk, reg_value);
 697              		.loc 1 545 13 view .LVU214
 698 0066 1A43     		orrs	r2, r2, r3
 699              	.LVL56:
 546:../../Drivers/STM32L5xx_HAL_Driver/Src/stm32l5xx_hal_gtzc.c **** 
 700              		.loc 1 546 3 is_stmt 1 view .LVU215
 701 0068 0368     		ldr	r3, [r0]
 702 006a 23F07F63 		bic	r3, r3, #267386880
 703 006e 23F47023 		bic	r3, r3, #983040
 704 0072 23F4FF63 		bic	r3, r3, #2040
 705 0076 23F00703 		bic	r3, r3, #7
ARM GAS  /tmp/cczkRLel.s 			page 25


 706 007a 1343     		orrs	r3, r3, r2
 707 007c 0360     		str	r3, [r0]
 548:../../Drivers/STM32L5xx_HAL_Driver/Src/stm32l5xx_hal_gtzc.c **** }
 708              		.loc 1 548 3 view .LVU216
 548:../../Drivers/STM32L5xx_HAL_Driver/Src/stm32l5xx_hal_gtzc.c **** }
 709              		.loc 1 548 10 is_stmt 0 view .LVU217
 710 007e 0020     		movs	r0, #0
 711              	.LVL57:
 548:../../Drivers/STM32L5xx_HAL_Driver/Src/stm32l5xx_hal_gtzc.c **** }
 712              		.loc 1 548 10 view .LVU218
 713 0080 06E0     		b	.L59
 714              	.LVL58:
 715              	.L69:
 492:../../Drivers/STM32L5xx_HAL_Driver/Src/stm32l5xx_hal_gtzc.c ****         start_pos = GTZC_TZSC_MPCWM1_NSWMR2_NSWM2STRT_Pos;
 716              		.loc 1 492 26 view .LVU219
 717 0082 0C48     		ldr	r0, .L77+16
 718              	.LVL59:
 492:../../Drivers/STM32L5xx_HAL_Driver/Src/stm32l5xx_hal_gtzc.c ****         start_pos = GTZC_TZSC_MPCWM1_NSWMR2_NSWM2STRT_Pos;
 719              		.loc 1 492 26 view .LVU220
 720 0084 E3E7     		b	.L61
 721              	.LVL60:
 722              	.L70:
 514:../../Drivers/STM32L5xx_HAL_Driver/Src/stm32l5xx_hal_gtzc.c ****         start_pos = GTZC_TZSC_MPCWM2_NSWMR2_NSWM2STRT_Pos;
 723              		.loc 1 514 26 view .LVU221
 724 0086 0C48     		ldr	r0, .L77+20
 725              	.LVL61:
 514:../../Drivers/STM32L5xx_HAL_Driver/Src/stm32l5xx_hal_gtzc.c ****         start_pos = GTZC_TZSC_MPCWM2_NSWMR2_NSWM2STRT_Pos;
 726              		.loc 1 514 26 view .LVU222
 727 0088 E1E7     		b	.L61
 728              	.LVL62:
 729              	.L64:
 730              	.LCFI8:
 731              		.cfi_def_cfa_offset 0
 732              		.cfi_restore 4
 471:../../Drivers/STM32L5xx_HAL_Driver/Src/stm32l5xx_hal_gtzc.c ****   }
 733              		.loc 1 471 12 view .LVU223
 734 008a 0120     		movs	r0, #1
 735              	.LVL63:
 471:../../Drivers/STM32L5xx_HAL_Driver/Src/stm32l5xx_hal_gtzc.c ****   }
 736              		.loc 1 471 12 view .LVU224
 737 008c 7047     		bx	lr
 738              	.LVL64:
 739              	.L66:
 740              	.LCFI9:
 741              		.cfi_def_cfa_offset 4
 742              		.cfi_offset 4, -4
 471:../../Drivers/STM32L5xx_HAL_Driver/Src/stm32l5xx_hal_gtzc.c ****   }
 743              		.loc 1 471 12 view .LVU225
 744 008e 0120     		movs	r0, #1
 745              	.LVL65:
 746              	.L59:
 747              		.loc 1 549 1 view .LVU226
 748 0090 5DF8044B 		ldr	r4, [sp], #4
 749              	.LCFI10:
 750              		.cfi_remember_state
 751              		.cfi_restore 4
 752              		.cfi_def_cfa_offset 0
ARM GAS  /tmp/cczkRLel.s 			page 26


 753 0094 7047     		bx	lr
 754              	.LVL66:
 755              	.L67:
 756              	.LCFI11:
 757              		.cfi_restore_state
 471:../../Drivers/STM32L5xx_HAL_Driver/Src/stm32l5xx_hal_gtzc.c ****   }
 758              		.loc 1 471 12 view .LVU227
 759 0096 0120     		movs	r0, #1
 760              	.LVL67:
 471:../../Drivers/STM32L5xx_HAL_Driver/Src/stm32l5xx_hal_gtzc.c ****   }
 761              		.loc 1 471 12 view .LVU228
 762 0098 FAE7     		b	.L59
 763              	.LVL68:
 764              	.L71:
 540:../../Drivers/STM32L5xx_HAL_Driver/Src/stm32l5xx_hal_gtzc.c ****   }
 765              		.loc 1 540 12 view .LVU229
 766 009a 0120     		movs	r0, #1
 767              	.LVL69:
 540:../../Drivers/STM32L5xx_HAL_Driver/Src/stm32l5xx_hal_gtzc.c ****   }
 768              		.loc 1 540 12 view .LVU230
 769 009c F8E7     		b	.L59
 770              	.LVL70:
 771              	.L72:
 540:../../Drivers/STM32L5xx_HAL_Driver/Src/stm32l5xx_hal_gtzc.c ****   }
 772              		.loc 1 540 12 view .LVU231
 773 009e 0120     		movs	r0, #1
 774              	.LVL71:
 540:../../Drivers/STM32L5xx_HAL_Driver/Src/stm32l5xx_hal_gtzc.c ****   }
 775              		.loc 1 540 12 view .LVU232
 776 00a0 F6E7     		b	.L59
 777              	.L78:
 778 00a2 00BF     		.align	2
 779              	.L77:
 780 00a4 30240350 		.word	1342383152
 781 00a8 38240350 		.word	1342383160
 782 00ac 40240350 		.word	1342383168
 783 00b0 0000FF0F 		.word	268369920
 784 00b4 34240350 		.word	1342383156
 785 00b8 3C240350 		.word	1342383164
 786              		.cfi_endproc
 787              	.LFE204:
 789              		.section	.text.HAL_GTZC_TZSC_MPCWM_GetConfigMemAttributes,"ax",%progbits
 790              		.align	1
 791              		.global	HAL_GTZC_TZSC_MPCWM_GetConfigMemAttributes
 792              		.syntax unified
 793              		.thumb
 794              		.thumb_func
 796              	HAL_GTZC_TZSC_MPCWM_GetConfigMemAttributes:
 797              	.LVL72:
 798              	.LFB205:
 550:../../Drivers/STM32L5xx_HAL_Driver/Src/stm32l5xx_hal_gtzc.c **** 
 551:../../Drivers/STM32L5xx_HAL_Driver/Src/stm32l5xx_hal_gtzc.c **** /**
 552:../../Drivers/STM32L5xx_HAL_Driver/Src/stm32l5xx_hal_gtzc.c ****   * @brief  Get a TZSC-MPCWM area configuration.
 553:../../Drivers/STM32L5xx_HAL_Driver/Src/stm32l5xx_hal_gtzc.c ****   * @param  MemBaseAddress WM identifier.
 554:../../Drivers/STM32L5xx_HAL_Driver/Src/stm32l5xx_hal_gtzc.c ****   * @param  pMPCWM_Desc pointer to a TZSC-MPCWM descriptor.
 555:../../Drivers/STM32L5xx_HAL_Driver/Src/stm32l5xx_hal_gtzc.c ****   *         The structure description is available in @ref GTZC_Exported_Types.
 556:../../Drivers/STM32L5xx_HAL_Driver/Src/stm32l5xx_hal_gtzc.c ****   * @retval HAL status.
ARM GAS  /tmp/cczkRLel.s 			page 27


 557:../../Drivers/STM32L5xx_HAL_Driver/Src/stm32l5xx_hal_gtzc.c ****   */
 558:../../Drivers/STM32L5xx_HAL_Driver/Src/stm32l5xx_hal_gtzc.c **** HAL_StatusTypeDef HAL_GTZC_TZSC_MPCWM_GetConfigMemAttributes(uint32_t MemBaseAddress,
 559:../../Drivers/STM32L5xx_HAL_Driver/Src/stm32l5xx_hal_gtzc.c ****                                                              MPCWM_ConfigTypeDef *pMPCWM_Desc)
 560:../../Drivers/STM32L5xx_HAL_Driver/Src/stm32l5xx_hal_gtzc.c **** {
 799              		.loc 1 560 1 is_stmt 1 view -0
 800              		.cfi_startproc
 801              		@ args = 0, pretend = 0, frame = 0
 802              		@ frame_needed = 0, uses_anonymous_args = 0
 803              		@ link register save eliminated.
 561:../../Drivers/STM32L5xx_HAL_Driver/Src/stm32l5xx_hal_gtzc.c ****   uint32_t register_address;
 804              		.loc 1 561 3 view .LVU234
 562:../../Drivers/STM32L5xx_HAL_Driver/Src/stm32l5xx_hal_gtzc.c ****   uint32_t reg_value;
 805              		.loc 1 562 3 view .LVU235
 563:../../Drivers/STM32L5xx_HAL_Driver/Src/stm32l5xx_hal_gtzc.c ****   uint32_t start_pos, start_msk;
 806              		.loc 1 563 3 view .LVU236
 564:../../Drivers/STM32L5xx_HAL_Driver/Src/stm32l5xx_hal_gtzc.c ****   uint32_t length_pos, length_msk;
 807              		.loc 1 564 3 view .LVU237
 565:../../Drivers/STM32L5xx_HAL_Driver/Src/stm32l5xx_hal_gtzc.c **** 
 566:../../Drivers/STM32L5xx_HAL_Driver/Src/stm32l5xx_hal_gtzc.c ****   /* firstly take care of the first area, present on all MPCWM sub-blocks */
 567:../../Drivers/STM32L5xx_HAL_Driver/Src/stm32l5xx_hal_gtzc.c ****   switch (MemBaseAddress)
 808              		.loc 1 567 3 view .LVU238
 809 0000 B0F1004F 		cmp	r0, #-2147483648
 810 0004 2AD0     		beq	.L83
 811 0006 B0F1104F 		cmp	r0, #-1879048192
 812 000a 29D0     		beq	.L84
 813 000c B0F1C04F 		cmp	r0, #1610612736
 814 0010 01D0     		beq	.L89
 815 0012 0120     		movs	r0, #1
 816              	.LVL73:
 817              		.loc 1 567 3 is_stmt 0 view .LVU239
 818 0014 7047     		bx	lr
 819              	.LVL74:
 820              	.L89:
 568:../../Drivers/STM32L5xx_HAL_Driver/Src/stm32l5xx_hal_gtzc.c ****   {
 569:../../Drivers/STM32L5xx_HAL_Driver/Src/stm32l5xx_hal_gtzc.c ****     case OCTOSPI1_BASE:
 570:../../Drivers/STM32L5xx_HAL_Driver/Src/stm32l5xx_hal_gtzc.c ****       register_address = (uint32_t) &(GTZC_TZSC_S->MPCWM1_NSWMR1);
 571:../../Drivers/STM32L5xx_HAL_Driver/Src/stm32l5xx_hal_gtzc.c ****       start_pos = GTZC_TZSC_MPCWM1_NSWMR1_NSWM1STRT_Pos;
 572:../../Drivers/STM32L5xx_HAL_Driver/Src/stm32l5xx_hal_gtzc.c ****       start_msk = GTZC_TZSC_MPCWM1_NSWMR1_NSWM1STRT_Msk;
 573:../../Drivers/STM32L5xx_HAL_Driver/Src/stm32l5xx_hal_gtzc.c ****       length_pos = GTZC_TZSC_MPCWM1_NSWMR1_NSWM1LGTH_Pos;
 574:../../Drivers/STM32L5xx_HAL_Driver/Src/stm32l5xx_hal_gtzc.c ****       length_msk = GTZC_TZSC_MPCWM1_NSWMR1_NSWM1LGTH_Msk;
 575:../../Drivers/STM32L5xx_HAL_Driver/Src/stm32l5xx_hal_gtzc.c ****       break;
 576:../../Drivers/STM32L5xx_HAL_Driver/Src/stm32l5xx_hal_gtzc.c ****     case FMC_BANK1:
 577:../../Drivers/STM32L5xx_HAL_Driver/Src/stm32l5xx_hal_gtzc.c ****       register_address = (uint32_t) &(GTZC_TZSC_S->MPCWM2_NSWMR1);
 821              		.loc 1 577 24 view .LVU240
 822 0016 164B     		ldr	r3, .L90
 823              	.L80:
 824              	.LVL75:
 578:../../Drivers/STM32L5xx_HAL_Driver/Src/stm32l5xx_hal_gtzc.c ****       start_pos = GTZC_TZSC_MPCWM2_NSWMR1_NSWM1STRT_Pos;
 579:../../Drivers/STM32L5xx_HAL_Driver/Src/stm32l5xx_hal_gtzc.c ****       start_msk = GTZC_TZSC_MPCWM2_NSWMR1_NSWM1STRT_Msk;
 580:../../Drivers/STM32L5xx_HAL_Driver/Src/stm32l5xx_hal_gtzc.c ****       length_pos = GTZC_TZSC_MPCWM2_NSWMR1_NSWM1LGTH_Pos;
 581:../../Drivers/STM32L5xx_HAL_Driver/Src/stm32l5xx_hal_gtzc.c ****       length_msk = GTZC_TZSC_MPCWM2_NSWMR1_NSWM1LGTH_Msk;
 582:../../Drivers/STM32L5xx_HAL_Driver/Src/stm32l5xx_hal_gtzc.c ****       break;
 583:../../Drivers/STM32L5xx_HAL_Driver/Src/stm32l5xx_hal_gtzc.c ****     case FMC_BANK3:
 584:../../Drivers/STM32L5xx_HAL_Driver/Src/stm32l5xx_hal_gtzc.c ****       register_address = (uint32_t) &(GTZC_TZSC_S->MPCWM3_NSWMR1);
 585:../../Drivers/STM32L5xx_HAL_Driver/Src/stm32l5xx_hal_gtzc.c ****       start_pos = GTZC_TZSC_MPCWM3_NSWMR1_NSWM1STRT_Pos;
 586:../../Drivers/STM32L5xx_HAL_Driver/Src/stm32l5xx_hal_gtzc.c ****       start_msk = GTZC_TZSC_MPCWM3_NSWMR1_NSWM1STRT_Msk;
 587:../../Drivers/STM32L5xx_HAL_Driver/Src/stm32l5xx_hal_gtzc.c ****       length_pos = GTZC_TZSC_MPCWM3_NSWMR1_NSWM1LGTH_Pos;
ARM GAS  /tmp/cczkRLel.s 			page 28


 588:../../Drivers/STM32L5xx_HAL_Driver/Src/stm32l5xx_hal_gtzc.c ****       length_msk = GTZC_TZSC_MPCWM3_NSWMR1_NSWM1LGTH_Msk;
 589:../../Drivers/STM32L5xx_HAL_Driver/Src/stm32l5xx_hal_gtzc.c ****       break;
 590:../../Drivers/STM32L5xx_HAL_Driver/Src/stm32l5xx_hal_gtzc.c ****     default:
 591:../../Drivers/STM32L5xx_HAL_Driver/Src/stm32l5xx_hal_gtzc.c ****       return HAL_ERROR;
 592:../../Drivers/STM32L5xx_HAL_Driver/Src/stm32l5xx_hal_gtzc.c ****       break;
 825              		.loc 1 592 7 is_stmt 1 view .LVU241
 593:../../Drivers/STM32L5xx_HAL_Driver/Src/stm32l5xx_hal_gtzc.c ****   }
 594:../../Drivers/STM32L5xx_HAL_Driver/Src/stm32l5xx_hal_gtzc.c **** 
 595:../../Drivers/STM32L5xx_HAL_Driver/Src/stm32l5xx_hal_gtzc.c ****   /* read register and update the descriptor for first area*/
 596:../../Drivers/STM32L5xx_HAL_Driver/Src/stm32l5xx_hal_gtzc.c ****   reg_value = READ_REG(*(__IO uint32_t *)register_address);
 826              		.loc 1 596 3 view .LVU242
 827              		.loc 1 596 13 is_stmt 0 view .LVU243
 828 0018 1B68     		ldr	r3, [r3]
 829              	.LVL76:
 597:../../Drivers/STM32L5xx_HAL_Driver/Src/stm32l5xx_hal_gtzc.c ****   pMPCWM_Desc[0].AreaId = GTZC_TZSC_MPCWM_ID1;
 830              		.loc 1 597 3 is_stmt 1 view .LVU244
 831              		.loc 1 597 25 is_stmt 0 view .LVU245
 832 001a 0022     		movs	r2, #0
 833 001c 0A60     		str	r2, [r1]
 598:../../Drivers/STM32L5xx_HAL_Driver/Src/stm32l5xx_hal_gtzc.c ****   pMPCWM_Desc[0].Offset = ((reg_value & start_msk) >> start_pos) * GTZC_TZSC_MPCWM_GRANULARITY;
 834              		.loc 1 598 3 is_stmt 1 view .LVU246
 835              		.loc 1 598 39 is_stmt 0 view .LVU247
 836 001e C3F30A02 		ubfx	r2, r3, #0, #11
 837              		.loc 1 598 66 view .LVU248
 838 0022 5204     		lsls	r2, r2, #17
 839              		.loc 1 598 25 view .LVU249
 840 0024 4A60     		str	r2, [r1, #4]
 599:../../Drivers/STM32L5xx_HAL_Driver/Src/stm32l5xx_hal_gtzc.c ****   pMPCWM_Desc[0].Length = ((reg_value & length_msk) >> length_pos) * GTZC_TZSC_MPCWM_GRANULARITY;
 841              		.loc 1 599 3 is_stmt 1 view .LVU250
 842              		.loc 1 599 53 is_stmt 0 view .LVU251
 843 0026 C3F30B43 		ubfx	r3, r3, #16, #12
 844              	.LVL77:
 845              		.loc 1 599 68 view .LVU252
 846 002a 5B04     		lsls	r3, r3, #17
 847              		.loc 1 599 25 view .LVU253
 848 002c 8B60     		str	r3, [r1, #8]
 600:../../Drivers/STM32L5xx_HAL_Driver/Src/stm32l5xx_hal_gtzc.c **** 
 601:../../Drivers/STM32L5xx_HAL_Driver/Src/stm32l5xx_hal_gtzc.c ****   if (MemBaseAddress != FMC_BANK3)
 849              		.loc 1 601 3 is_stmt 1 view .LVU254
 850              		.loc 1 601 6 is_stmt 0 view .LVU255
 851 002e B0F1004F 		cmp	r0, #-2147483648
 852 0032 19D0     		beq	.L86
 602:../../Drivers/STM32L5xx_HAL_Driver/Src/stm32l5xx_hal_gtzc.c ****   {
 603:../../Drivers/STM32L5xx_HAL_Driver/Src/stm32l5xx_hal_gtzc.c ****     /* Here MemBaseAddress = OCTOSPI1_BASE
 604:../../Drivers/STM32L5xx_HAL_Driver/Src/stm32l5xx_hal_gtzc.c ****      * or FMC_BANK1 (already tested)
 605:../../Drivers/STM32L5xx_HAL_Driver/Src/stm32l5xx_hal_gtzc.c ****      * Now take care of the second area, present on these sub-blocks
 606:../../Drivers/STM32L5xx_HAL_Driver/Src/stm32l5xx_hal_gtzc.c ****      */
 607:../../Drivers/STM32L5xx_HAL_Driver/Src/stm32l5xx_hal_gtzc.c ****     switch (MemBaseAddress)
 853              		.loc 1 607 5 is_stmt 1 view .LVU256
 854 0034 B0F1C04F 		cmp	r0, #1610612736
 855 0038 14D0     		beq	.L87
 856 003a B0F1104F 		cmp	r0, #-1879048192
 857 003e 15D1     		bne	.L88
 858 0040 0C4B     		ldr	r3, .L90+4
 859              	.L82:
 860              	.LVL78:
 608:../../Drivers/STM32L5xx_HAL_Driver/Src/stm32l5xx_hal_gtzc.c ****     {
ARM GAS  /tmp/cczkRLel.s 			page 29


 609:../../Drivers/STM32L5xx_HAL_Driver/Src/stm32l5xx_hal_gtzc.c ****       case OCTOSPI1_BASE:
 610:../../Drivers/STM32L5xx_HAL_Driver/Src/stm32l5xx_hal_gtzc.c ****         register_address = (uint32_t) &(GTZC_TZSC_S->MPCWM1_NSWMR2);
 611:../../Drivers/STM32L5xx_HAL_Driver/Src/stm32l5xx_hal_gtzc.c ****         start_pos = GTZC_TZSC_MPCWM1_NSWMR2_NSWM2STRT_Pos;
 612:../../Drivers/STM32L5xx_HAL_Driver/Src/stm32l5xx_hal_gtzc.c ****         start_msk = GTZC_TZSC_MPCWM1_NSWMR2_NSWM2STRT_Msk;
 613:../../Drivers/STM32L5xx_HAL_Driver/Src/stm32l5xx_hal_gtzc.c ****         length_pos = GTZC_TZSC_MPCWM1_NSWMR2_NSWM2LGTH_Pos;
 614:../../Drivers/STM32L5xx_HAL_Driver/Src/stm32l5xx_hal_gtzc.c ****         length_msk = GTZC_TZSC_MPCWM1_NSWMR2_NSWM2LGTH_Msk;
 615:../../Drivers/STM32L5xx_HAL_Driver/Src/stm32l5xx_hal_gtzc.c ****         break;
 616:../../Drivers/STM32L5xx_HAL_Driver/Src/stm32l5xx_hal_gtzc.c ****       case FMC_BANK1:
 617:../../Drivers/STM32L5xx_HAL_Driver/Src/stm32l5xx_hal_gtzc.c ****         register_address = (uint32_t) &(GTZC_TZSC_S->MPCWM2_NSWMR2);
 618:../../Drivers/STM32L5xx_HAL_Driver/Src/stm32l5xx_hal_gtzc.c ****         start_pos = GTZC_TZSC_MPCWM2_NSWMR2_NSWM2STRT_Pos;
 619:../../Drivers/STM32L5xx_HAL_Driver/Src/stm32l5xx_hal_gtzc.c ****         start_msk = GTZC_TZSC_MPCWM2_NSWMR2_NSWM2STRT_Msk;
 620:../../Drivers/STM32L5xx_HAL_Driver/Src/stm32l5xx_hal_gtzc.c ****         length_pos = GTZC_TZSC_MPCWM2_NSWMR2_NSWM2LGTH_Pos;
 621:../../Drivers/STM32L5xx_HAL_Driver/Src/stm32l5xx_hal_gtzc.c ****         length_msk = GTZC_TZSC_MPCWM2_NSWMR2_NSWM2LGTH_Msk;
 622:../../Drivers/STM32L5xx_HAL_Driver/Src/stm32l5xx_hal_gtzc.c ****         break;
 623:../../Drivers/STM32L5xx_HAL_Driver/Src/stm32l5xx_hal_gtzc.c ****       default:
 624:../../Drivers/STM32L5xx_HAL_Driver/Src/stm32l5xx_hal_gtzc.c ****         return HAL_ERROR;
 625:../../Drivers/STM32L5xx_HAL_Driver/Src/stm32l5xx_hal_gtzc.c ****         break;
 861              		.loc 1 625 9 view .LVU257
 626:../../Drivers/STM32L5xx_HAL_Driver/Src/stm32l5xx_hal_gtzc.c ****     }
 627:../../Drivers/STM32L5xx_HAL_Driver/Src/stm32l5xx_hal_gtzc.c **** 
 628:../../Drivers/STM32L5xx_HAL_Driver/Src/stm32l5xx_hal_gtzc.c ****     /* read register and update the descriptor for second area*/
 629:../../Drivers/STM32L5xx_HAL_Driver/Src/stm32l5xx_hal_gtzc.c ****     reg_value = READ_REG(*(__IO uint32_t *)register_address);
 862              		.loc 1 629 5 view .LVU258
 863              		.loc 1 629 15 is_stmt 0 view .LVU259
 864 0042 1B68     		ldr	r3, [r3]
 865              	.LVL79:
 630:../../Drivers/STM32L5xx_HAL_Driver/Src/stm32l5xx_hal_gtzc.c ****     pMPCWM_Desc[1].AreaId = GTZC_TZSC_MPCWM_ID2;
 866              		.loc 1 630 5 is_stmt 1 view .LVU260
 867              		.loc 1 630 27 is_stmt 0 view .LVU261
 868 0044 0122     		movs	r2, #1
 869 0046 0A61     		str	r2, [r1, #16]
 631:../../Drivers/STM32L5xx_HAL_Driver/Src/stm32l5xx_hal_gtzc.c ****     pMPCWM_Desc[1].Offset = ((reg_value & start_msk) >> start_pos) * GTZC_TZSC_MPCWM_GRANULARITY;
 870              		.loc 1 631 5 is_stmt 1 view .LVU262
 871              		.loc 1 631 41 is_stmt 0 view .LVU263
 872 0048 C3F30A02 		ubfx	r2, r3, #0, #11
 873              		.loc 1 631 68 view .LVU264
 874 004c 5204     		lsls	r2, r2, #17
 875              		.loc 1 631 27 view .LVU265
 876 004e 4A61     		str	r2, [r1, #20]
 632:../../Drivers/STM32L5xx_HAL_Driver/Src/stm32l5xx_hal_gtzc.c ****     pMPCWM_Desc[1].Length = ((reg_value & length_msk) >> length_pos) * GTZC_TZSC_MPCWM_GRANULARITY;
 877              		.loc 1 632 5 is_stmt 1 view .LVU266
 878              		.loc 1 632 55 is_stmt 0 view .LVU267
 879 0050 C3F30B43 		ubfx	r3, r3, #16, #12
 880              	.LVL80:
 881              		.loc 1 632 70 view .LVU268
 882 0054 5B04     		lsls	r3, r3, #17
 883              		.loc 1 632 27 view .LVU269
 884 0056 8B61     		str	r3, [r1, #24]
 633:../../Drivers/STM32L5xx_HAL_Driver/Src/stm32l5xx_hal_gtzc.c ****   }
 634:../../Drivers/STM32L5xx_HAL_Driver/Src/stm32l5xx_hal_gtzc.c **** 
 635:../../Drivers/STM32L5xx_HAL_Driver/Src/stm32l5xx_hal_gtzc.c ****   return HAL_OK;
 885              		.loc 1 635 10 view .LVU270
 886 0058 0020     		movs	r0, #0
 887              	.LVL81:
 888              		.loc 1 635 10 view .LVU271
 889 005a 7047     		bx	lr
 890              	.LVL82:
ARM GAS  /tmp/cczkRLel.s 			page 30


 891              	.L83:
 584:../../Drivers/STM32L5xx_HAL_Driver/Src/stm32l5xx_hal_gtzc.c ****       start_pos = GTZC_TZSC_MPCWM3_NSWMR1_NSWM1STRT_Pos;
 892              		.loc 1 584 24 view .LVU272
 893 005c 064B     		ldr	r3, .L90+8
 894 005e DBE7     		b	.L80
 895              	.L84:
 567:../../Drivers/STM32L5xx_HAL_Driver/Src/stm32l5xx_hal_gtzc.c ****   {
 896              		.loc 1 567 3 view .LVU273
 897 0060 064B     		ldr	r3, .L90+12
 898 0062 D9E7     		b	.L80
 899              	.LVL83:
 900              	.L87:
 617:../../Drivers/STM32L5xx_HAL_Driver/Src/stm32l5xx_hal_gtzc.c ****         start_pos = GTZC_TZSC_MPCWM2_NSWMR2_NSWM2STRT_Pos;
 901              		.loc 1 617 26 view .LVU274
 902 0064 064B     		ldr	r3, .L90+16
 903 0066 ECE7     		b	.L82
 904              	.L86:
 905              		.loc 1 635 10 view .LVU275
 906 0068 0020     		movs	r0, #0
 907              	.LVL84:
 908              		.loc 1 635 10 view .LVU276
 909 006a 7047     		bx	lr
 910              	.LVL85:
 911              	.L88:
 607:../../Drivers/STM32L5xx_HAL_Driver/Src/stm32l5xx_hal_gtzc.c ****     {
 912              		.loc 1 607 5 view .LVU277
 913 006c 0120     		movs	r0, #1
 914              	.LVL86:
 636:../../Drivers/STM32L5xx_HAL_Driver/Src/stm32l5xx_hal_gtzc.c **** }
 915              		.loc 1 636 1 view .LVU278
 916 006e 7047     		bx	lr
 917              	.L91:
 918              		.align	2
 919              	.L90:
 920 0070 38240350 		.word	1342383160
 921 0074 34240350 		.word	1342383156
 922 0078 40240350 		.word	1342383168
 923 007c 30240350 		.word	1342383152
 924 0080 3C240350 		.word	1342383164
 925              		.cfi_endproc
 926              	.LFE205:
 928              		.section	.text.HAL_GTZC_TZSC_Lock,"ax",%progbits
 929              		.align	1
 930              		.global	HAL_GTZC_TZSC_Lock
 931              		.syntax unified
 932              		.thumb
 933              		.thumb_func
 935              	HAL_GTZC_TZSC_Lock:
 936              	.LVL87:
 937              	.LFB206:
 637:../../Drivers/STM32L5xx_HAL_Driver/Src/stm32l5xx_hal_gtzc.c **** 
 638:../../Drivers/STM32L5xx_HAL_Driver/Src/stm32l5xx_hal_gtzc.c **** /**
 639:../../Drivers/STM32L5xx_HAL_Driver/Src/stm32l5xx_hal_gtzc.c ****   * @}
 640:../../Drivers/STM32L5xx_HAL_Driver/Src/stm32l5xx_hal_gtzc.c ****   */
 641:../../Drivers/STM32L5xx_HAL_Driver/Src/stm32l5xx_hal_gtzc.c **** 
 642:../../Drivers/STM32L5xx_HAL_Driver/Src/stm32l5xx_hal_gtzc.c **** #endif /* defined(__ARM_FEATURE_CMSE) && (__ARM_FEATURE_CMSE == 3U) */
 643:../../Drivers/STM32L5xx_HAL_Driver/Src/stm32l5xx_hal_gtzc.c **** 
ARM GAS  /tmp/cczkRLel.s 			page 31


 644:../../Drivers/STM32L5xx_HAL_Driver/Src/stm32l5xx_hal_gtzc.c **** /** @defgroup GTZC_Exported_Functions_Group3 TZSC and TZSC-MPCWM Lock functions
 645:../../Drivers/STM32L5xx_HAL_Driver/Src/stm32l5xx_hal_gtzc.c ****   * @brief    TZSC and TZSC-MPCWM Lock functions
 646:../../Drivers/STM32L5xx_HAL_Driver/Src/stm32l5xx_hal_gtzc.c ****   *
 647:../../Drivers/STM32L5xx_HAL_Driver/Src/stm32l5xx_hal_gtzc.c ****   @verbatim
 648:../../Drivers/STM32L5xx_HAL_Driver/Src/stm32l5xx_hal_gtzc.c ****   ==============================================================================
 649:../../Drivers/STM32L5xx_HAL_Driver/Src/stm32l5xx_hal_gtzc.c ****             ##### TZSC and TZSC-MPCWM Lock functions #####
 650:../../Drivers/STM32L5xx_HAL_Driver/Src/stm32l5xx_hal_gtzc.c ****   ==============================================================================
 651:../../Drivers/STM32L5xx_HAL_Driver/Src/stm32l5xx_hal_gtzc.c ****   [..]
 652:../../Drivers/STM32L5xx_HAL_Driver/Src/stm32l5xx_hal_gtzc.c ****     This section provides functions allowing to manage the common TZSC and
 653:../../Drivers/STM32L5xx_HAL_Driver/Src/stm32l5xx_hal_gtzc.c ****     TZSC-MPCWM lock. It includes lock enable, and current value read.
 654:../../Drivers/STM32L5xx_HAL_Driver/Src/stm32l5xx_hal_gtzc.c ****     TZSC is TrustZone Security Controller
 655:../../Drivers/STM32L5xx_HAL_Driver/Src/stm32l5xx_hal_gtzc.c ****     MPCWM is Memory Protection Controller WaterMark
 656:../../Drivers/STM32L5xx_HAL_Driver/Src/stm32l5xx_hal_gtzc.c **** @endverbatim
 657:../../Drivers/STM32L5xx_HAL_Driver/Src/stm32l5xx_hal_gtzc.c ****   * @{
 658:../../Drivers/STM32L5xx_HAL_Driver/Src/stm32l5xx_hal_gtzc.c ****   */
 659:../../Drivers/STM32L5xx_HAL_Driver/Src/stm32l5xx_hal_gtzc.c **** 
 660:../../Drivers/STM32L5xx_HAL_Driver/Src/stm32l5xx_hal_gtzc.c **** /**
 661:../../Drivers/STM32L5xx_HAL_Driver/Src/stm32l5xx_hal_gtzc.c ****   * @brief  Lock TZSC and TZSC-MPCWM configuration.
 662:../../Drivers/STM32L5xx_HAL_Driver/Src/stm32l5xx_hal_gtzc.c ****   * @param  TZSC_Instance TZSC sub-block instance.
 663:../../Drivers/STM32L5xx_HAL_Driver/Src/stm32l5xx_hal_gtzc.c ****   */
 664:../../Drivers/STM32L5xx_HAL_Driver/Src/stm32l5xx_hal_gtzc.c **** #if defined(__ARM_FEATURE_CMSE) && (__ARM_FEATURE_CMSE == 3U)
 665:../../Drivers/STM32L5xx_HAL_Driver/Src/stm32l5xx_hal_gtzc.c **** 
 666:../../Drivers/STM32L5xx_HAL_Driver/Src/stm32l5xx_hal_gtzc.c **** void HAL_GTZC_TZSC_Lock(GTZC_TZSC_TypeDef *TZSC_Instance)
 667:../../Drivers/STM32L5xx_HAL_Driver/Src/stm32l5xx_hal_gtzc.c **** {
 938              		.loc 1 667 1 is_stmt 1 view -0
 939              		.cfi_startproc
 940              		@ args = 0, pretend = 0, frame = 0
 941              		@ frame_needed = 0, uses_anonymous_args = 0
 942              		@ link register save eliminated.
 668:../../Drivers/STM32L5xx_HAL_Driver/Src/stm32l5xx_hal_gtzc.c ****   SET_BIT(TZSC_Instance->CR, GTZC_TZSC_CR_LCK_Msk);
 943              		.loc 1 668 3 view .LVU280
 944 0000 0368     		ldr	r3, [r0]
 945 0002 43F00103 		orr	r3, r3, #1
 946 0006 0360     		str	r3, [r0]
 669:../../Drivers/STM32L5xx_HAL_Driver/Src/stm32l5xx_hal_gtzc.c **** }
 947              		.loc 1 669 1 is_stmt 0 view .LVU281
 948 0008 7047     		bx	lr
 949              		.cfi_endproc
 950              	.LFE206:
 952              		.section	.text.HAL_GTZC_TZSC_GetLock,"ax",%progbits
 953              		.align	1
 954              		.global	HAL_GTZC_TZSC_GetLock
 955              		.syntax unified
 956              		.thumb
 957              		.thumb_func
 959              	HAL_GTZC_TZSC_GetLock:
 960              	.LVL88:
 961              	.LFB207:
 670:../../Drivers/STM32L5xx_HAL_Driver/Src/stm32l5xx_hal_gtzc.c **** 
 671:../../Drivers/STM32L5xx_HAL_Driver/Src/stm32l5xx_hal_gtzc.c **** #endif /* defined(__ARM_FEATURE_CMSE) && (__ARM_FEATURE_CMSE == 3U) */
 672:../../Drivers/STM32L5xx_HAL_Driver/Src/stm32l5xx_hal_gtzc.c **** 
 673:../../Drivers/STM32L5xx_HAL_Driver/Src/stm32l5xx_hal_gtzc.c **** /**
 674:../../Drivers/STM32L5xx_HAL_Driver/Src/stm32l5xx_hal_gtzc.c ****   * @brief  Get TZSC and TZSC-MPCWM configuration lock state.
 675:../../Drivers/STM32L5xx_HAL_Driver/Src/stm32l5xx_hal_gtzc.c ****   * @param  TZSC_Instance TZSC sub-block instance.
 676:../../Drivers/STM32L5xx_HAL_Driver/Src/stm32l5xx_hal_gtzc.c ****   * @retval Lock State (GTZC_TZSC_LOCK_OFF or GTZC_TZSC_LOCK_ON)
 677:../../Drivers/STM32L5xx_HAL_Driver/Src/stm32l5xx_hal_gtzc.c ****   */
 678:../../Drivers/STM32L5xx_HAL_Driver/Src/stm32l5xx_hal_gtzc.c **** uint32_t HAL_GTZC_TZSC_GetLock(const GTZC_TZSC_TypeDef *TZSC_Instance)
ARM GAS  /tmp/cczkRLel.s 			page 32


 679:../../Drivers/STM32L5xx_HAL_Driver/Src/stm32l5xx_hal_gtzc.c **** {
 962              		.loc 1 679 1 is_stmt 1 view -0
 963              		.cfi_startproc
 964              		@ args = 0, pretend = 0, frame = 0
 965              		@ frame_needed = 0, uses_anonymous_args = 0
 966              		@ link register save eliminated.
 680:../../Drivers/STM32L5xx_HAL_Driver/Src/stm32l5xx_hal_gtzc.c ****   return READ_BIT(TZSC_Instance->CR, GTZC_TZSC_CR_LCK_Msk);
 967              		.loc 1 680 3 view .LVU283
 968              		.loc 1 680 10 is_stmt 0 view .LVU284
 969 0000 0068     		ldr	r0, [r0]
 970              	.LVL89:
 681:../../Drivers/STM32L5xx_HAL_Driver/Src/stm32l5xx_hal_gtzc.c **** }
 971              		.loc 1 681 1 view .LVU285
 972 0002 00F00100 		and	r0, r0, #1
 973 0006 7047     		bx	lr
 974              		.cfi_endproc
 975              	.LFE207:
 977              		.section	.text.HAL_GTZC_MPCBB_ConfigMem,"ax",%progbits
 978              		.align	1
 979              		.global	HAL_GTZC_MPCBB_ConfigMem
 980              		.syntax unified
 981              		.thumb
 982              		.thumb_func
 984              	HAL_GTZC_MPCBB_ConfigMem:
 985              	.LVL90:
 986              	.LFB208:
 682:../../Drivers/STM32L5xx_HAL_Driver/Src/stm32l5xx_hal_gtzc.c **** 
 683:../../Drivers/STM32L5xx_HAL_Driver/Src/stm32l5xx_hal_gtzc.c **** /**
 684:../../Drivers/STM32L5xx_HAL_Driver/Src/stm32l5xx_hal_gtzc.c ****   * @}
 685:../../Drivers/STM32L5xx_HAL_Driver/Src/stm32l5xx_hal_gtzc.c ****   */
 686:../../Drivers/STM32L5xx_HAL_Driver/Src/stm32l5xx_hal_gtzc.c **** 
 687:../../Drivers/STM32L5xx_HAL_Driver/Src/stm32l5xx_hal_gtzc.c **** #if defined(__ARM_FEATURE_CMSE) && (__ARM_FEATURE_CMSE == 3U)
 688:../../Drivers/STM32L5xx_HAL_Driver/Src/stm32l5xx_hal_gtzc.c **** 
 689:../../Drivers/STM32L5xx_HAL_Driver/Src/stm32l5xx_hal_gtzc.c **** /** @defgroup GTZC_Exported_Functions_Group4 MPCBB Configuration functions
 690:../../Drivers/STM32L5xx_HAL_Driver/Src/stm32l5xx_hal_gtzc.c ****   * @brief    MPCBB Configuration functions
 691:../../Drivers/STM32L5xx_HAL_Driver/Src/stm32l5xx_hal_gtzc.c ****   *
 692:../../Drivers/STM32L5xx_HAL_Driver/Src/stm32l5xx_hal_gtzc.c ****   @verbatim
 693:../../Drivers/STM32L5xx_HAL_Driver/Src/stm32l5xx_hal_gtzc.c ****   ==============================================================================
 694:../../Drivers/STM32L5xx_HAL_Driver/Src/stm32l5xx_hal_gtzc.c ****             ##### MPCBB Configuration functions #####
 695:../../Drivers/STM32L5xx_HAL_Driver/Src/stm32l5xx_hal_gtzc.c ****   ==============================================================================
 696:../../Drivers/STM32L5xx_HAL_Driver/Src/stm32l5xx_hal_gtzc.c ****   [..]
 697:../../Drivers/STM32L5xx_HAL_Driver/Src/stm32l5xx_hal_gtzc.c ****     This section provides functions allowing to configure MPCBB
 698:../../Drivers/STM32L5xx_HAL_Driver/Src/stm32l5xx_hal_gtzc.c ****     MPCBB is  Memory Protection Controller Block Base
 699:../../Drivers/STM32L5xx_HAL_Driver/Src/stm32l5xx_hal_gtzc.c **** @endverbatim
 700:../../Drivers/STM32L5xx_HAL_Driver/Src/stm32l5xx_hal_gtzc.c ****   * @{
 701:../../Drivers/STM32L5xx_HAL_Driver/Src/stm32l5xx_hal_gtzc.c ****   */
 702:../../Drivers/STM32L5xx_HAL_Driver/Src/stm32l5xx_hal_gtzc.c **** 
 703:../../Drivers/STM32L5xx_HAL_Driver/Src/stm32l5xx_hal_gtzc.c **** /**
 704:../../Drivers/STM32L5xx_HAL_Driver/Src/stm32l5xx_hal_gtzc.c ****   * @brief  Set a complete MPCBB configuration on the SRAM passed as parameter.
 705:../../Drivers/STM32L5xx_HAL_Driver/Src/stm32l5xx_hal_gtzc.c ****   * @param  MemBaseAddress MPCBB identifier.
 706:../../Drivers/STM32L5xx_HAL_Driver/Src/stm32l5xx_hal_gtzc.c ****   * @param  pMPCBB_desc pointer to MPCBB descriptor.
 707:../../Drivers/STM32L5xx_HAL_Driver/Src/stm32l5xx_hal_gtzc.c ****   *         The structure description is available in @ref GTZC_Exported_Types.
 708:../../Drivers/STM32L5xx_HAL_Driver/Src/stm32l5xx_hal_gtzc.c ****   * @retval HAL status.
 709:../../Drivers/STM32L5xx_HAL_Driver/Src/stm32l5xx_hal_gtzc.c ****   */
 710:../../Drivers/STM32L5xx_HAL_Driver/Src/stm32l5xx_hal_gtzc.c **** HAL_StatusTypeDef HAL_GTZC_MPCBB_ConfigMem(uint32_t MemBaseAddress,
 711:../../Drivers/STM32L5xx_HAL_Driver/Src/stm32l5xx_hal_gtzc.c ****                                            const MPCBB_ConfigTypeDef *pMPCBB_desc)
 712:../../Drivers/STM32L5xx_HAL_Driver/Src/stm32l5xx_hal_gtzc.c **** {
ARM GAS  /tmp/cczkRLel.s 			page 33


 987              		.loc 1 712 1 is_stmt 1 view -0
 988              		.cfi_startproc
 989              		@ args = 0, pretend = 0, frame = 0
 990              		@ frame_needed = 0, uses_anonymous_args = 0
 713:../../Drivers/STM32L5xx_HAL_Driver/Src/stm32l5xx_hal_gtzc.c ****   GTZC_MPCBB_TypeDef *mpcbb_ptr;
 991              		.loc 1 713 3 view .LVU287
 714:../../Drivers/STM32L5xx_HAL_Driver/Src/stm32l5xx_hal_gtzc.c ****   uint32_t reg_value;
 992              		.loc 1 714 3 view .LVU288
 715:../../Drivers/STM32L5xx_HAL_Driver/Src/stm32l5xx_hal_gtzc.c ****   uint32_t mem_size;
 993              		.loc 1 715 3 view .LVU289
 716:../../Drivers/STM32L5xx_HAL_Driver/Src/stm32l5xx_hal_gtzc.c ****   uint32_t size_mask;
 994              		.loc 1 716 3 view .LVU290
 717:../../Drivers/STM32L5xx_HAL_Driver/Src/stm32l5xx_hal_gtzc.c ****   uint32_t size_in_superblocks;
 995              		.loc 1 717 3 view .LVU291
 718:../../Drivers/STM32L5xx_HAL_Driver/Src/stm32l5xx_hal_gtzc.c ****   uint32_t i;
 996              		.loc 1 718 3 view .LVU292
 719:../../Drivers/STM32L5xx_HAL_Driver/Src/stm32l5xx_hal_gtzc.c **** 
 720:../../Drivers/STM32L5xx_HAL_Driver/Src/stm32l5xx_hal_gtzc.c ****   /* check entry parameters */
 721:../../Drivers/STM32L5xx_HAL_Driver/Src/stm32l5xx_hal_gtzc.c ****   if ((!(IS_GTZC_BASE_ADDRESS(SRAM1, MemBaseAddress))
 997              		.loc 1 721 3 view .LVU293
 998              		.loc 1 721 6 is_stmt 0 view .LVU294
 999 0000 B0F1005F 		cmp	r0, #536870912
 1000 0004 09D0     		beq	.L95
 1001              		.loc 1 721 8 discriminator 1 view .LVU295
 1002 0006 B0F1405F 		cmp	r0, #805306368
 1003 000a 06D0     		beq	.L95
 722:../../Drivers/STM32L5xx_HAL_Driver/Src/stm32l5xx_hal_gtzc.c ****        &&  !(IS_GTZC_BASE_ADDRESS(SRAM2, MemBaseAddress)))
 1004              		.loc 1 722 8 view .LVU296
 1005 000c 244B     		ldr	r3, .L111
 1006 000e 9842     		cmp	r0, r3
 1007 0010 03D0     		beq	.L95
 1008              		.loc 1 722 12 discriminator 1 view .LVU297
 1009 0012 03F18053 		add	r3, r3, #268435456
 1010 0016 9842     		cmp	r0, r3
 1011 0018 3CD1     		bne	.L102
 1012              	.L95:
 723:../../Drivers/STM32L5xx_HAL_Driver/Src/stm32l5xx_hal_gtzc.c ****       || ((pMPCBB_desc->SecureRWIllegalMode != GTZC_MPCBB_SRWILADIS_ENABLE)
 1013              		.loc 1 723 23 view .LVU298
 1014 001a 0B68     		ldr	r3, [r1]
 1015              		.loc 1 723 7 view .LVU299
 1016 001c 13B1     		cbz	r3, .L97
 724:../../Drivers/STM32L5xx_HAL_Driver/Src/stm32l5xx_hal_gtzc.c ****           && (pMPCBB_desc->SecureRWIllegalMode != GTZC_MPCBB_SRWILADIS_DISABLE))
 1017              		.loc 1 724 11 view .LVU300
 1018 001e B3F1004F 		cmp	r3, #-2147483648
 1019 0022 39D1     		bne	.L103
 1020              	.L97:
 725:../../Drivers/STM32L5xx_HAL_Driver/Src/stm32l5xx_hal_gtzc.c ****       || ((pMPCBB_desc->InvertSecureState != GTZC_MPCBB_INVSECSTATE_NOT_INVERTED)
 1021              		.loc 1 725 23 view .LVU301
 1022 0024 4A68     		ldr	r2, [r1, #4]
 1023              		.loc 1 725 7 view .LVU302
 1024 0026 12B1     		cbz	r2, .L98
 726:../../Drivers/STM32L5xx_HAL_Driver/Src/stm32l5xx_hal_gtzc.c ****           && (pMPCBB_desc->InvertSecureState != GTZC_MPCBB_INVSECSTATE_INVERTED)))
 1025              		.loc 1 726 11 view .LVU303
 1026 0028 B2F1804F 		cmp	r2, #1073741824
 1027 002c 36D1     		bne	.L104
 1028              	.L98:
 712:../../Drivers/STM32L5xx_HAL_Driver/Src/stm32l5xx_hal_gtzc.c ****   GTZC_MPCBB_TypeDef *mpcbb_ptr;
ARM GAS  /tmp/cczkRLel.s 			page 34


 1029              		.loc 1 712 1 view .LVU304
 1030 002e 10B5     		push	{r4, lr}
 1031              	.LCFI12:
 1032              		.cfi_def_cfa_offset 8
 1033              		.cfi_offset 4, -8
 1034              		.cfi_offset 14, -4
 727:../../Drivers/STM32L5xx_HAL_Driver/Src/stm32l5xx_hal_gtzc.c ****   {
 728:../../Drivers/STM32L5xx_HAL_Driver/Src/stm32l5xx_hal_gtzc.c ****     return HAL_ERROR;
 729:../../Drivers/STM32L5xx_HAL_Driver/Src/stm32l5xx_hal_gtzc.c ****   }
 730:../../Drivers/STM32L5xx_HAL_Driver/Src/stm32l5xx_hal_gtzc.c **** 
 731:../../Drivers/STM32L5xx_HAL_Driver/Src/stm32l5xx_hal_gtzc.c ****   /* write InvertSecureState and SecureRWIllegalMode properties */
 732:../../Drivers/STM32L5xx_HAL_Driver/Src/stm32l5xx_hal_gtzc.c ****   /* assume their Position/Mask is identical for all sub-blocks */
 733:../../Drivers/STM32L5xx_HAL_Driver/Src/stm32l5xx_hal_gtzc.c ****   reg_value = pMPCBB_desc->InvertSecureState;
 1035              		.loc 1 733 3 is_stmt 1 view .LVU305
 1036              	.LVL91:
 734:../../Drivers/STM32L5xx_HAL_Driver/Src/stm32l5xx_hal_gtzc.c ****   reg_value |= pMPCBB_desc->SecureRWIllegalMode;
 1037              		.loc 1 734 3 view .LVU306
 1038              		.loc 1 734 13 is_stmt 0 view .LVU307
 1039 0030 43EA020E 		orr	lr, r3, r2
 1040              	.LVL92:
 735:../../Drivers/STM32L5xx_HAL_Driver/Src/stm32l5xx_hal_gtzc.c ****   if (IS_GTZC_BASE_ADDRESS(SRAM1, MemBaseAddress))
 1041              		.loc 1 735 3 is_stmt 1 view .LVU308
 1042              		.loc 1 735 6 is_stmt 0 view .LVU309
 1043 0034 B0F1005F 		cmp	r0, #536870912
 1044 0038 0DD0     		beq	.L105
 1045              		.loc 1 735 7 discriminator 1 view .LVU310
 1046 003a B0F1405F 		cmp	r0, #805306368
 1047 003e 06D0     		beq	.L110
 736:../../Drivers/STM32L5xx_HAL_Driver/Src/stm32l5xx_hal_gtzc.c ****   {
 737:../../Drivers/STM32L5xx_HAL_Driver/Src/stm32l5xx_hal_gtzc.c ****     mpcbb_ptr = GTZC_MPCBB1_S;
 738:../../Drivers/STM32L5xx_HAL_Driver/Src/stm32l5xx_hal_gtzc.c ****     mem_size = GTZC_MEM_SIZE(SRAM1);
 739:../../Drivers/STM32L5xx_HAL_Driver/Src/stm32l5xx_hal_gtzc.c ****   }
 740:../../Drivers/STM32L5xx_HAL_Driver/Src/stm32l5xx_hal_gtzc.c ****   else
 741:../../Drivers/STM32L5xx_HAL_Driver/Src/stm32l5xx_hal_gtzc.c ****   {
 742:../../Drivers/STM32L5xx_HAL_Driver/Src/stm32l5xx_hal_gtzc.c ****     /* Here MemBaseAddress is inside SRAM2 (already tested) */
 743:../../Drivers/STM32L5xx_HAL_Driver/Src/stm32l5xx_hal_gtzc.c ****     mpcbb_ptr = GTZC_MPCBB2_S;
 744:../../Drivers/STM32L5xx_HAL_Driver/Src/stm32l5xx_hal_gtzc.c ****     mem_size = GTZC_MEM_SIZE(SRAM2);
 1048              		.loc 1 744 14 view .LVU311
 1049 0040 4FF4803C 		mov	ip, #65536
 743:../../Drivers/STM32L5xx_HAL_Driver/Src/stm32l5xx_hal_gtzc.c ****     mem_size = GTZC_MEM_SIZE(SRAM2);
 1050              		.loc 1 743 15 view .LVU312
 1051 0044 174C     		ldr	r4, .L111+4
 1052              	.L99:
 1053              	.LVL93:
 745:../../Drivers/STM32L5xx_HAL_Driver/Src/stm32l5xx_hal_gtzc.c ****   }
 746:../../Drivers/STM32L5xx_HAL_Driver/Src/stm32l5xx_hal_gtzc.c **** 
 747:../../Drivers/STM32L5xx_HAL_Driver/Src/stm32l5xx_hal_gtzc.c ****   /* write vector register information */
 748:../../Drivers/STM32L5xx_HAL_Driver/Src/stm32l5xx_hal_gtzc.c ****   size_in_superblocks = (mem_size / GTZC_MPCBB_SUPERBLOCK_SIZE);
 1054              		.loc 1 748 3 is_stmt 1 view .LVU313
 1055              		.loc 1 748 23 is_stmt 0 view .LVU314
 1056 0046 4FEA5C3C 		lsr	ip, ip, #13
 1057              	.LVL94:
 749:../../Drivers/STM32L5xx_HAL_Driver/Src/stm32l5xx_hal_gtzc.c ****   for (i = 0U; i < size_in_superblocks; i++)
 1058              		.loc 1 749 3 is_stmt 1 view .LVU315
 1059              		.loc 1 749 10 is_stmt 0 view .LVU316
 1060 004a 0023     		movs	r3, #0
 1061              		.loc 1 749 3 view .LVU317
ARM GAS  /tmp/cczkRLel.s 			page 35


 1062 004c 0FE0     		b	.L100
 1063              	.LVL95:
 1064              	.L110:
 738:../../Drivers/STM32L5xx_HAL_Driver/Src/stm32l5xx_hal_gtzc.c ****   }
 1065              		.loc 1 738 14 view .LVU318
 1066 004e 4FF4403C 		mov	ip, #196608
 737:../../Drivers/STM32L5xx_HAL_Driver/Src/stm32l5xx_hal_gtzc.c ****     mem_size = GTZC_MEM_SIZE(SRAM1);
 1067              		.loc 1 737 15 view .LVU319
 1068 0052 154C     		ldr	r4, .L111+8
 1069 0054 F7E7     		b	.L99
 1070              	.L105:
 738:../../Drivers/STM32L5xx_HAL_Driver/Src/stm32l5xx_hal_gtzc.c ****   }
 1071              		.loc 1 738 14 view .LVU320
 1072 0056 4FF4403C 		mov	ip, #196608
 737:../../Drivers/STM32L5xx_HAL_Driver/Src/stm32l5xx_hal_gtzc.c ****     mem_size = GTZC_MEM_SIZE(SRAM1);
 1073              		.loc 1 737 15 view .LVU321
 1074 005a 134C     		ldr	r4, .L111+8
 1075 005c F3E7     		b	.L99
 1076              	.LVL96:
 1077              	.L101:
 750:../../Drivers/STM32L5xx_HAL_Driver/Src/stm32l5xx_hal_gtzc.c ****   {
 751:../../Drivers/STM32L5xx_HAL_Driver/Src/stm32l5xx_hal_gtzc.c ****     WRITE_REG(mpcbb_ptr->VCTR[i],
 1078              		.loc 1 751 5 is_stmt 1 discriminator 3 view .LVU322
 1079 005e 9A1C     		adds	r2, r3, #2
 1080 0060 51F82200 		ldr	r0, [r1, r2, lsl #2]
 1081 0064 03F14002 		add	r2, r3, #64
 1082 0068 44F82200 		str	r0, [r4, r2, lsl #2]
 749:../../Drivers/STM32L5xx_HAL_Driver/Src/stm32l5xx_hal_gtzc.c ****   {
 1083              		.loc 1 749 42 discriminator 3 view .LVU323
 1084 006c 0133     		adds	r3, r3, #1
 1085              	.LVL97:
 1086              	.L100:
 749:../../Drivers/STM32L5xx_HAL_Driver/Src/stm32l5xx_hal_gtzc.c ****   {
 1087              		.loc 1 749 18 discriminator 1 view .LVU324
 1088 006e 6345     		cmp	r3, ip
 1089 0070 F5D3     		bcc	.L101
 752:../../Drivers/STM32L5xx_HAL_Driver/Src/stm32l5xx_hal_gtzc.c ****               pMPCBB_desc->AttributeConfig.MPCBB_SecConfig_array[i]);
 753:../../Drivers/STM32L5xx_HAL_Driver/Src/stm32l5xx_hal_gtzc.c ****   }
 754:../../Drivers/STM32L5xx_HAL_Driver/Src/stm32l5xx_hal_gtzc.c **** 
 755:../../Drivers/STM32L5xx_HAL_Driver/Src/stm32l5xx_hal_gtzc.c ****   /* write configuration and lock register information */
 756:../../Drivers/STM32L5xx_HAL_Driver/Src/stm32l5xx_hal_gtzc.c ****   MODIFY_REG(mpcbb_ptr->CR,
 1090              		.loc 1 756 3 view .LVU325
 1091 0072 2368     		ldr	r3, [r4]
 1092              	.LVL98:
 1093              		.loc 1 756 3 is_stmt 0 view .LVU326
 1094 0074 23F04043 		bic	r3, r3, #-1073741824
 1095 0078 43EA0E03 		orr	r3, r3, lr
 1096 007c 2360     		str	r3, [r4]
 757:../../Drivers/STM32L5xx_HAL_Driver/Src/stm32l5xx_hal_gtzc.c ****              GTZC_MPCBB_CR_INVSECSTATE_Msk | GTZC_MPCBB_CR_SRWILADIS_Msk, reg_value);
 758:../../Drivers/STM32L5xx_HAL_Driver/Src/stm32l5xx_hal_gtzc.c **** 
 759:../../Drivers/STM32L5xx_HAL_Driver/Src/stm32l5xx_hal_gtzc.c ****   size_mask = (1UL << (mem_size / GTZC_MPCBB_SUPERBLOCK_SIZE)) - 1U;
 1097              		.loc 1 759 3 is_stmt 1 view .LVU327
 1098              		.loc 1 759 20 is_stmt 0 view .LVU328
 1099 007e 0122     		movs	r2, #1
 1100 0080 02FA0CF2 		lsl	r2, r2, ip
 1101              	.LVL99:
 760:../../Drivers/STM32L5xx_HAL_Driver/Src/stm32l5xx_hal_gtzc.c ****   /* limitation: code not portable with memory > 256K */
ARM GAS  /tmp/cczkRLel.s 			page 36


 761:../../Drivers/STM32L5xx_HAL_Driver/Src/stm32l5xx_hal_gtzc.c ****   MODIFY_REG(mpcbb_ptr->LCKVTR1, size_mask, pMPCBB_desc->AttributeConfig.MPCBB_LockConfig_array[0])
 1102              		.loc 1 761 3 is_stmt 1 view .LVU329
 1103 0084 2369     		ldr	r3, [r4, #16]
 1104 0086 5242     		rsbs	r2, r2, #0
 1105              	.LVL100:
 1106              		.loc 1 761 3 is_stmt 0 view .LVU330
 1107 0088 1340     		ands	r3, r3, r2
 1108 008a 8A6E     		ldr	r2, [r1, #104]
 1109              	.LVL101:
 1110              		.loc 1 761 3 view .LVU331
 1111 008c 1343     		orrs	r3, r3, r2
 1112 008e 2361     		str	r3, [r4, #16]
 762:../../Drivers/STM32L5xx_HAL_Driver/Src/stm32l5xx_hal_gtzc.c **** 
 763:../../Drivers/STM32L5xx_HAL_Driver/Src/stm32l5xx_hal_gtzc.c ****   return HAL_OK;
 1113              		.loc 1 763 3 is_stmt 1 view .LVU332
 1114              		.loc 1 763 10 is_stmt 0 view .LVU333
 1115 0090 0020     		movs	r0, #0
 764:../../Drivers/STM32L5xx_HAL_Driver/Src/stm32l5xx_hal_gtzc.c **** }
 1116              		.loc 1 764 1 view .LVU334
 1117 0092 10BD     		pop	{r4, pc}
 1118              	.LVL102:
 1119              	.L102:
 1120              	.LCFI13:
 1121              		.cfi_def_cfa_offset 0
 1122              		.cfi_restore 4
 1123              		.cfi_restore 14
 728:../../Drivers/STM32L5xx_HAL_Driver/Src/stm32l5xx_hal_gtzc.c ****   }
 1124              		.loc 1 728 12 view .LVU335
 1125 0094 0120     		movs	r0, #1
 1126              	.LVL103:
 728:../../Drivers/STM32L5xx_HAL_Driver/Src/stm32l5xx_hal_gtzc.c ****   }
 1127              		.loc 1 728 12 view .LVU336
 1128 0096 7047     		bx	lr
 1129              	.LVL104:
 1130              	.L103:
 728:../../Drivers/STM32L5xx_HAL_Driver/Src/stm32l5xx_hal_gtzc.c ****   }
 1131              		.loc 1 728 12 view .LVU337
 1132 0098 0120     		movs	r0, #1
 1133              	.LVL105:
 728:../../Drivers/STM32L5xx_HAL_Driver/Src/stm32l5xx_hal_gtzc.c ****   }
 1134              		.loc 1 728 12 view .LVU338
 1135 009a 7047     		bx	lr
 1136              	.LVL106:
 1137              	.L104:
 728:../../Drivers/STM32L5xx_HAL_Driver/Src/stm32l5xx_hal_gtzc.c ****   }
 1138              		.loc 1 728 12 view .LVU339
 1139 009c 0120     		movs	r0, #1
 1140              	.LVL107:
 1141              		.loc 1 764 1 view .LVU340
 1142 009e 7047     		bx	lr
 1143              	.L112:
 1144              		.align	2
 1145              	.L111:
 1146 00a0 00000320 		.word	537067520
 1147 00a4 00300350 		.word	1342386176
 1148 00a8 002C0350 		.word	1342385152
 1149              		.cfi_endproc
ARM GAS  /tmp/cczkRLel.s 			page 37


 1150              	.LFE208:
 1152              		.section	.text.HAL_GTZC_MPCBB_GetConfigMem,"ax",%progbits
 1153              		.align	1
 1154              		.global	HAL_GTZC_MPCBB_GetConfigMem
 1155              		.syntax unified
 1156              		.thumb
 1157              		.thumb_func
 1159              	HAL_GTZC_MPCBB_GetConfigMem:
 1160              	.LVL108:
 1161              	.LFB209:
 765:../../Drivers/STM32L5xx_HAL_Driver/Src/stm32l5xx_hal_gtzc.c **** 
 766:../../Drivers/STM32L5xx_HAL_Driver/Src/stm32l5xx_hal_gtzc.c **** /**
 767:../../Drivers/STM32L5xx_HAL_Driver/Src/stm32l5xx_hal_gtzc.c ****   * @brief  Get a complete MPCBB configuration on the SRAM passed as parameter.
 768:../../Drivers/STM32L5xx_HAL_Driver/Src/stm32l5xx_hal_gtzc.c ****   * @param  MemBaseAddress MPCBB identifier.
 769:../../Drivers/STM32L5xx_HAL_Driver/Src/stm32l5xx_hal_gtzc.c ****   * @param  pMPCBB_desc pointer to a MPCBB descriptor.
 770:../../Drivers/STM32L5xx_HAL_Driver/Src/stm32l5xx_hal_gtzc.c ****   *         The structure description is available in @ref GTZC_Exported_Types.
 771:../../Drivers/STM32L5xx_HAL_Driver/Src/stm32l5xx_hal_gtzc.c ****   * @retval HAL status.
 772:../../Drivers/STM32L5xx_HAL_Driver/Src/stm32l5xx_hal_gtzc.c ****   */
 773:../../Drivers/STM32L5xx_HAL_Driver/Src/stm32l5xx_hal_gtzc.c **** HAL_StatusTypeDef HAL_GTZC_MPCBB_GetConfigMem(uint32_t MemBaseAddress,
 774:../../Drivers/STM32L5xx_HAL_Driver/Src/stm32l5xx_hal_gtzc.c ****                                               MPCBB_ConfigTypeDef *pMPCBB_desc)
 775:../../Drivers/STM32L5xx_HAL_Driver/Src/stm32l5xx_hal_gtzc.c **** {
 1162              		.loc 1 775 1 is_stmt 1 view -0
 1163              		.cfi_startproc
 1164              		@ args = 0, pretend = 0, frame = 0
 1165              		@ frame_needed = 0, uses_anonymous_args = 0
 1166              		@ link register save eliminated.
 1167              		.loc 1 775 1 is_stmt 0 view .LVU342
 1168 0000 10B4     		push	{r4}
 1169              	.LCFI14:
 1170              		.cfi_def_cfa_offset 4
 1171              		.cfi_offset 4, -4
 776:../../Drivers/STM32L5xx_HAL_Driver/Src/stm32l5xx_hal_gtzc.c ****   GTZC_MPCBB_TypeDef *mpcbb_ptr;
 1172              		.loc 1 776 3 is_stmt 1 view .LVU343
 777:../../Drivers/STM32L5xx_HAL_Driver/Src/stm32l5xx_hal_gtzc.c ****   uint32_t reg_value;
 1173              		.loc 1 777 3 view .LVU344
 778:../../Drivers/STM32L5xx_HAL_Driver/Src/stm32l5xx_hal_gtzc.c ****   uint32_t mem_size;
 1174              		.loc 1 778 3 view .LVU345
 779:../../Drivers/STM32L5xx_HAL_Driver/Src/stm32l5xx_hal_gtzc.c ****   uint32_t size_mask;
 1175              		.loc 1 779 3 view .LVU346
 780:../../Drivers/STM32L5xx_HAL_Driver/Src/stm32l5xx_hal_gtzc.c ****   uint32_t size_in_superblocks;
 1176              		.loc 1 780 3 view .LVU347
 781:../../Drivers/STM32L5xx_HAL_Driver/Src/stm32l5xx_hal_gtzc.c ****   uint32_t i;
 1177              		.loc 1 781 3 view .LVU348
 782:../../Drivers/STM32L5xx_HAL_Driver/Src/stm32l5xx_hal_gtzc.c **** 
 783:../../Drivers/STM32L5xx_HAL_Driver/Src/stm32l5xx_hal_gtzc.c ****   /* check entry parameters */
 784:../../Drivers/STM32L5xx_HAL_Driver/Src/stm32l5xx_hal_gtzc.c ****   if (!(IS_GTZC_BASE_ADDRESS(SRAM1, MemBaseAddress))
 1178              		.loc 1 784 3 view .LVU349
 1179              		.loc 1 784 6 is_stmt 0 view .LVU350
 1180 0002 B0F1005F 		cmp	r0, #536870912
 1181 0006 26D0     		beq	.L119
 1182              		.loc 1 784 7 discriminator 1 view .LVU351
 1183 0008 B0F1405F 		cmp	r0, #805306368
 1184 000c 06D0     		beq	.L115
 785:../../Drivers/STM32L5xx_HAL_Driver/Src/stm32l5xx_hal_gtzc.c ****       && !(IS_GTZC_BASE_ADDRESS(SRAM2, MemBaseAddress)))
 1185              		.loc 1 785 7 view .LVU352
 1186 000e 1C4B     		ldr	r3, .L124
 1187 0010 9842     		cmp	r0, r3
ARM GAS  /tmp/cczkRLel.s 			page 38


 1188 0012 03D0     		beq	.L115
 1189              		.loc 1 785 10 discriminator 1 view .LVU353
 1190 0014 03F18053 		add	r3, r3, #268435456
 1191 0018 9842     		cmp	r0, r3
 1192 001a 2ED1     		bne	.L120
 1193              	.L115:
 786:../../Drivers/STM32L5xx_HAL_Driver/Src/stm32l5xx_hal_gtzc.c ****   {
 787:../../Drivers/STM32L5xx_HAL_Driver/Src/stm32l5xx_hal_gtzc.c ****     return HAL_ERROR;
 788:../../Drivers/STM32L5xx_HAL_Driver/Src/stm32l5xx_hal_gtzc.c ****   }
 789:../../Drivers/STM32L5xx_HAL_Driver/Src/stm32l5xx_hal_gtzc.c **** 
 790:../../Drivers/STM32L5xx_HAL_Driver/Src/stm32l5xx_hal_gtzc.c ****   /* read InvertSecureState and SecureRWIllegalMode properties */
 791:../../Drivers/STM32L5xx_HAL_Driver/Src/stm32l5xx_hal_gtzc.c ****   /* assume their Position/Mask is identical for all sub-blocks */
 792:../../Drivers/STM32L5xx_HAL_Driver/Src/stm32l5xx_hal_gtzc.c ****   if (IS_GTZC_BASE_ADDRESS(SRAM1, MemBaseAddress))
 1194              		.loc 1 792 7 discriminator 1 view .LVU354
 1195 001c B0F1405F 		cmp	r0, #805306368
 1196 0020 15D0     		beq	.L123
 793:../../Drivers/STM32L5xx_HAL_Driver/Src/stm32l5xx_hal_gtzc.c ****   {
 794:../../Drivers/STM32L5xx_HAL_Driver/Src/stm32l5xx_hal_gtzc.c ****     mpcbb_ptr = GTZC_MPCBB1_S;
 795:../../Drivers/STM32L5xx_HAL_Driver/Src/stm32l5xx_hal_gtzc.c ****     mem_size = GTZC_MEM_SIZE(SRAM1);
 796:../../Drivers/STM32L5xx_HAL_Driver/Src/stm32l5xx_hal_gtzc.c ****   }
 797:../../Drivers/STM32L5xx_HAL_Driver/Src/stm32l5xx_hal_gtzc.c ****   else
 798:../../Drivers/STM32L5xx_HAL_Driver/Src/stm32l5xx_hal_gtzc.c ****   {
 799:../../Drivers/STM32L5xx_HAL_Driver/Src/stm32l5xx_hal_gtzc.c ****     mpcbb_ptr = GTZC_MPCBB2_S;
 800:../../Drivers/STM32L5xx_HAL_Driver/Src/stm32l5xx_hal_gtzc.c ****     mem_size = GTZC_MEM_SIZE(SRAM2);
 1197              		.loc 1 800 14 view .LVU355
 1198 0022 4FF4803C 		mov	ip, #65536
 799:../../Drivers/STM32L5xx_HAL_Driver/Src/stm32l5xx_hal_gtzc.c ****     mem_size = GTZC_MEM_SIZE(SRAM2);
 1199              		.loc 1 799 15 view .LVU356
 1200 0026 174C     		ldr	r4, .L124+4
 1201              	.L114:
 1202              	.LVL109:
 801:../../Drivers/STM32L5xx_HAL_Driver/Src/stm32l5xx_hal_gtzc.c ****   }
 802:../../Drivers/STM32L5xx_HAL_Driver/Src/stm32l5xx_hal_gtzc.c **** 
 803:../../Drivers/STM32L5xx_HAL_Driver/Src/stm32l5xx_hal_gtzc.c ****   /* read configuration and lock register information */
 804:../../Drivers/STM32L5xx_HAL_Driver/Src/stm32l5xx_hal_gtzc.c ****   reg_value = READ_REG(mpcbb_ptr->CR);
 1203              		.loc 1 804 3 is_stmt 1 view .LVU357
 1204              		.loc 1 804 13 is_stmt 0 view .LVU358
 1205 0028 2368     		ldr	r3, [r4]
 1206              	.LVL110:
 805:../../Drivers/STM32L5xx_HAL_Driver/Src/stm32l5xx_hal_gtzc.c ****   pMPCBB_desc->InvertSecureState = (reg_value & GTZC_MPCBB_CR_INVSECSTATE_Msk);
 1207              		.loc 1 805 3 is_stmt 1 view .LVU359
 1208              		.loc 1 805 47 is_stmt 0 view .LVU360
 1209 002a 03F08042 		and	r2, r3, #1073741824
 1210              		.loc 1 805 34 view .LVU361
 1211 002e 4A60     		str	r2, [r1, #4]
 806:../../Drivers/STM32L5xx_HAL_Driver/Src/stm32l5xx_hal_gtzc.c ****   pMPCBB_desc->SecureRWIllegalMode = (reg_value & GTZC_MPCBB_CR_SRWILADIS_Msk);
 1212              		.loc 1 806 3 is_stmt 1 view .LVU362
 1213              		.loc 1 806 49 is_stmt 0 view .LVU363
 1214 0030 03F00043 		and	r3, r3, #-2147483648
 1215              	.LVL111:
 1216              		.loc 1 806 36 view .LVU364
 1217 0034 0B60     		str	r3, [r1]
 807:../../Drivers/STM32L5xx_HAL_Driver/Src/stm32l5xx_hal_gtzc.c ****   size_mask = (1UL << (mem_size / GTZC_MPCBB_SUPERBLOCK_SIZE)) - 1U;
 1218              		.loc 1 807 3 is_stmt 1 view .LVU365
 1219              		.loc 1 807 33 is_stmt 0 view .LVU366
 1220 0036 4FEA5C3C 		lsr	ip, ip, #13
 1221              	.LVL112:
ARM GAS  /tmp/cczkRLel.s 			page 39


 808:../../Drivers/STM32L5xx_HAL_Driver/Src/stm32l5xx_hal_gtzc.c ****   /* limitation: code not portable with memory > 256K */
 809:../../Drivers/STM32L5xx_HAL_Driver/Src/stm32l5xx_hal_gtzc.c ****   pMPCBB_desc->AttributeConfig.MPCBB_LockConfig_array[0] = READ_REG(mpcbb_ptr->LCKVTR1)& size_mask;
 1222              		.loc 1 809 3 is_stmt 1 view .LVU367
 1223              		.loc 1 809 60 is_stmt 0 view .LVU368
 1224 003a 2369     		ldr	r3, [r4, #16]
 1225              		.loc 1 809 88 view .LVU369
 1226 003c 4FF0FF32 		mov	r2, #-1
 1227 0040 02FA0CF2 		lsl	r2, r2, ip
 1228 0044 23EA0203 		bic	r3, r3, r2
 1229              		.loc 1 809 58 view .LVU370
 1230 0048 8B66     		str	r3, [r1, #104]
 810:../../Drivers/STM32L5xx_HAL_Driver/Src/stm32l5xx_hal_gtzc.c **** 
 811:../../Drivers/STM32L5xx_HAL_Driver/Src/stm32l5xx_hal_gtzc.c ****   /* read vector register information */
 812:../../Drivers/STM32L5xx_HAL_Driver/Src/stm32l5xx_hal_gtzc.c ****   size_in_superblocks = (mem_size / GTZC_MPCBB_SUPERBLOCK_SIZE);
 1231              		.loc 1 812 3 is_stmt 1 view .LVU371
 1232              	.LVL113:
 813:../../Drivers/STM32L5xx_HAL_Driver/Src/stm32l5xx_hal_gtzc.c ****   for (i = 0U; i < size_in_superblocks; i++)
 1233              		.loc 1 813 3 view .LVU372
 1234              		.loc 1 813 10 is_stmt 0 view .LVU373
 1235 004a 0023     		movs	r3, #0
 1236              		.loc 1 813 3 view .LVU374
 1237 004c 0FE0     		b	.L117
 1238              	.LVL114:
 1239              	.L123:
 795:../../Drivers/STM32L5xx_HAL_Driver/Src/stm32l5xx_hal_gtzc.c ****   }
 1240              		.loc 1 795 14 view .LVU375
 1241 004e 4FF4403C 		mov	ip, #196608
 794:../../Drivers/STM32L5xx_HAL_Driver/Src/stm32l5xx_hal_gtzc.c ****     mem_size = GTZC_MEM_SIZE(SRAM1);
 1242              		.loc 1 794 15 view .LVU376
 1243 0052 0D4C     		ldr	r4, .L124+8
 1244 0054 E8E7     		b	.L114
 1245              	.L119:
 795:../../Drivers/STM32L5xx_HAL_Driver/Src/stm32l5xx_hal_gtzc.c ****   }
 1246              		.loc 1 795 14 view .LVU377
 1247 0056 4FF4403C 		mov	ip, #196608
 794:../../Drivers/STM32L5xx_HAL_Driver/Src/stm32l5xx_hal_gtzc.c ****     mem_size = GTZC_MEM_SIZE(SRAM1);
 1248              		.loc 1 794 15 view .LVU378
 1249 005a 0B4C     		ldr	r4, .L124+8
 1250 005c E4E7     		b	.L114
 1251              	.LVL115:
 1252              	.L118:
 814:../../Drivers/STM32L5xx_HAL_Driver/Src/stm32l5xx_hal_gtzc.c ****   {
 815:../../Drivers/STM32L5xx_HAL_Driver/Src/stm32l5xx_hal_gtzc.c ****     pMPCBB_desc->AttributeConfig.MPCBB_SecConfig_array[i] = mpcbb_ptr->VCTR[i];
 1253              		.loc 1 815 5 is_stmt 1 discriminator 3 view .LVU379
 1254              		.loc 1 815 76 is_stmt 0 discriminator 3 view .LVU380
 1255 005e 03F14002 		add	r2, r3, #64
 1256 0062 54F82200 		ldr	r0, [r4, r2, lsl #2]
 1257              		.loc 1 815 59 discriminator 3 view .LVU381
 1258 0066 9A1C     		adds	r2, r3, #2
 1259 0068 41F82200 		str	r0, [r1, r2, lsl #2]
 813:../../Drivers/STM32L5xx_HAL_Driver/Src/stm32l5xx_hal_gtzc.c ****   {
 1260              		.loc 1 813 42 is_stmt 1 discriminator 3 view .LVU382
 1261 006c 0133     		adds	r3, r3, #1
 1262              	.LVL116:
 1263              	.L117:
 813:../../Drivers/STM32L5xx_HAL_Driver/Src/stm32l5xx_hal_gtzc.c ****   {
 1264              		.loc 1 813 18 discriminator 1 view .LVU383
ARM GAS  /tmp/cczkRLel.s 			page 40


 1265 006e 9C45     		cmp	ip, r3
 1266 0070 F5D8     		bhi	.L118
 816:../../Drivers/STM32L5xx_HAL_Driver/Src/stm32l5xx_hal_gtzc.c ****   }
 817:../../Drivers/STM32L5xx_HAL_Driver/Src/stm32l5xx_hal_gtzc.c **** 
 818:../../Drivers/STM32L5xx_HAL_Driver/Src/stm32l5xx_hal_gtzc.c ****   return HAL_OK;
 1267              		.loc 1 818 10 is_stmt 0 view .LVU384
 1268 0072 0020     		movs	r0, #0
 1269              	.LVL117:
 1270              	.L116:
 819:../../Drivers/STM32L5xx_HAL_Driver/Src/stm32l5xx_hal_gtzc.c **** }
 1271              		.loc 1 819 1 view .LVU385
 1272 0074 5DF8044B 		ldr	r4, [sp], #4
 1273              	.LCFI15:
 1274              		.cfi_remember_state
 1275              		.cfi_restore 4
 1276              		.cfi_def_cfa_offset 0
 1277 0078 7047     		bx	lr
 1278              	.LVL118:
 1279              	.L120:
 1280              	.LCFI16:
 1281              		.cfi_restore_state
 787:../../Drivers/STM32L5xx_HAL_Driver/Src/stm32l5xx_hal_gtzc.c ****   }
 1282              		.loc 1 787 12 view .LVU386
 1283 007a 0120     		movs	r0, #1
 1284              	.LVL119:
 787:../../Drivers/STM32L5xx_HAL_Driver/Src/stm32l5xx_hal_gtzc.c ****   }
 1285              		.loc 1 787 12 view .LVU387
 1286 007c FAE7     		b	.L116
 1287              	.L125:
 1288 007e 00BF     		.align	2
 1289              	.L124:
 1290 0080 00000320 		.word	537067520
 1291 0084 00300350 		.word	1342386176
 1292 0088 002C0350 		.word	1342385152
 1293              		.cfi_endproc
 1294              	.LFE209:
 1296              		.section	.text.HAL_GTZC_MPCBB_ConfigMemAttributes,"ax",%progbits
 1297              		.align	1
 1298              		.global	HAL_GTZC_MPCBB_ConfigMemAttributes
 1299              		.syntax unified
 1300              		.thumb
 1301              		.thumb_func
 1303              	HAL_GTZC_MPCBB_ConfigMemAttributes:
 1304              	.LVL120:
 1305              	.LFB210:
 820:../../Drivers/STM32L5xx_HAL_Driver/Src/stm32l5xx_hal_gtzc.c **** 
 821:../../Drivers/STM32L5xx_HAL_Driver/Src/stm32l5xx_hal_gtzc.c **** /**
 822:../../Drivers/STM32L5xx_HAL_Driver/Src/stm32l5xx_hal_gtzc.c ****   * @brief  Set a MPCBB attribute configuration on the SRAM passed as parameter
 823:../../Drivers/STM32L5xx_HAL_Driver/Src/stm32l5xx_hal_gtzc.c ****   *         for a number of blocks.
 824:../../Drivers/STM32L5xx_HAL_Driver/Src/stm32l5xx_hal_gtzc.c ****   * @param  MemAddress MPCBB identifier, and start block to configure
 825:../../Drivers/STM32L5xx_HAL_Driver/Src/stm32l5xx_hal_gtzc.c ****   *         (must be 256 Bytes aligned).
 826:../../Drivers/STM32L5xx_HAL_Driver/Src/stm32l5xx_hal_gtzc.c ****   * @param  NbBlocks Number of blocks to configure.
 827:../../Drivers/STM32L5xx_HAL_Driver/Src/stm32l5xx_hal_gtzc.c ****   * @param  pMemAttributes pointer to an array (containing "NbBlocks" elements),
 828:../../Drivers/STM32L5xx_HAL_Driver/Src/stm32l5xx_hal_gtzc.c ****   *         with each element must be GTZC_MCPBB_BLOCK_NSEC or GTZC_MCPBB_BLOCK_SEC.
 829:../../Drivers/STM32L5xx_HAL_Driver/Src/stm32l5xx_hal_gtzc.c ****   * @retval HAL status.
 830:../../Drivers/STM32L5xx_HAL_Driver/Src/stm32l5xx_hal_gtzc.c ****   */
 831:../../Drivers/STM32L5xx_HAL_Driver/Src/stm32l5xx_hal_gtzc.c **** HAL_StatusTypeDef HAL_GTZC_MPCBB_ConfigMemAttributes(uint32_t MemAddress,
ARM GAS  /tmp/cczkRLel.s 			page 41


 832:../../Drivers/STM32L5xx_HAL_Driver/Src/stm32l5xx_hal_gtzc.c ****                                                      uint32_t NbBlocks,
 833:../../Drivers/STM32L5xx_HAL_Driver/Src/stm32l5xx_hal_gtzc.c ****                                                      const uint32_t *pMemAttributes)
 834:../../Drivers/STM32L5xx_HAL_Driver/Src/stm32l5xx_hal_gtzc.c **** {
 1306              		.loc 1 834 1 is_stmt 1 view -0
 1307              		.cfi_startproc
 1308              		@ args = 0, pretend = 0, frame = 0
 1309              		@ frame_needed = 0, uses_anonymous_args = 0
 1310              		.loc 1 834 1 is_stmt 0 view .LVU389
 1311 0000 2DE9F041 		push	{r4, r5, r6, r7, r8, lr}
 1312              	.LCFI17:
 1313              		.cfi_def_cfa_offset 24
 1314              		.cfi_offset 4, -24
 1315              		.cfi_offset 5, -20
 1316              		.cfi_offset 6, -16
 1317              		.cfi_offset 7, -12
 1318              		.cfi_offset 8, -8
 1319              		.cfi_offset 14, -4
 835:../../Drivers/STM32L5xx_HAL_Driver/Src/stm32l5xx_hal_gtzc.c ****   GTZC_MPCBB_TypeDef *mpcbb_ptr;
 1320              		.loc 1 835 3 is_stmt 1 view .LVU390
 836:../../Drivers/STM32L5xx_HAL_Driver/Src/stm32l5xx_hal_gtzc.c ****   uint32_t base_address, end_address;
 1321              		.loc 1 836 3 view .LVU391
 837:../../Drivers/STM32L5xx_HAL_Driver/Src/stm32l5xx_hal_gtzc.c ****   uint32_t block_start, offset_reg_start, offset_bit_start;
 1322              		.loc 1 837 3 view .LVU392
 838:../../Drivers/STM32L5xx_HAL_Driver/Src/stm32l5xx_hal_gtzc.c ****   uint32_t i;
 1323              		.loc 1 838 3 view .LVU393
 839:../../Drivers/STM32L5xx_HAL_Driver/Src/stm32l5xx_hal_gtzc.c **** 
 840:../../Drivers/STM32L5xx_HAL_Driver/Src/stm32l5xx_hal_gtzc.c ****   /* firstly check that MemAddress is well 256 Bytes aligned */
 841:../../Drivers/STM32L5xx_HAL_Driver/Src/stm32l5xx_hal_gtzc.c ****   if ((MemAddress % GTZC_MPCBB_BLOCK_SIZE) != 0U)
 1324              		.loc 1 841 3 view .LVU394
 1325              		.loc 1 841 6 is_stmt 0 view .LVU395
 1326 0004 10F0FF06 		ands	r6, r0, #255
 1327 0008 75D1     		bne	.L138
 842:../../Drivers/STM32L5xx_HAL_Driver/Src/stm32l5xx_hal_gtzc.c ****   {
 843:../../Drivers/STM32L5xx_HAL_Driver/Src/stm32l5xx_hal_gtzc.c ****     return HAL_ERROR;
 844:../../Drivers/STM32L5xx_HAL_Driver/Src/stm32l5xx_hal_gtzc.c ****   }
 845:../../Drivers/STM32L5xx_HAL_Driver/Src/stm32l5xx_hal_gtzc.c **** 
 846:../../Drivers/STM32L5xx_HAL_Driver/Src/stm32l5xx_hal_gtzc.c ****   /* check entry parameters and deduce physical base address */
 847:../../Drivers/STM32L5xx_HAL_Driver/Src/stm32l5xx_hal_gtzc.c ****   end_address = MemAddress + (NbBlocks * GTZC_MPCBB_BLOCK_SIZE) - 1U;
 1328              		.loc 1 847 3 is_stmt 1 view .LVU396
 1329              		.loc 1 847 28 is_stmt 0 view .LVU397
 1330 000a 00EB0123 		add	r3, r0, r1, lsl #8
 1331              	.LVL121:
 848:../../Drivers/STM32L5xx_HAL_Driver/Src/stm32l5xx_hal_gtzc.c ****   if (((IS_ADDRESS_IN_NS(SRAM1, MemAddress))
 1332              		.loc 1 848 3 is_stmt 1 view .LVU398
 1333              		.loc 1 848 9 is_stmt 0 view .LVU399
 1334 000e 00F16044 		add	r4, r0, #-536870912
 849:../../Drivers/STM32L5xx_HAL_Driver/Src/stm32l5xx_hal_gtzc.c ****        && (IS_ADDRESS_IN_NS(SRAM1, end_address))) != 0U)
 1335              		.loc 1 849 8 view .LVU400
 1336 0012 B4F5403F 		cmp	r4, #196608
 1337 0016 05D2     		bcs	.L128
 1338              		.loc 1 849 12 discriminator 1 view .LVU401
 1339 0018 03F16044 		add	r4, r3, #-536870912
 1340 001c 013C     		subs	r4, r4, #1
 1341              		.loc 1 849 8 discriminator 1 view .LVU402
 1342 001e B4F5403F 		cmp	r4, #196608
 1343 0022 25D3     		bcc	.L139
 1344              	.L128:
ARM GAS  /tmp/cczkRLel.s 			page 42


 850:../../Drivers/STM32L5xx_HAL_Driver/Src/stm32l5xx_hal_gtzc.c ****   {
 851:../../Drivers/STM32L5xx_HAL_Driver/Src/stm32l5xx_hal_gtzc.c ****     mpcbb_ptr = GTZC_MPCBB1_S;
 852:../../Drivers/STM32L5xx_HAL_Driver/Src/stm32l5xx_hal_gtzc.c ****     base_address = SRAM1_BASE_NS;
 853:../../Drivers/STM32L5xx_HAL_Driver/Src/stm32l5xx_hal_gtzc.c ****   }
 854:../../Drivers/STM32L5xx_HAL_Driver/Src/stm32l5xx_hal_gtzc.c ****   else if (((IS_ADDRESS_IN_S(SRAM1, MemAddress))
 1345              		.loc 1 854 8 is_stmt 1 view .LVU403
 1346              		.loc 1 854 14 is_stmt 0 view .LVU404
 1347 0024 00F15044 		add	r4, r0, #-805306368
 855:../../Drivers/STM32L5xx_HAL_Driver/Src/stm32l5xx_hal_gtzc.c ****             && (IS_ADDRESS_IN_S(SRAM1, end_address))) != 0U)
 1348              		.loc 1 855 13 view .LVU405
 1349 0028 B4F5403F 		cmp	r4, #196608
 1350 002c 05D2     		bcs	.L130
 1351              		.loc 1 855 17 discriminator 1 view .LVU406
 1352 002e 03F15044 		add	r4, r3, #-805306368
 1353 0032 013C     		subs	r4, r4, #1
 1354              		.loc 1 855 13 discriminator 1 view .LVU407
 1355 0034 B4F5403F 		cmp	r4, #196608
 1356 0038 23D3     		bcc	.L140
 1357              	.L130:
 856:../../Drivers/STM32L5xx_HAL_Driver/Src/stm32l5xx_hal_gtzc.c ****   {
 857:../../Drivers/STM32L5xx_HAL_Driver/Src/stm32l5xx_hal_gtzc.c ****     mpcbb_ptr = GTZC_MPCBB1_S;
 858:../../Drivers/STM32L5xx_HAL_Driver/Src/stm32l5xx_hal_gtzc.c ****     base_address = SRAM1_BASE_S;
 859:../../Drivers/STM32L5xx_HAL_Driver/Src/stm32l5xx_hal_gtzc.c ****   }
 860:../../Drivers/STM32L5xx_HAL_Driver/Src/stm32l5xx_hal_gtzc.c ****   else if (((IS_ADDRESS_IN_NS(SRAM2, MemAddress))
 1358              		.loc 1 860 8 is_stmt 1 view .LVU408
 1359              		.loc 1 860 14 is_stmt 0 view .LVU409
 1360 003a 00F15F44 		add	r4, r0, #-553648128
 1361 003e 04F57D04 		add	r4, r4, #16580608
 861:../../Drivers/STM32L5xx_HAL_Driver/Src/stm32l5xx_hal_gtzc.c ****             && (IS_ADDRESS_IN_NS(SRAM2, end_address))) != 0U)
 1362              		.loc 1 861 13 view .LVU410
 1363 0042 B4F5803F 		cmp	r4, #65536
 1364 0046 04D2     		bcs	.L131
 1365              		.loc 1 861 17 discriminator 1 view .LVU411
 1366 0048 2F4C     		ldr	r4, .L148
 1367 004a 1C44     		add	r4, r4, r3
 1368              		.loc 1 861 13 discriminator 1 view .LVU412
 1369 004c B4F5803F 		cmp	r4, #65536
 1370 0050 1BD3     		bcc	.L141
 1371              	.L131:
 862:../../Drivers/STM32L5xx_HAL_Driver/Src/stm32l5xx_hal_gtzc.c ****   {
 863:../../Drivers/STM32L5xx_HAL_Driver/Src/stm32l5xx_hal_gtzc.c ****     mpcbb_ptr = GTZC_MPCBB2_S;
 864:../../Drivers/STM32L5xx_HAL_Driver/Src/stm32l5xx_hal_gtzc.c ****     base_address = SRAM2_BASE_NS;
 865:../../Drivers/STM32L5xx_HAL_Driver/Src/stm32l5xx_hal_gtzc.c ****   }
 866:../../Drivers/STM32L5xx_HAL_Driver/Src/stm32l5xx_hal_gtzc.c ****   else if (((IS_ADDRESS_IN_S(SRAM2, MemAddress))
 1372              		.loc 1 866 8 is_stmt 1 view .LVU413
 1373              		.loc 1 866 14 is_stmt 0 view .LVU414
 1374 0052 00F14F44 		add	r4, r0, #-822083584
 1375 0056 04F57D04 		add	r4, r4, #16580608
 867:../../Drivers/STM32L5xx_HAL_Driver/Src/stm32l5xx_hal_gtzc.c ****             && (IS_ADDRESS_IN_S(SRAM2, end_address))) != 0U)
 1376              		.loc 1 867 13 view .LVU415
 1377 005a B4F5803F 		cmp	r4, #65536
 1378 005e 4DD2     		bcs	.L142
 1379              		.loc 1 867 17 discriminator 1 view .LVU416
 1380 0060 2A4C     		ldr	r4, .L148+4
 1381 0062 1C44     		add	r4, r4, r3
 1382              		.loc 1 867 13 discriminator 1 view .LVU417
 1383 0064 B4F5803F 		cmp	r4, #65536
ARM GAS  /tmp/cczkRLel.s 			page 43


 1384 0068 4AD2     		bcs	.L143
 868:../../Drivers/STM32L5xx_HAL_Driver/Src/stm32l5xx_hal_gtzc.c ****   {
 869:../../Drivers/STM32L5xx_HAL_Driver/Src/stm32l5xx_hal_gtzc.c ****     mpcbb_ptr = GTZC_MPCBB2_S;
 870:../../Drivers/STM32L5xx_HAL_Driver/Src/stm32l5xx_hal_gtzc.c ****     base_address = SRAM2_BASE_S;
 1385              		.loc 1 870 18 view .LVU418
 1386 006a 294B     		ldr	r3, .L148+8
 1387              	.LVL122:
 869:../../Drivers/STM32L5xx_HAL_Driver/Src/stm32l5xx_hal_gtzc.c ****     base_address = SRAM2_BASE_S;
 1388              		.loc 1 869 15 view .LVU419
 1389 006c 294D     		ldr	r5, .L148+12
 1390 006e 02E0     		b	.L129
 1391              	.LVL123:
 1392              	.L139:
 852:../../Drivers/STM32L5xx_HAL_Driver/Src/stm32l5xx_hal_gtzc.c ****   }
 1393              		.loc 1 852 18 view .LVU420
 1394 0070 4FF00053 		mov	r3, #536870912
 1395              	.LVL124:
 851:../../Drivers/STM32L5xx_HAL_Driver/Src/stm32l5xx_hal_gtzc.c ****     base_address = SRAM1_BASE_NS;
 1396              		.loc 1 851 15 view .LVU421
 1397 0074 284D     		ldr	r5, .L148+16
 1398              	.LVL125:
 1399              	.L129:
 871:../../Drivers/STM32L5xx_HAL_Driver/Src/stm32l5xx_hal_gtzc.c ****   }
 872:../../Drivers/STM32L5xx_HAL_Driver/Src/stm32l5xx_hal_gtzc.c ****   else
 873:../../Drivers/STM32L5xx_HAL_Driver/Src/stm32l5xx_hal_gtzc.c ****   {
 874:../../Drivers/STM32L5xx_HAL_Driver/Src/stm32l5xx_hal_gtzc.c ****     return HAL_ERROR;
 875:../../Drivers/STM32L5xx_HAL_Driver/Src/stm32l5xx_hal_gtzc.c ****   }
 876:../../Drivers/STM32L5xx_HAL_Driver/Src/stm32l5xx_hal_gtzc.c **** 
 877:../../Drivers/STM32L5xx_HAL_Driver/Src/stm32l5xx_hal_gtzc.c ****   /* get start coordinates of the configuration */
 878:../../Drivers/STM32L5xx_HAL_Driver/Src/stm32l5xx_hal_gtzc.c ****   block_start = (MemAddress - base_address) / GTZC_MPCBB_BLOCK_SIZE;
 1400              		.loc 1 878 3 is_stmt 1 view .LVU422
 1401              		.loc 1 878 29 is_stmt 0 view .LVU423
 1402 0076 C01A     		subs	r0, r0, r3
 1403              	.LVL126:
 879:../../Drivers/STM32L5xx_HAL_Driver/Src/stm32l5xx_hal_gtzc.c ****   offset_reg_start = block_start / 32U;
 1404              		.loc 1 879 3 is_stmt 1 view .LVU424
 1405              		.loc 1 879 20 is_stmt 0 view .LVU425
 1406 0078 470B     		lsrs	r7, r0, #13
 1407              	.LVL127:
 880:../../Drivers/STM32L5xx_HAL_Driver/Src/stm32l5xx_hal_gtzc.c ****   offset_bit_start = block_start % 32U;
 1408              		.loc 1 880 3 is_stmt 1 view .LVU426
 1409              		.loc 1 880 20 is_stmt 0 view .LVU427
 1410 007a C0F30420 		ubfx	r0, r0, #8, #5
 1411              	.LVL128:
 881:../../Drivers/STM32L5xx_HAL_Driver/Src/stm32l5xx_hal_gtzc.c **** 
 882:../../Drivers/STM32L5xx_HAL_Driver/Src/stm32l5xx_hal_gtzc.c ****   for (i = 0U; i < NbBlocks; i++)
 1412              		.loc 1 882 3 is_stmt 1 view .LVU428
 1413              		.loc 1 882 10 is_stmt 0 view .LVU429
 1414 007e 3346     		mov	r3, r6
 1415              	.LVL129:
 1416              		.loc 1 882 3 view .LVU430
 1417 0080 18E0     		b	.L132
 1418              	.LVL130:
 1419              	.L140:
 858:../../Drivers/STM32L5xx_HAL_Driver/Src/stm32l5xx_hal_gtzc.c ****   }
 1420              		.loc 1 858 18 view .LVU431
 1421 0082 4FF04053 		mov	r3, #805306368
ARM GAS  /tmp/cczkRLel.s 			page 44


 1422              	.LVL131:
 857:../../Drivers/STM32L5xx_HAL_Driver/Src/stm32l5xx_hal_gtzc.c ****     base_address = SRAM1_BASE_S;
 1423              		.loc 1 857 15 view .LVU432
 1424 0086 244D     		ldr	r5, .L148+16
 1425 0088 F5E7     		b	.L129
 1426              	.LVL132:
 1427              	.L141:
 864:../../Drivers/STM32L5xx_HAL_Driver/Src/stm32l5xx_hal_gtzc.c ****   }
 1428              		.loc 1 864 18 view .LVU433
 1429 008a 244B     		ldr	r3, .L148+20
 1430              	.LVL133:
 863:../../Drivers/STM32L5xx_HAL_Driver/Src/stm32l5xx_hal_gtzc.c ****     base_address = SRAM2_BASE_NS;
 1431              		.loc 1 863 15 view .LVU434
 1432 008c 214D     		ldr	r5, .L148+12
 1433 008e F2E7     		b	.L129
 1434              	.LVL134:
 1435              	.L147:
 883:../../Drivers/STM32L5xx_HAL_Driver/Src/stm32l5xx_hal_gtzc.c ****   {
 884:../../Drivers/STM32L5xx_HAL_Driver/Src/stm32l5xx_hal_gtzc.c ****     if (pMemAttributes[i] == GTZC_MCPBB_BLOCK_SEC)
 885:../../Drivers/STM32L5xx_HAL_Driver/Src/stm32l5xx_hal_gtzc.c ****     {
 886:../../Drivers/STM32L5xx_HAL_Driver/Src/stm32l5xx_hal_gtzc.c ****       SET_BIT(mpcbb_ptr->VCTR[offset_reg_start],
 1436              		.loc 1 886 7 is_stmt 1 view .LVU435
 1437 0090 07F1400E 		add	lr, r7, #64
 1438 0094 55F82E40 		ldr	r4, [r5, lr, lsl #2]
 1439 0098 00F01F08 		and	r8, r0, #31
 1440 009c 4FF0010C 		mov	ip, #1
 1441 00a0 0CFA08FC 		lsl	ip, ip, r8
 1442 00a4 44EA0C04 		orr	r4, r4, ip
 1443 00a8 45F82E40 		str	r4, [r5, lr, lsl #2]
 1444              	.L134:
 887:../../Drivers/STM32L5xx_HAL_Driver/Src/stm32l5xx_hal_gtzc.c ****               1UL << (offset_bit_start % 32U));
 888:../../Drivers/STM32L5xx_HAL_Driver/Src/stm32l5xx_hal_gtzc.c ****     }
 889:../../Drivers/STM32L5xx_HAL_Driver/Src/stm32l5xx_hal_gtzc.c ****     else if (pMemAttributes[i] == GTZC_MCPBB_BLOCK_NSEC)
 890:../../Drivers/STM32L5xx_HAL_Driver/Src/stm32l5xx_hal_gtzc.c ****     {
 891:../../Drivers/STM32L5xx_HAL_Driver/Src/stm32l5xx_hal_gtzc.c ****       CLEAR_BIT(mpcbb_ptr->VCTR[offset_reg_start],
 892:../../Drivers/STM32L5xx_HAL_Driver/Src/stm32l5xx_hal_gtzc.c ****                 1UL << (offset_bit_start % 32U));
 893:../../Drivers/STM32L5xx_HAL_Driver/Src/stm32l5xx_hal_gtzc.c ****     }
 894:../../Drivers/STM32L5xx_HAL_Driver/Src/stm32l5xx_hal_gtzc.c ****     else
 895:../../Drivers/STM32L5xx_HAL_Driver/Src/stm32l5xx_hal_gtzc.c ****     {
 896:../../Drivers/STM32L5xx_HAL_Driver/Src/stm32l5xx_hal_gtzc.c ****       break;
 897:../../Drivers/STM32L5xx_HAL_Driver/Src/stm32l5xx_hal_gtzc.c ****     }
 898:../../Drivers/STM32L5xx_HAL_Driver/Src/stm32l5xx_hal_gtzc.c **** 
 899:../../Drivers/STM32L5xx_HAL_Driver/Src/stm32l5xx_hal_gtzc.c ****     offset_bit_start++;
 1445              		.loc 1 899 5 view .LVU436
 1446              		.loc 1 899 21 is_stmt 0 view .LVU437
 1447 00ac 0130     		adds	r0, r0, #1
 1448              	.LVL135:
 900:../../Drivers/STM32L5xx_HAL_Driver/Src/stm32l5xx_hal_gtzc.c ****     if (offset_bit_start == 32U)
 1449              		.loc 1 900 5 is_stmt 1 view .LVU438
 1450              		.loc 1 900 8 is_stmt 0 view .LVU439
 1451 00ae 2028     		cmp	r0, #32
 1452 00b0 1AD0     		beq	.L146
 1453              	.LVL136:
 1454              	.L136:
 882:../../Drivers/STM32L5xx_HAL_Driver/Src/stm32l5xx_hal_gtzc.c ****   {
 1455              		.loc 1 882 31 is_stmt 1 discriminator 2 view .LVU440
 1456 00b2 0133     		adds	r3, r3, #1
ARM GAS  /tmp/cczkRLel.s 			page 45


 1457              	.LVL137:
 1458              	.L132:
 882:../../Drivers/STM32L5xx_HAL_Driver/Src/stm32l5xx_hal_gtzc.c ****   {
 1459              		.loc 1 882 18 discriminator 1 view .LVU441
 1460 00b4 8B42     		cmp	r3, r1
 1461 00b6 1AD2     		bcs	.L135
 884:../../Drivers/STM32L5xx_HAL_Driver/Src/stm32l5xx_hal_gtzc.c ****     {
 1462              		.loc 1 884 5 view .LVU442
 884:../../Drivers/STM32L5xx_HAL_Driver/Src/stm32l5xx_hal_gtzc.c ****     {
 1463              		.loc 1 884 23 is_stmt 0 view .LVU443
 1464 00b8 52F82340 		ldr	r4, [r2, r3, lsl #2]
 884:../../Drivers/STM32L5xx_HAL_Driver/Src/stm32l5xx_hal_gtzc.c ****     {
 1465              		.loc 1 884 8 view .LVU444
 1466 00bc 40F2011C 		movw	ip, #257
 1467 00c0 6445     		cmp	r4, ip
 1468 00c2 E5D0     		beq	.L147
 889:../../Drivers/STM32L5xx_HAL_Driver/Src/stm32l5xx_hal_gtzc.c ****     {
 1469              		.loc 1 889 10 is_stmt 1 view .LVU445
 889:../../Drivers/STM32L5xx_HAL_Driver/Src/stm32l5xx_hal_gtzc.c ****     {
 1470              		.loc 1 889 13 is_stmt 0 view .LVU446
 1471 00c4 B4F5807F 		cmp	r4, #256
 1472 00c8 11D1     		bne	.L135
 891:../../Drivers/STM32L5xx_HAL_Driver/Src/stm32l5xx_hal_gtzc.c ****                 1UL << (offset_bit_start % 32U));
 1473              		.loc 1 891 7 is_stmt 1 view .LVU447
 1474 00ca 07F1400E 		add	lr, r7, #64
 1475 00ce 55F82E40 		ldr	r4, [r5, lr, lsl #2]
 1476 00d2 00F01F08 		and	r8, r0, #31
 1477 00d6 4FF0010C 		mov	ip, #1
 1478 00da 0CFA08FC 		lsl	ip, ip, r8
 1479 00de 24EA0C04 		bic	r4, r4, ip
 1480 00e2 45F82E40 		str	r4, [r5, lr, lsl #2]
 1481 00e6 E1E7     		b	.L134
 1482              	.L146:
 901:../../Drivers/STM32L5xx_HAL_Driver/Src/stm32l5xx_hal_gtzc.c ****     {
 902:../../Drivers/STM32L5xx_HAL_Driver/Src/stm32l5xx_hal_gtzc.c ****       offset_bit_start = 0U;
 1483              		.loc 1 902 7 view .LVU448
 1484              	.LVL138:
 903:../../Drivers/STM32L5xx_HAL_Driver/Src/stm32l5xx_hal_gtzc.c ****       offset_reg_start++;
 1485              		.loc 1 903 7 view .LVU449
 1486              		.loc 1 903 23 is_stmt 0 view .LVU450
 1487 00e8 0137     		adds	r7, r7, #1
 1488              	.LVL139:
 902:../../Drivers/STM32L5xx_HAL_Driver/Src/stm32l5xx_hal_gtzc.c ****       offset_reg_start++;
 1489              		.loc 1 902 24 view .LVU451
 1490 00ea 3046     		mov	r0, r6
 1491 00ec E1E7     		b	.L136
 1492              	.LVL140:
 1493              	.L135:
 904:../../Drivers/STM32L5xx_HAL_Driver/Src/stm32l5xx_hal_gtzc.c ****     }
 905:../../Drivers/STM32L5xx_HAL_Driver/Src/stm32l5xx_hal_gtzc.c ****   }
 906:../../Drivers/STM32L5xx_HAL_Driver/Src/stm32l5xx_hal_gtzc.c **** 
 907:../../Drivers/STM32L5xx_HAL_Driver/Src/stm32l5xx_hal_gtzc.c ****   /* an unexpected value in pMemAttributes array leads to error status */
 908:../../Drivers/STM32L5xx_HAL_Driver/Src/stm32l5xx_hal_gtzc.c ****   if (i != NbBlocks)
 1494              		.loc 1 908 3 is_stmt 1 view .LVU452
 1495              		.loc 1 908 6 is_stmt 0 view .LVU453
 1496 00ee 8B42     		cmp	r3, r1
 1497 00f0 08D1     		bne	.L144
ARM GAS  /tmp/cczkRLel.s 			page 46


 909:../../Drivers/STM32L5xx_HAL_Driver/Src/stm32l5xx_hal_gtzc.c ****   {
 910:../../Drivers/STM32L5xx_HAL_Driver/Src/stm32l5xx_hal_gtzc.c ****     return HAL_ERROR;
 911:../../Drivers/STM32L5xx_HAL_Driver/Src/stm32l5xx_hal_gtzc.c ****   }
 912:../../Drivers/STM32L5xx_HAL_Driver/Src/stm32l5xx_hal_gtzc.c **** 
 913:../../Drivers/STM32L5xx_HAL_Driver/Src/stm32l5xx_hal_gtzc.c ****   return HAL_OK;
 1498              		.loc 1 913 10 view .LVU454
 1499 00f2 0020     		movs	r0, #0
 1500              	.LVL141:
 1501              		.loc 1 913 10 view .LVU455
 1502 00f4 00E0     		b	.L127
 1503              	.LVL142:
 1504              	.L138:
 843:../../Drivers/STM32L5xx_HAL_Driver/Src/stm32l5xx_hal_gtzc.c ****   }
 1505              		.loc 1 843 12 view .LVU456
 1506 00f6 0120     		movs	r0, #1
 1507              	.LVL143:
 1508              	.L127:
 914:../../Drivers/STM32L5xx_HAL_Driver/Src/stm32l5xx_hal_gtzc.c **** }
 1509              		.loc 1 914 1 view .LVU457
 1510 00f8 BDE8F081 		pop	{r4, r5, r6, r7, r8, pc}
 1511              	.LVL144:
 1512              	.L142:
 874:../../Drivers/STM32L5xx_HAL_Driver/Src/stm32l5xx_hal_gtzc.c ****   }
 1513              		.loc 1 874 12 view .LVU458
 1514 00fc 0120     		movs	r0, #1
 1515              	.LVL145:
 874:../../Drivers/STM32L5xx_HAL_Driver/Src/stm32l5xx_hal_gtzc.c ****   }
 1516              		.loc 1 874 12 view .LVU459
 1517 00fe FBE7     		b	.L127
 1518              	.LVL146:
 1519              	.L143:
 874:../../Drivers/STM32L5xx_HAL_Driver/Src/stm32l5xx_hal_gtzc.c ****   }
 1520              		.loc 1 874 12 view .LVU460
 1521 0100 0120     		movs	r0, #1
 1522              	.LVL147:
 874:../../Drivers/STM32L5xx_HAL_Driver/Src/stm32l5xx_hal_gtzc.c ****   }
 1523              		.loc 1 874 12 view .LVU461
 1524 0102 F9E7     		b	.L127
 1525              	.LVL148:
 1526              	.L144:
 910:../../Drivers/STM32L5xx_HAL_Driver/Src/stm32l5xx_hal_gtzc.c ****   }
 1527              		.loc 1 910 12 view .LVU462
 1528 0104 0120     		movs	r0, #1
 1529              	.LVL149:
 910:../../Drivers/STM32L5xx_HAL_Driver/Src/stm32l5xx_hal_gtzc.c ****   }
 1530              		.loc 1 910 12 view .LVU463
 1531 0106 F7E7     		b	.L127
 1532              	.L149:
 1533              		.align	2
 1534              	.L148:
 1535 0108 FFFFFCDF 		.word	-537067521
 1536 010c FFFFFCCF 		.word	-805502977
 1537 0110 00000330 		.word	805502976
 1538 0114 00300350 		.word	1342386176
 1539 0118 002C0350 		.word	1342385152
 1540 011c 00000320 		.word	537067520
 1541              		.cfi_endproc
ARM GAS  /tmp/cczkRLel.s 			page 47


 1542              	.LFE210:
 1544              		.section	.text.HAL_GTZC_MPCBB_GetConfigMemAttributes,"ax",%progbits
 1545              		.align	1
 1546              		.global	HAL_GTZC_MPCBB_GetConfigMemAttributes
 1547              		.syntax unified
 1548              		.thumb
 1549              		.thumb_func
 1551              	HAL_GTZC_MPCBB_GetConfigMemAttributes:
 1552              	.LVL150:
 1553              	.LFB211:
 915:../../Drivers/STM32L5xx_HAL_Driver/Src/stm32l5xx_hal_gtzc.c **** 
 916:../../Drivers/STM32L5xx_HAL_Driver/Src/stm32l5xx_hal_gtzc.c **** /**
 917:../../Drivers/STM32L5xx_HAL_Driver/Src/stm32l5xx_hal_gtzc.c ****   * @brief  Get a MPCBB attribute configuration on the SRAM passed as parameter
 918:../../Drivers/STM32L5xx_HAL_Driver/Src/stm32l5xx_hal_gtzc.c ****   *         for a number of blocks.
 919:../../Drivers/STM32L5xx_HAL_Driver/Src/stm32l5xx_hal_gtzc.c ****   * @param  MemAddress MPCBB identifier, and start block to get configuration
 920:../../Drivers/STM32L5xx_HAL_Driver/Src/stm32l5xx_hal_gtzc.c ****   *         (must be 256 Bytes aligned).
 921:../../Drivers/STM32L5xx_HAL_Driver/Src/stm32l5xx_hal_gtzc.c ****   * @param  NbBlocks Number of blocks to get configuration.
 922:../../Drivers/STM32L5xx_HAL_Driver/Src/stm32l5xx_hal_gtzc.c ****   * @param  pMemAttributes pointer to an array (containing "NbBlocks" elements),
 923:../../Drivers/STM32L5xx_HAL_Driver/Src/stm32l5xx_hal_gtzc.c ****   *         with each element will be GTZC_MCPBB_BLOCK_NSEC or GTZC_MCPBB_BLOCK_SEC.
 924:../../Drivers/STM32L5xx_HAL_Driver/Src/stm32l5xx_hal_gtzc.c ****   * @retval HAL status.
 925:../../Drivers/STM32L5xx_HAL_Driver/Src/stm32l5xx_hal_gtzc.c ****   */
 926:../../Drivers/STM32L5xx_HAL_Driver/Src/stm32l5xx_hal_gtzc.c **** HAL_StatusTypeDef HAL_GTZC_MPCBB_GetConfigMemAttributes(uint32_t MemAddress,
 927:../../Drivers/STM32L5xx_HAL_Driver/Src/stm32l5xx_hal_gtzc.c ****                                                         uint32_t NbBlocks,
 928:../../Drivers/STM32L5xx_HAL_Driver/Src/stm32l5xx_hal_gtzc.c ****                                                         uint32_t *pMemAttributes)
 929:../../Drivers/STM32L5xx_HAL_Driver/Src/stm32l5xx_hal_gtzc.c **** {
 1554              		.loc 1 929 1 is_stmt 1 view -0
 1555              		.cfi_startproc
 1556              		@ args = 0, pretend = 0, frame = 0
 1557              		@ frame_needed = 0, uses_anonymous_args = 0
 1558              		.loc 1 929 1 is_stmt 0 view .LVU465
 1559 0000 F0B5     		push	{r4, r5, r6, r7, lr}
 1560              	.LCFI18:
 1561              		.cfi_def_cfa_offset 20
 1562              		.cfi_offset 4, -20
 1563              		.cfi_offset 5, -16
 1564              		.cfi_offset 6, -12
 1565              		.cfi_offset 7, -8
 1566              		.cfi_offset 14, -4
 930:../../Drivers/STM32L5xx_HAL_Driver/Src/stm32l5xx_hal_gtzc.c ****   GTZC_MPCBB_TypeDef *mpcbb_ptr;
 1567              		.loc 1 930 3 is_stmt 1 view .LVU466
 931:../../Drivers/STM32L5xx_HAL_Driver/Src/stm32l5xx_hal_gtzc.c ****   uint32_t base_address, end_address;
 1568              		.loc 1 931 3 view .LVU467
 932:../../Drivers/STM32L5xx_HAL_Driver/Src/stm32l5xx_hal_gtzc.c ****   uint32_t block_start, offset_reg_start, offset_bit_start;
 1569              		.loc 1 932 3 view .LVU468
 933:../../Drivers/STM32L5xx_HAL_Driver/Src/stm32l5xx_hal_gtzc.c ****   uint32_t i;
 1570              		.loc 1 933 3 view .LVU469
 934:../../Drivers/STM32L5xx_HAL_Driver/Src/stm32l5xx_hal_gtzc.c **** 
 935:../../Drivers/STM32L5xx_HAL_Driver/Src/stm32l5xx_hal_gtzc.c ****   /* firstly check that MemAddress is well 256 Bytes aligned */
 936:../../Drivers/STM32L5xx_HAL_Driver/Src/stm32l5xx_hal_gtzc.c ****   if ((MemAddress % GTZC_MPCBB_BLOCK_SIZE) != 0U)
 1571              		.loc 1 936 3 view .LVU470
 1572              		.loc 1 936 6 is_stmt 0 view .LVU471
 1573 0002 10F0FF06 		ands	r6, r0, #255
 1574 0006 5DD1     		bne	.L159
 937:../../Drivers/STM32L5xx_HAL_Driver/Src/stm32l5xx_hal_gtzc.c ****   {
 938:../../Drivers/STM32L5xx_HAL_Driver/Src/stm32l5xx_hal_gtzc.c ****     return HAL_ERROR;
 939:../../Drivers/STM32L5xx_HAL_Driver/Src/stm32l5xx_hal_gtzc.c ****   }
 940:../../Drivers/STM32L5xx_HAL_Driver/Src/stm32l5xx_hal_gtzc.c **** 
ARM GAS  /tmp/cczkRLel.s 			page 48


 941:../../Drivers/STM32L5xx_HAL_Driver/Src/stm32l5xx_hal_gtzc.c ****   /* check entry parameters and deduce physical base address */
 942:../../Drivers/STM32L5xx_HAL_Driver/Src/stm32l5xx_hal_gtzc.c ****   end_address = MemAddress + (NbBlocks * GTZC_MPCBB_BLOCK_SIZE) - 1U;
 1575              		.loc 1 942 3 is_stmt 1 view .LVU472
 1576              		.loc 1 942 28 is_stmt 0 view .LVU473
 1577 0008 00EB0123 		add	r3, r0, r1, lsl #8
 1578              	.LVL151:
 943:../../Drivers/STM32L5xx_HAL_Driver/Src/stm32l5xx_hal_gtzc.c ****   if ((IS_ADDRESS_IN_NS(SRAM1, MemAddress))
 1579              		.loc 1 943 3 is_stmt 1 view .LVU474
 1580              		.loc 1 943 8 is_stmt 0 view .LVU475
 1581 000c 00F16044 		add	r4, r0, #-536870912
 1582              		.loc 1 943 6 view .LVU476
 1583 0010 B4F5403F 		cmp	r4, #196608
 1584 0014 05D2     		bcs	.L152
 944:../../Drivers/STM32L5xx_HAL_Driver/Src/stm32l5xx_hal_gtzc.c ****       && (IS_ADDRESS_IN_NS(SRAM1, end_address)))
 1585              		.loc 1 944 11 view .LVU477
 1586 0016 03F16044 		add	r4, r3, #-536870912
 1587 001a 013C     		subs	r4, r4, #1
 1588              		.loc 1 944 7 view .LVU478
 1589 001c B4F5403F 		cmp	r4, #196608
 1590 0020 25D3     		bcc	.L160
 1591              	.L152:
 945:../../Drivers/STM32L5xx_HAL_Driver/Src/stm32l5xx_hal_gtzc.c ****   {
 946:../../Drivers/STM32L5xx_HAL_Driver/Src/stm32l5xx_hal_gtzc.c ****     mpcbb_ptr = GTZC_MPCBB1_S;
 947:../../Drivers/STM32L5xx_HAL_Driver/Src/stm32l5xx_hal_gtzc.c ****     base_address = SRAM1_BASE_NS;
 948:../../Drivers/STM32L5xx_HAL_Driver/Src/stm32l5xx_hal_gtzc.c ****   }
 949:../../Drivers/STM32L5xx_HAL_Driver/Src/stm32l5xx_hal_gtzc.c ****   else if ((IS_ADDRESS_IN_S(SRAM1, MemAddress))
 1592              		.loc 1 949 8 is_stmt 1 view .LVU479
 1593              		.loc 1 949 13 is_stmt 0 view .LVU480
 1594 0022 00F15044 		add	r4, r0, #-805306368
 1595              		.loc 1 949 11 view .LVU481
 1596 0026 B4F5403F 		cmp	r4, #196608
 1597 002a 05D2     		bcs	.L154
 950:../../Drivers/STM32L5xx_HAL_Driver/Src/stm32l5xx_hal_gtzc.c ****            && (IS_ADDRESS_IN_S(SRAM1, end_address)))
 1598              		.loc 1 950 16 view .LVU482
 1599 002c 03F15044 		add	r4, r3, #-805306368
 1600 0030 013C     		subs	r4, r4, #1
 1601              		.loc 1 950 12 view .LVU483
 1602 0032 B4F5403F 		cmp	r4, #196608
 1603 0036 23D3     		bcc	.L161
 1604              	.L154:
 951:../../Drivers/STM32L5xx_HAL_Driver/Src/stm32l5xx_hal_gtzc.c ****   {
 952:../../Drivers/STM32L5xx_HAL_Driver/Src/stm32l5xx_hal_gtzc.c ****     mpcbb_ptr = GTZC_MPCBB1_S;
 953:../../Drivers/STM32L5xx_HAL_Driver/Src/stm32l5xx_hal_gtzc.c ****     base_address = SRAM1_BASE_S;
 954:../../Drivers/STM32L5xx_HAL_Driver/Src/stm32l5xx_hal_gtzc.c ****   }
 955:../../Drivers/STM32L5xx_HAL_Driver/Src/stm32l5xx_hal_gtzc.c ****   else if ((IS_ADDRESS_IN_NS(SRAM2, MemAddress))
 1605              		.loc 1 955 8 is_stmt 1 view .LVU484
 1606              		.loc 1 955 13 is_stmt 0 view .LVU485
 1607 0038 00F15F44 		add	r4, r0, #-553648128
 1608 003c 04F57D04 		add	r4, r4, #16580608
 1609              		.loc 1 955 11 view .LVU486
 1610 0040 B4F5803F 		cmp	r4, #65536
 1611 0044 04D2     		bcs	.L155
 956:../../Drivers/STM32L5xx_HAL_Driver/Src/stm32l5xx_hal_gtzc.c ****            && (IS_ADDRESS_IN_NS(SRAM2, end_address)))
 1612              		.loc 1 956 16 view .LVU487
 1613 0046 224C     		ldr	r4, .L167
 1614 0048 1C44     		add	r4, r4, r3
 1615              		.loc 1 956 12 view .LVU488
ARM GAS  /tmp/cczkRLel.s 			page 49


 1616 004a B4F5803F 		cmp	r4, #65536
 1617 004e 1BD3     		bcc	.L162
 1618              	.L155:
 957:../../Drivers/STM32L5xx_HAL_Driver/Src/stm32l5xx_hal_gtzc.c ****   {
 958:../../Drivers/STM32L5xx_HAL_Driver/Src/stm32l5xx_hal_gtzc.c ****     mpcbb_ptr = GTZC_MPCBB2_S;
 959:../../Drivers/STM32L5xx_HAL_Driver/Src/stm32l5xx_hal_gtzc.c ****     base_address = SRAM2_BASE_NS;
 960:../../Drivers/STM32L5xx_HAL_Driver/Src/stm32l5xx_hal_gtzc.c ****   }
 961:../../Drivers/STM32L5xx_HAL_Driver/Src/stm32l5xx_hal_gtzc.c ****   else if ((IS_ADDRESS_IN_S(SRAM2, MemAddress))
 1619              		.loc 1 961 8 is_stmt 1 view .LVU489
 1620              		.loc 1 961 13 is_stmt 0 view .LVU490
 1621 0050 00F14F44 		add	r4, r0, #-822083584
 1622 0054 04F57D04 		add	r4, r4, #16580608
 1623              		.loc 1 961 11 view .LVU491
 1624 0058 B4F5803F 		cmp	r4, #65536
 1625 005c 34D2     		bcs	.L163
 962:../../Drivers/STM32L5xx_HAL_Driver/Src/stm32l5xx_hal_gtzc.c ****            && (IS_ADDRESS_IN_S(SRAM2, end_address)))
 1626              		.loc 1 962 16 view .LVU492
 1627 005e 1D4C     		ldr	r4, .L167+4
 1628 0060 1C44     		add	r4, r4, r3
 1629              		.loc 1 962 12 view .LVU493
 1630 0062 B4F5803F 		cmp	r4, #65536
 1631 0066 31D2     		bcs	.L164
 963:../../Drivers/STM32L5xx_HAL_Driver/Src/stm32l5xx_hal_gtzc.c ****   {
 964:../../Drivers/STM32L5xx_HAL_Driver/Src/stm32l5xx_hal_gtzc.c ****     mpcbb_ptr = GTZC_MPCBB2_S;
 965:../../Drivers/STM32L5xx_HAL_Driver/Src/stm32l5xx_hal_gtzc.c ****     base_address = SRAM2_BASE_S;
 1632              		.loc 1 965 18 view .LVU494
 1633 0068 1B4B     		ldr	r3, .L167+8
 1634              	.LVL152:
 964:../../Drivers/STM32L5xx_HAL_Driver/Src/stm32l5xx_hal_gtzc.c ****     base_address = SRAM2_BASE_S;
 1635              		.loc 1 964 15 view .LVU495
 1636 006a 1C4D     		ldr	r5, .L167+12
 1637 006c 02E0     		b	.L153
 1638              	.LVL153:
 1639              	.L160:
 947:../../Drivers/STM32L5xx_HAL_Driver/Src/stm32l5xx_hal_gtzc.c ****   }
 1640              		.loc 1 947 18 view .LVU496
 1641 006e 4FF00053 		mov	r3, #536870912
 1642              	.LVL154:
 946:../../Drivers/STM32L5xx_HAL_Driver/Src/stm32l5xx_hal_gtzc.c ****     base_address = SRAM1_BASE_NS;
 1643              		.loc 1 946 15 view .LVU497
 1644 0072 1B4D     		ldr	r5, .L167+16
 1645              	.LVL155:
 1646              	.L153:
 966:../../Drivers/STM32L5xx_HAL_Driver/Src/stm32l5xx_hal_gtzc.c ****   }
 967:../../Drivers/STM32L5xx_HAL_Driver/Src/stm32l5xx_hal_gtzc.c ****   else
 968:../../Drivers/STM32L5xx_HAL_Driver/Src/stm32l5xx_hal_gtzc.c ****   {
 969:../../Drivers/STM32L5xx_HAL_Driver/Src/stm32l5xx_hal_gtzc.c ****     return HAL_ERROR;
 970:../../Drivers/STM32L5xx_HAL_Driver/Src/stm32l5xx_hal_gtzc.c ****   }
 971:../../Drivers/STM32L5xx_HAL_Driver/Src/stm32l5xx_hal_gtzc.c **** 
 972:../../Drivers/STM32L5xx_HAL_Driver/Src/stm32l5xx_hal_gtzc.c ****   /* get start coordinates of the configuration */
 973:../../Drivers/STM32L5xx_HAL_Driver/Src/stm32l5xx_hal_gtzc.c ****   block_start = (MemAddress - base_address) / GTZC_MPCBB_BLOCK_SIZE;
 1647              		.loc 1 973 3 is_stmt 1 view .LVU498
 1648              		.loc 1 973 29 is_stmt 0 view .LVU499
 1649 0074 C01A     		subs	r0, r0, r3
 1650              	.LVL156:
 974:../../Drivers/STM32L5xx_HAL_Driver/Src/stm32l5xx_hal_gtzc.c ****   offset_reg_start = block_start / 32U;
 1651              		.loc 1 974 3 is_stmt 1 view .LVU500
ARM GAS  /tmp/cczkRLel.s 			page 50


 1652              		.loc 1 974 20 is_stmt 0 view .LVU501
 1653 0076 470B     		lsrs	r7, r0, #13
 1654              	.LVL157:
 975:../../Drivers/STM32L5xx_HAL_Driver/Src/stm32l5xx_hal_gtzc.c ****   offset_bit_start = block_start % 32U;
 1655              		.loc 1 975 3 is_stmt 1 view .LVU502
 1656              		.loc 1 975 20 is_stmt 0 view .LVU503
 1657 0078 C0F30420 		ubfx	r0, r0, #8, #5
 1658              	.LVL158:
 976:../../Drivers/STM32L5xx_HAL_Driver/Src/stm32l5xx_hal_gtzc.c **** 
 977:../../Drivers/STM32L5xx_HAL_Driver/Src/stm32l5xx_hal_gtzc.c ****   for (i = 0U; i < NbBlocks; i++)
 1659              		.loc 1 977 3 is_stmt 1 view .LVU504
 1660              		.loc 1 977 10 is_stmt 0 view .LVU505
 1661 007c B446     		mov	ip, r6
 1662              		.loc 1 977 3 view .LVU506
 1663 007e 08E0     		b	.L156
 1664              	.LVL159:
 1665              	.L161:
 953:../../Drivers/STM32L5xx_HAL_Driver/Src/stm32l5xx_hal_gtzc.c ****   }
 1666              		.loc 1 953 18 view .LVU507
 1667 0080 4FF04053 		mov	r3, #805306368
 1668              	.LVL160:
 952:../../Drivers/STM32L5xx_HAL_Driver/Src/stm32l5xx_hal_gtzc.c ****     base_address = SRAM1_BASE_S;
 1669              		.loc 1 952 15 view .LVU508
 1670 0084 164D     		ldr	r5, .L167+16
 1671 0086 F5E7     		b	.L153
 1672              	.LVL161:
 1673              	.L162:
 959:../../Drivers/STM32L5xx_HAL_Driver/Src/stm32l5xx_hal_gtzc.c ****   }
 1674              		.loc 1 959 18 view .LVU509
 1675 0088 164B     		ldr	r3, .L167+20
 1676              	.LVL162:
 958:../../Drivers/STM32L5xx_HAL_Driver/Src/stm32l5xx_hal_gtzc.c ****     base_address = SRAM2_BASE_NS;
 1677              		.loc 1 958 15 view .LVU510
 1678 008a 144D     		ldr	r5, .L167+12
 1679 008c F2E7     		b	.L153
 1680              	.LVL163:
 1681              	.L157:
 1682              		.loc 1 977 31 is_stmt 1 discriminator 2 view .LVU511
 1683 008e 0CF1010C 		add	ip, ip, #1
 1684              	.LVL164:
 1685              	.L156:
 1686              		.loc 1 977 18 discriminator 1 view .LVU512
 1687 0092 8C45     		cmp	ip, r1
 1688 0094 14D2     		bcs	.L166
 978:../../Drivers/STM32L5xx_HAL_Driver/Src/stm32l5xx_hal_gtzc.c ****   {
 979:../../Drivers/STM32L5xx_HAL_Driver/Src/stm32l5xx_hal_gtzc.c ****     pMemAttributes[i] = READ_BIT(mpcbb_ptr->VCTR[offset_reg_start],
 1689              		.loc 1 979 5 view .LVU513
 1690              		.loc 1 979 25 is_stmt 0 view .LVU514
 1691 0096 07F14003 		add	r3, r7, #64
 1692 009a 55F82330 		ldr	r3, [r5, r3, lsl #2]
 1693 009e 00F01F04 		and	r4, r0, #31
 1694 00a2 4FF0010E 		mov	lr, #1
 1695 00a6 0EFA04FE 		lsl	lr, lr, r4
 1696 00aa 03EA0E03 		and	r3, r3, lr
 980:../../Drivers/STM32L5xx_HAL_Driver/Src/stm32l5xx_hal_gtzc.c ****                                  1UL << (offset_bit_start % 32U))
 981:../../Drivers/STM32L5xx_HAL_Driver/Src/stm32l5xx_hal_gtzc.c ****                         >> (offset_bit_start % 32U);
 1697              		.loc 1 981 25 view .LVU515
ARM GAS  /tmp/cczkRLel.s 			page 51


 1698 00ae E340     		lsrs	r3, r3, r4
 979:../../Drivers/STM32L5xx_HAL_Driver/Src/stm32l5xx_hal_gtzc.c ****                                  1UL << (offset_bit_start % 32U))
 1699              		.loc 1 979 23 view .LVU516
 1700 00b0 42F82C30 		str	r3, [r2, ip, lsl #2]
 982:../../Drivers/STM32L5xx_HAL_Driver/Src/stm32l5xx_hal_gtzc.c **** 
 983:../../Drivers/STM32L5xx_HAL_Driver/Src/stm32l5xx_hal_gtzc.c ****     offset_bit_start++;
 1701              		.loc 1 983 5 is_stmt 1 view .LVU517
 1702              		.loc 1 983 21 is_stmt 0 view .LVU518
 1703 00b4 0130     		adds	r0, r0, #1
 1704              	.LVL165:
 984:../../Drivers/STM32L5xx_HAL_Driver/Src/stm32l5xx_hal_gtzc.c ****     if (offset_bit_start == 32U)
 1705              		.loc 1 984 5 is_stmt 1 view .LVU519
 1706              		.loc 1 984 8 is_stmt 0 view .LVU520
 1707 00b6 2028     		cmp	r0, #32
 1708 00b8 E9D1     		bne	.L157
 985:../../Drivers/STM32L5xx_HAL_Driver/Src/stm32l5xx_hal_gtzc.c ****     {
 986:../../Drivers/STM32L5xx_HAL_Driver/Src/stm32l5xx_hal_gtzc.c ****       offset_bit_start = 0U;
 1709              		.loc 1 986 7 is_stmt 1 view .LVU521
 1710              	.LVL166:
 987:../../Drivers/STM32L5xx_HAL_Driver/Src/stm32l5xx_hal_gtzc.c ****       offset_reg_start++;
 1711              		.loc 1 987 7 view .LVU522
 1712              		.loc 1 987 23 is_stmt 0 view .LVU523
 1713 00ba 0137     		adds	r7, r7, #1
 1714              	.LVL167:
 986:../../Drivers/STM32L5xx_HAL_Driver/Src/stm32l5xx_hal_gtzc.c ****       offset_reg_start++;
 1715              		.loc 1 986 24 view .LVU524
 1716 00bc 3046     		mov	r0, r6
 1717 00be E6E7     		b	.L157
 1718              	.LVL168:
 1719              	.L166:
 988:../../Drivers/STM32L5xx_HAL_Driver/Src/stm32l5xx_hal_gtzc.c ****     }
 989:../../Drivers/STM32L5xx_HAL_Driver/Src/stm32l5xx_hal_gtzc.c ****   }
 990:../../Drivers/STM32L5xx_HAL_Driver/Src/stm32l5xx_hal_gtzc.c **** 
 991:../../Drivers/STM32L5xx_HAL_Driver/Src/stm32l5xx_hal_gtzc.c ****   return HAL_OK;
 1720              		.loc 1 991 10 view .LVU525
 1721 00c0 0020     		movs	r0, #0
 1722              	.LVL169:
 1723              	.L151:
 992:../../Drivers/STM32L5xx_HAL_Driver/Src/stm32l5xx_hal_gtzc.c **** }
 1724              		.loc 1 992 1 view .LVU526
 1725 00c2 F0BD     		pop	{r4, r5, r6, r7, pc}
 1726              	.LVL170:
 1727              	.L159:
 938:../../Drivers/STM32L5xx_HAL_Driver/Src/stm32l5xx_hal_gtzc.c ****   }
 1728              		.loc 1 938 12 view .LVU527
 1729 00c4 0120     		movs	r0, #1
 1730              	.LVL171:
 938:../../Drivers/STM32L5xx_HAL_Driver/Src/stm32l5xx_hal_gtzc.c ****   }
 1731              		.loc 1 938 12 view .LVU528
 1732 00c6 FCE7     		b	.L151
 1733              	.LVL172:
 1734              	.L163:
 969:../../Drivers/STM32L5xx_HAL_Driver/Src/stm32l5xx_hal_gtzc.c ****   }
 1735              		.loc 1 969 12 view .LVU529
 1736 00c8 0120     		movs	r0, #1
 1737              	.LVL173:
 969:../../Drivers/STM32L5xx_HAL_Driver/Src/stm32l5xx_hal_gtzc.c ****   }
ARM GAS  /tmp/cczkRLel.s 			page 52


 1738              		.loc 1 969 12 view .LVU530
 1739 00ca FAE7     		b	.L151
 1740              	.LVL174:
 1741              	.L164:
 969:../../Drivers/STM32L5xx_HAL_Driver/Src/stm32l5xx_hal_gtzc.c ****   }
 1742              		.loc 1 969 12 view .LVU531
 1743 00cc 0120     		movs	r0, #1
 1744              	.LVL175:
 969:../../Drivers/STM32L5xx_HAL_Driver/Src/stm32l5xx_hal_gtzc.c ****   }
 1745              		.loc 1 969 12 view .LVU532
 1746 00ce F8E7     		b	.L151
 1747              	.L168:
 1748              		.align	2
 1749              	.L167:
 1750 00d0 FFFFFCDF 		.word	-537067521
 1751 00d4 FFFFFCCF 		.word	-805502977
 1752 00d8 00000330 		.word	805502976
 1753 00dc 00300350 		.word	1342386176
 1754 00e0 002C0350 		.word	1342385152
 1755 00e4 00000320 		.word	537067520
 1756              		.cfi_endproc
 1757              	.LFE211:
 1759              		.section	.text.HAL_GTZC_MPCBB_LockConfig,"ax",%progbits
 1760              		.align	1
 1761              		.global	HAL_GTZC_MPCBB_LockConfig
 1762              		.syntax unified
 1763              		.thumb
 1764              		.thumb_func
 1766              	HAL_GTZC_MPCBB_LockConfig:
 1767              	.LVL176:
 1768              	.LFB212:
 993:../../Drivers/STM32L5xx_HAL_Driver/Src/stm32l5xx_hal_gtzc.c **** 
 994:../../Drivers/STM32L5xx_HAL_Driver/Src/stm32l5xx_hal_gtzc.c **** /**
 995:../../Drivers/STM32L5xx_HAL_Driver/Src/stm32l5xx_hal_gtzc.c ****   * @brief  Lock MPCBB super-blocks on the SRAM passed as parameter.
 996:../../Drivers/STM32L5xx_HAL_Driver/Src/stm32l5xx_hal_gtzc.c ****   * @param  MemAddress MPCBB identifier, and start super-block to configure
 997:../../Drivers/STM32L5xx_HAL_Driver/Src/stm32l5xx_hal_gtzc.c ****   *         (must be 8KBytes aligned).
 998:../../Drivers/STM32L5xx_HAL_Driver/Src/stm32l5xx_hal_gtzc.c ****   * @param  NbSuperBlocks Number of super-blocks to configure.
 999:../../Drivers/STM32L5xx_HAL_Driver/Src/stm32l5xx_hal_gtzc.c ****   * @param  pLockAttributes pointer to an array (containing "NbSuperBlocks" elements),
1000:../../Drivers/STM32L5xx_HAL_Driver/Src/stm32l5xx_hal_gtzc.c ****   *         with for each element:
1001:../../Drivers/STM32L5xx_HAL_Driver/Src/stm32l5xx_hal_gtzc.c ****   *         value 0 super-block is unlocked, value 1 super-block is locked
1002:../../Drivers/STM32L5xx_HAL_Driver/Src/stm32l5xx_hal_gtzc.c ****   *         (corresponds to GTZC_MCPBB_SUPERBLOCK_UNLOCKED and
1003:../../Drivers/STM32L5xx_HAL_Driver/Src/stm32l5xx_hal_gtzc.c ****   *         GTZC_MCPBB_SUPERBLOCK_LOCKED values).
1004:../../Drivers/STM32L5xx_HAL_Driver/Src/stm32l5xx_hal_gtzc.c ****   * @retval HAL status.
1005:../../Drivers/STM32L5xx_HAL_Driver/Src/stm32l5xx_hal_gtzc.c ****   */
1006:../../Drivers/STM32L5xx_HAL_Driver/Src/stm32l5xx_hal_gtzc.c **** HAL_StatusTypeDef HAL_GTZC_MPCBB_LockConfig(uint32_t MemAddress,
1007:../../Drivers/STM32L5xx_HAL_Driver/Src/stm32l5xx_hal_gtzc.c ****                                             uint32_t NbSuperBlocks,
1008:../../Drivers/STM32L5xx_HAL_Driver/Src/stm32l5xx_hal_gtzc.c ****                                             const uint32_t *pLockAttributes)
1009:../../Drivers/STM32L5xx_HAL_Driver/Src/stm32l5xx_hal_gtzc.c **** {
 1769              		.loc 1 1009 1 is_stmt 1 view -0
 1770              		.cfi_startproc
 1771              		@ args = 0, pretend = 0, frame = 0
 1772              		@ frame_needed = 0, uses_anonymous_args = 0
1010:../../Drivers/STM32L5xx_HAL_Driver/Src/stm32l5xx_hal_gtzc.c ****   __IO uint32_t *reg_mpcbb;
 1773              		.loc 1 1010 3 view .LVU534
1011:../../Drivers/STM32L5xx_HAL_Driver/Src/stm32l5xx_hal_gtzc.c ****   uint32_t base_address;
 1774              		.loc 1 1011 3 view .LVU535
1012:../../Drivers/STM32L5xx_HAL_Driver/Src/stm32l5xx_hal_gtzc.c ****   uint32_t superblock_start, offset_bit_start;
ARM GAS  /tmp/cczkRLel.s 			page 53


 1775              		.loc 1 1012 3 view .LVU536
1013:../../Drivers/STM32L5xx_HAL_Driver/Src/stm32l5xx_hal_gtzc.c ****   uint32_t i;
 1776              		.loc 1 1013 3 view .LVU537
1014:../../Drivers/STM32L5xx_HAL_Driver/Src/stm32l5xx_hal_gtzc.c **** 
1015:../../Drivers/STM32L5xx_HAL_Driver/Src/stm32l5xx_hal_gtzc.c ****   /* firstly check that MemAddress is well 8KBytes aligned */
1016:../../Drivers/STM32L5xx_HAL_Driver/Src/stm32l5xx_hal_gtzc.c ****   if ((MemAddress % GTZC_MPCBB_SUPERBLOCK_SIZE) != 0U)
 1777              		.loc 1 1016 3 view .LVU538
 1778              		.loc 1 1016 19 is_stmt 0 view .LVU539
 1779 0000 C0F30C03 		ubfx	r3, r0, #0, #13
 1780              		.loc 1 1016 6 view .LVU540
 1781 0004 002B     		cmp	r3, #0
 1782 0006 65D1     		bne	.L180
1009:../../Drivers/STM32L5xx_HAL_Driver/Src/stm32l5xx_hal_gtzc.c ****   __IO uint32_t *reg_mpcbb;
 1783              		.loc 1 1009 1 view .LVU541
 1784 0008 30B5     		push	{r4, r5, lr}
 1785              	.LCFI19:
 1786              		.cfi_def_cfa_offset 12
 1787              		.cfi_offset 4, -12
 1788              		.cfi_offset 5, -8
 1789              		.cfi_offset 14, -4
1017:../../Drivers/STM32L5xx_HAL_Driver/Src/stm32l5xx_hal_gtzc.c ****   {
1018:../../Drivers/STM32L5xx_HAL_Driver/Src/stm32l5xx_hal_gtzc.c ****     return HAL_ERROR;
1019:../../Drivers/STM32L5xx_HAL_Driver/Src/stm32l5xx_hal_gtzc.c ****   }
1020:../../Drivers/STM32L5xx_HAL_Driver/Src/stm32l5xx_hal_gtzc.c **** 
1021:../../Drivers/STM32L5xx_HAL_Driver/Src/stm32l5xx_hal_gtzc.c ****   /* check entry parameters */
1022:../../Drivers/STM32L5xx_HAL_Driver/Src/stm32l5xx_hal_gtzc.c ****   if ((IS_ADDRESS_IN(SRAM1, MemAddress))
 1790              		.loc 1 1022 3 is_stmt 1 view .LVU542
 1791              		.loc 1 1022 8 is_stmt 0 view .LVU543
 1792 000a 00F16044 		add	r4, r0, #-536870912
 1793              		.loc 1 1022 6 view .LVU544
 1794 000e B4F5403F 		cmp	r4, #196608
 1795 0012 04D3     		bcc	.L171
 1796              		.loc 1 1022 8 discriminator 1 view .LVU545
 1797 0014 00F15044 		add	r4, r0, #-805306368
 1798 0018 B4F5403F 		cmp	r4, #196608
 1799 001c 0DD2     		bcs	.L172
 1800              	.L171:
1023:../../Drivers/STM32L5xx_HAL_Driver/Src/stm32l5xx_hal_gtzc.c ****       && (IS_ADDRESS_IN(SRAM1, (MemAddress
 1801              		.loc 1 1023 11 view .LVU546
 1802 001e 00EB4134 		add	r4, r0, r1, lsl #13
 1803 0022 04F16045 		add	r5, r4, #-536870912
 1804 0026 013D     		subs	r5, r5, #1
 1805              		.loc 1 1023 7 view .LVU547
 1806 0028 B5F5403F 		cmp	r5, #196608
 1807 002c 22D3     		bcc	.L181
 1808              		.loc 1 1023 11 discriminator 1 view .LVU548
 1809 002e 04F15044 		add	r4, r4, #-805306368
 1810 0032 013C     		subs	r4, r4, #1
 1811 0034 B4F5403F 		cmp	r4, #196608
 1812 0038 23D3     		bcc	.L182
 1813              	.L172:
1024:../../Drivers/STM32L5xx_HAL_Driver/Src/stm32l5xx_hal_gtzc.c ****                                 + (NbSuperBlocks * GTZC_MPCBB_SUPERBLOCK_SIZE)
1025:../../Drivers/STM32L5xx_HAL_Driver/Src/stm32l5xx_hal_gtzc.c ****                                 - 1U))))
1026:../../Drivers/STM32L5xx_HAL_Driver/Src/stm32l5xx_hal_gtzc.c ****   {
1027:../../Drivers/STM32L5xx_HAL_Driver/Src/stm32l5xx_hal_gtzc.c ****     base_address = GTZC_BASE_ADDRESS(SRAM1);
1028:../../Drivers/STM32L5xx_HAL_Driver/Src/stm32l5xx_hal_gtzc.c ****     /* limitation: code not portable with memory > 256K */
1029:../../Drivers/STM32L5xx_HAL_Driver/Src/stm32l5xx_hal_gtzc.c ****     reg_mpcbb = (__IO uint32_t *)&GTZC_MPCBB1_S->LCKVTR1;
ARM GAS  /tmp/cczkRLel.s 			page 54


1030:../../Drivers/STM32L5xx_HAL_Driver/Src/stm32l5xx_hal_gtzc.c ****   }
1031:../../Drivers/STM32L5xx_HAL_Driver/Src/stm32l5xx_hal_gtzc.c ****   else if ((IS_ADDRESS_IN(SRAM2, MemAddress))
 1814              		.loc 1 1031 8 is_stmt 1 view .LVU549
 1815              		.loc 1 1031 13 is_stmt 0 view .LVU550
 1816 003a 00F15F44 		add	r4, r0, #-553648128
 1817 003e 04F57D04 		add	r4, r4, #16580608
 1818              		.loc 1 1031 11 view .LVU551
 1819 0042 B4F5803F 		cmp	r4, #65536
 1820 0046 06D3     		bcc	.L174
 1821              		.loc 1 1031 13 discriminator 1 view .LVU552
 1822 0048 00F14F44 		add	r4, r0, #-822083584
 1823 004c 04F57D04 		add	r4, r4, #16580608
 1824 0050 B4F5803F 		cmp	r4, #65536
 1825 0054 40D2     		bcs	.L183
 1826              	.L174:
1032:../../Drivers/STM32L5xx_HAL_Driver/Src/stm32l5xx_hal_gtzc.c ****            && (IS_ADDRESS_IN(SRAM2, (MemAddress
 1827              		.loc 1 1032 16 view .LVU553
 1828 0056 00EB4135 		add	r5, r0, r1, lsl #13
 1829 005a 224C     		ldr	r4, .L192
 1830 005c 2C44     		add	r4, r4, r5
 1831              		.loc 1 1032 12 view .LVU554
 1832 005e B4F5803F 		cmp	r4, #65536
 1833 0062 12D3     		bcc	.L184
 1834              		.loc 1 1032 16 discriminator 1 view .LVU555
 1835 0064 204C     		ldr	r4, .L192+4
 1836 0066 2C44     		add	r4, r4, r5
 1837 0068 B4F5803F 		cmp	r4, #65536
 1838 006c 36D2     		bcs	.L185
1033:../../Drivers/STM32L5xx_HAL_Driver/Src/stm32l5xx_hal_gtzc.c ****                                      + (NbSuperBlocks * GTZC_MPCBB_SUPERBLOCK_SIZE)
1034:../../Drivers/STM32L5xx_HAL_Driver/Src/stm32l5xx_hal_gtzc.c ****                                      - 1U))))
1035:../../Drivers/STM32L5xx_HAL_Driver/Src/stm32l5xx_hal_gtzc.c ****   {
1036:../../Drivers/STM32L5xx_HAL_Driver/Src/stm32l5xx_hal_gtzc.c ****     base_address = GTZC_BASE_ADDRESS(SRAM2);
 1839              		.loc 1 1036 18 view .LVU556
 1840 006e 1F4C     		ldr	r4, .L192+8
1037:../../Drivers/STM32L5xx_HAL_Driver/Src/stm32l5xx_hal_gtzc.c ****     /* limitation: code not portable with memory > 256K */
1038:../../Drivers/STM32L5xx_HAL_Driver/Src/stm32l5xx_hal_gtzc.c ****     reg_mpcbb = (__IO uint32_t *)&GTZC_MPCBB2_S->LCKVTR1;
 1841              		.loc 1 1038 15 view .LVU557
 1842 0070 1F4D     		ldr	r5, .L192+12
 1843 0072 02E0     		b	.L173
 1844              	.L181:
1027:../../Drivers/STM32L5xx_HAL_Driver/Src/stm32l5xx_hal_gtzc.c ****     /* limitation: code not portable with memory > 256K */
 1845              		.loc 1 1027 18 view .LVU558
 1846 0074 4FF04054 		mov	r4, #805306368
1029:../../Drivers/STM32L5xx_HAL_Driver/Src/stm32l5xx_hal_gtzc.c ****   }
 1847              		.loc 1 1029 15 view .LVU559
 1848 0078 1E4D     		ldr	r5, .L192+16
 1849              	.L173:
 1850              	.LVL177:
1039:../../Drivers/STM32L5xx_HAL_Driver/Src/stm32l5xx_hal_gtzc.c ****   }
1040:../../Drivers/STM32L5xx_HAL_Driver/Src/stm32l5xx_hal_gtzc.c ****   else
1041:../../Drivers/STM32L5xx_HAL_Driver/Src/stm32l5xx_hal_gtzc.c ****   {
1042:../../Drivers/STM32L5xx_HAL_Driver/Src/stm32l5xx_hal_gtzc.c ****     return HAL_ERROR;
1043:../../Drivers/STM32L5xx_HAL_Driver/Src/stm32l5xx_hal_gtzc.c ****   }
1044:../../Drivers/STM32L5xx_HAL_Driver/Src/stm32l5xx_hal_gtzc.c **** 
1045:../../Drivers/STM32L5xx_HAL_Driver/Src/stm32l5xx_hal_gtzc.c ****   /* get start coordinates of the configuration */
1046:../../Drivers/STM32L5xx_HAL_Driver/Src/stm32l5xx_hal_gtzc.c ****   superblock_start = (MemAddress - base_address) / GTZC_MPCBB_SUPERBLOCK_SIZE;
 1851              		.loc 1 1046 3 is_stmt 1 view .LVU560
ARM GAS  /tmp/cczkRLel.s 			page 55


 1852              		.loc 1 1046 34 is_stmt 0 view .LVU561
 1853 007a 001B     		subs	r0, r0, r4
 1854              	.LVL178:
1047:../../Drivers/STM32L5xx_HAL_Driver/Src/stm32l5xx_hal_gtzc.c ****   offset_bit_start = superblock_start % 32U;
 1855              		.loc 1 1047 3 is_stmt 1 view .LVU562
 1856              		.loc 1 1047 20 is_stmt 0 view .LVU563
 1857 007c C0F34430 		ubfx	r0, r0, #13, #5
 1858              	.LVL179:
1048:../../Drivers/STM32L5xx_HAL_Driver/Src/stm32l5xx_hal_gtzc.c **** 
1049:../../Drivers/STM32L5xx_HAL_Driver/Src/stm32l5xx_hal_gtzc.c ****   for (i = 0U; i < NbSuperBlocks; i++)
 1859              		.loc 1 1049 3 is_stmt 1 view .LVU564
 1860              		.loc 1 1049 3 is_stmt 0 view .LVU565
 1861 0080 12E0     		b	.L175
 1862              	.LVL180:
 1863              	.L182:
1027:../../Drivers/STM32L5xx_HAL_Driver/Src/stm32l5xx_hal_gtzc.c ****     /* limitation: code not portable with memory > 256K */
 1864              		.loc 1 1027 18 view .LVU566
 1865 0082 4FF04054 		mov	r4, #805306368
1029:../../Drivers/STM32L5xx_HAL_Driver/Src/stm32l5xx_hal_gtzc.c ****   }
 1866              		.loc 1 1029 15 view .LVU567
 1867 0086 1B4D     		ldr	r5, .L192+16
 1868 0088 F7E7     		b	.L173
 1869              	.L184:
1036:../../Drivers/STM32L5xx_HAL_Driver/Src/stm32l5xx_hal_gtzc.c ****     /* limitation: code not portable with memory > 256K */
 1870              		.loc 1 1036 18 view .LVU568
 1871 008a 184C     		ldr	r4, .L192+8
1038:../../Drivers/STM32L5xx_HAL_Driver/Src/stm32l5xx_hal_gtzc.c ****   }
 1872              		.loc 1 1038 15 view .LVU569
 1873 008c 184D     		ldr	r5, .L192+12
 1874 008e F4E7     		b	.L173
 1875              	.LVL181:
 1876              	.L191:
1050:../../Drivers/STM32L5xx_HAL_Driver/Src/stm32l5xx_hal_gtzc.c ****   {
1051:../../Drivers/STM32L5xx_HAL_Driver/Src/stm32l5xx_hal_gtzc.c ****     if (pLockAttributes[i] == GTZC_MCPBB_SUPERBLOCK_LOCKED)
1052:../../Drivers/STM32L5xx_HAL_Driver/Src/stm32l5xx_hal_gtzc.c ****     {
1053:../../Drivers/STM32L5xx_HAL_Driver/Src/stm32l5xx_hal_gtzc.c ****       SET_BIT(*reg_mpcbb, 1UL << (offset_bit_start % 32U));
 1877              		.loc 1 1053 7 is_stmt 1 view .LVU570
 1878 0090 2C68     		ldr	r4, [r5]
 1879 0092 00F01F0E 		and	lr, r0, #31
 1880 0096 4FF0010C 		mov	ip, #1
 1881 009a 0CFA0EFC 		lsl	ip, ip, lr
 1882 009e 44EA0C04 		orr	r4, r4, ip
 1883 00a2 2C60     		str	r4, [r5]
 1884              	.L177:
1054:../../Drivers/STM32L5xx_HAL_Driver/Src/stm32l5xx_hal_gtzc.c ****     }
1055:../../Drivers/STM32L5xx_HAL_Driver/Src/stm32l5xx_hal_gtzc.c ****     else if (pLockAttributes[i] == GTZC_MCPBB_SUPERBLOCK_UNLOCKED)
1056:../../Drivers/STM32L5xx_HAL_Driver/Src/stm32l5xx_hal_gtzc.c ****     {
1057:../../Drivers/STM32L5xx_HAL_Driver/Src/stm32l5xx_hal_gtzc.c ****       CLEAR_BIT(*reg_mpcbb, 1UL << (offset_bit_start % 32U));
1058:../../Drivers/STM32L5xx_HAL_Driver/Src/stm32l5xx_hal_gtzc.c ****     }
1059:../../Drivers/STM32L5xx_HAL_Driver/Src/stm32l5xx_hal_gtzc.c ****     else
1060:../../Drivers/STM32L5xx_HAL_Driver/Src/stm32l5xx_hal_gtzc.c ****     {
1061:../../Drivers/STM32L5xx_HAL_Driver/Src/stm32l5xx_hal_gtzc.c ****       break;
1062:../../Drivers/STM32L5xx_HAL_Driver/Src/stm32l5xx_hal_gtzc.c ****     }
1063:../../Drivers/STM32L5xx_HAL_Driver/Src/stm32l5xx_hal_gtzc.c **** 
1064:../../Drivers/STM32L5xx_HAL_Driver/Src/stm32l5xx_hal_gtzc.c ****     offset_bit_start++;
 1885              		.loc 1 1064 5 discriminator 2 view .LVU571
 1886              		.loc 1 1064 21 is_stmt 0 discriminator 2 view .LVU572
ARM GAS  /tmp/cczkRLel.s 			page 56


 1887 00a4 0130     		adds	r0, r0, #1
 1888              	.LVL182:
1049:../../Drivers/STM32L5xx_HAL_Driver/Src/stm32l5xx_hal_gtzc.c ****   {
 1889              		.loc 1 1049 36 is_stmt 1 discriminator 2 view .LVU573
 1890 00a6 0133     		adds	r3, r3, #1
 1891              	.LVL183:
 1892              	.L175:
1049:../../Drivers/STM32L5xx_HAL_Driver/Src/stm32l5xx_hal_gtzc.c ****   {
 1893              		.loc 1 1049 18 discriminator 1 view .LVU574
 1894 00a8 8B42     		cmp	r3, r1
 1895 00aa 0FD2     		bcs	.L178
1051:../../Drivers/STM32L5xx_HAL_Driver/Src/stm32l5xx_hal_gtzc.c ****     {
 1896              		.loc 1 1051 5 view .LVU575
1051:../../Drivers/STM32L5xx_HAL_Driver/Src/stm32l5xx_hal_gtzc.c ****     {
 1897              		.loc 1 1051 24 is_stmt 0 view .LVU576
 1898 00ac 52F82340 		ldr	r4, [r2, r3, lsl #2]
1051:../../Drivers/STM32L5xx_HAL_Driver/Src/stm32l5xx_hal_gtzc.c ****     {
 1899              		.loc 1 1051 8 view .LVU577
 1900 00b0 012C     		cmp	r4, #1
 1901 00b2 EDD0     		beq	.L191
1055:../../Drivers/STM32L5xx_HAL_Driver/Src/stm32l5xx_hal_gtzc.c ****     {
 1902              		.loc 1 1055 10 is_stmt 1 view .LVU578
1055:../../Drivers/STM32L5xx_HAL_Driver/Src/stm32l5xx_hal_gtzc.c ****     {
 1903              		.loc 1 1055 13 is_stmt 0 view .LVU579
 1904 00b4 54B9     		cbnz	r4, .L178
1057:../../Drivers/STM32L5xx_HAL_Driver/Src/stm32l5xx_hal_gtzc.c ****     }
 1905              		.loc 1 1057 7 is_stmt 1 view .LVU580
 1906 00b6 2C68     		ldr	r4, [r5]
 1907 00b8 00F01F0E 		and	lr, r0, #31
 1908 00bc 4FF0010C 		mov	ip, #1
 1909 00c0 0CFA0EFC 		lsl	ip, ip, lr
 1910 00c4 24EA0C04 		bic	r4, r4, ip
 1911 00c8 2C60     		str	r4, [r5]
 1912 00ca EBE7     		b	.L177
 1913              	.L178:
1065:../../Drivers/STM32L5xx_HAL_Driver/Src/stm32l5xx_hal_gtzc.c ****   }
1066:../../Drivers/STM32L5xx_HAL_Driver/Src/stm32l5xx_hal_gtzc.c **** 
1067:../../Drivers/STM32L5xx_HAL_Driver/Src/stm32l5xx_hal_gtzc.c ****   /* an unexpected value in pLockAttributes array leads to an error status */
1068:../../Drivers/STM32L5xx_HAL_Driver/Src/stm32l5xx_hal_gtzc.c ****   if (i != NbSuperBlocks)
 1914              		.loc 1 1068 3 view .LVU581
 1915              		.loc 1 1068 6 is_stmt 0 view .LVU582
 1916 00cc 8B42     		cmp	r3, r1
 1917 00ce 07D1     		bne	.L186
1069:../../Drivers/STM32L5xx_HAL_Driver/Src/stm32l5xx_hal_gtzc.c ****   {
1070:../../Drivers/STM32L5xx_HAL_Driver/Src/stm32l5xx_hal_gtzc.c ****     return HAL_ERROR;
1071:../../Drivers/STM32L5xx_HAL_Driver/Src/stm32l5xx_hal_gtzc.c ****   }
1072:../../Drivers/STM32L5xx_HAL_Driver/Src/stm32l5xx_hal_gtzc.c **** 
1073:../../Drivers/STM32L5xx_HAL_Driver/Src/stm32l5xx_hal_gtzc.c ****   return HAL_OK;
 1918              		.loc 1 1073 10 view .LVU583
 1919 00d0 0020     		movs	r0, #0
 1920              	.LVL184:
 1921              	.L170:
1074:../../Drivers/STM32L5xx_HAL_Driver/Src/stm32l5xx_hal_gtzc.c **** }
 1922              		.loc 1 1074 1 view .LVU584
 1923 00d2 30BD     		pop	{r4, r5, pc}
 1924              	.LVL185:
 1925              	.L180:
ARM GAS  /tmp/cczkRLel.s 			page 57


 1926              	.LCFI20:
 1927              		.cfi_def_cfa_offset 0
 1928              		.cfi_restore 4
 1929              		.cfi_restore 5
 1930              		.cfi_restore 14
1018:../../Drivers/STM32L5xx_HAL_Driver/Src/stm32l5xx_hal_gtzc.c ****   }
 1931              		.loc 1 1018 12 view .LVU585
 1932 00d4 0120     		movs	r0, #1
 1933              	.LVL186:
 1934              		.loc 1 1074 1 view .LVU586
 1935 00d6 7047     		bx	lr
 1936              	.LVL187:
 1937              	.L183:
 1938              	.LCFI21:
 1939              		.cfi_def_cfa_offset 12
 1940              		.cfi_offset 4, -12
 1941              		.cfi_offset 5, -8
 1942              		.cfi_offset 14, -4
1042:../../Drivers/STM32L5xx_HAL_Driver/Src/stm32l5xx_hal_gtzc.c ****   }
 1943              		.loc 1 1042 12 view .LVU587
 1944 00d8 0120     		movs	r0, #1
 1945              	.LVL188:
1042:../../Drivers/STM32L5xx_HAL_Driver/Src/stm32l5xx_hal_gtzc.c ****   }
 1946              		.loc 1 1042 12 view .LVU588
 1947 00da FAE7     		b	.L170
 1948              	.LVL189:
 1949              	.L185:
1042:../../Drivers/STM32L5xx_HAL_Driver/Src/stm32l5xx_hal_gtzc.c ****   }
 1950              		.loc 1 1042 12 view .LVU589
 1951 00dc 0120     		movs	r0, #1
 1952              	.LVL190:
1042:../../Drivers/STM32L5xx_HAL_Driver/Src/stm32l5xx_hal_gtzc.c ****   }
 1953              		.loc 1 1042 12 view .LVU590
 1954 00de F8E7     		b	.L170
 1955              	.LVL191:
 1956              	.L186:
1070:../../Drivers/STM32L5xx_HAL_Driver/Src/stm32l5xx_hal_gtzc.c ****   }
 1957              		.loc 1 1070 12 view .LVU591
 1958 00e0 0120     		movs	r0, #1
 1959              	.LVL192:
1070:../../Drivers/STM32L5xx_HAL_Driver/Src/stm32l5xx_hal_gtzc.c ****   }
 1960              		.loc 1 1070 12 view .LVU592
 1961 00e2 F6E7     		b	.L170
 1962              	.L193:
 1963              		.align	2
 1964              	.L192:
 1965 00e4 FFFFFCDF 		.word	-537067521
 1966 00e8 FFFFFCCF 		.word	-805502977
 1967 00ec 00000330 		.word	805502976
 1968 00f0 10300350 		.word	1342386192
 1969 00f4 102C0350 		.word	1342385168
 1970              		.cfi_endproc
 1971              	.LFE212:
 1973              		.section	.text.HAL_GTZC_MPCBB_GetLockConfig,"ax",%progbits
 1974              		.align	1
 1975              		.global	HAL_GTZC_MPCBB_GetLockConfig
 1976              		.syntax unified
ARM GAS  /tmp/cczkRLel.s 			page 58


 1977              		.thumb
 1978              		.thumb_func
 1980              	HAL_GTZC_MPCBB_GetLockConfig:
 1981              	.LVL193:
 1982              	.LFB213:
1075:../../Drivers/STM32L5xx_HAL_Driver/Src/stm32l5xx_hal_gtzc.c **** 
1076:../../Drivers/STM32L5xx_HAL_Driver/Src/stm32l5xx_hal_gtzc.c **** /**
1077:../../Drivers/STM32L5xx_HAL_Driver/Src/stm32l5xx_hal_gtzc.c ****   * @brief  Get MPCBB super-blocks lock configuration on the SRAM passed as parameter.
1078:../../Drivers/STM32L5xx_HAL_Driver/Src/stm32l5xx_hal_gtzc.c ****   * @param  MemAddress MPCBB identifier, and start super-block to get
1079:../../Drivers/STM32L5xx_HAL_Driver/Src/stm32l5xx_hal_gtzc.c ****   *         configuration (must be 8KBytes aligned).
1080:../../Drivers/STM32L5xx_HAL_Driver/Src/stm32l5xx_hal_gtzc.c ****   * @param  NbSuperBlocks Number of super-blocks to get configuration.
1081:../../Drivers/STM32L5xx_HAL_Driver/Src/stm32l5xx_hal_gtzc.c ****   * @param  pLockAttributes pointer to an array (size is NbSuperBlocks),
1082:../../Drivers/STM32L5xx_HAL_Driver/Src/stm32l5xx_hal_gtzc.c ****   *         with for each element:
1083:../../Drivers/STM32L5xx_HAL_Driver/Src/stm32l5xx_hal_gtzc.c ****   *         value 0 super-block is unlocked, value 1 super-block is locked
1084:../../Drivers/STM32L5xx_HAL_Driver/Src/stm32l5xx_hal_gtzc.c ****   *         (corresponds to GTZC_MCPBB_SUPERBLOCK_UNLOCKED and
1085:../../Drivers/STM32L5xx_HAL_Driver/Src/stm32l5xx_hal_gtzc.c ****   *         GTZC_MCPBB_SUPERBLOCK_LOCKED values).
1086:../../Drivers/STM32L5xx_HAL_Driver/Src/stm32l5xx_hal_gtzc.c ****   * @retval HAL status.
1087:../../Drivers/STM32L5xx_HAL_Driver/Src/stm32l5xx_hal_gtzc.c ****   */
1088:../../Drivers/STM32L5xx_HAL_Driver/Src/stm32l5xx_hal_gtzc.c **** HAL_StatusTypeDef HAL_GTZC_MPCBB_GetLockConfig(uint32_t MemAddress,
1089:../../Drivers/STM32L5xx_HAL_Driver/Src/stm32l5xx_hal_gtzc.c ****                                                uint32_t NbSuperBlocks,
1090:../../Drivers/STM32L5xx_HAL_Driver/Src/stm32l5xx_hal_gtzc.c ****                                                uint32_t *pLockAttributes)
1091:../../Drivers/STM32L5xx_HAL_Driver/Src/stm32l5xx_hal_gtzc.c **** {
 1983              		.loc 1 1091 1 is_stmt 1 view -0
 1984              		.cfi_startproc
 1985              		@ args = 0, pretend = 0, frame = 0
 1986              		@ frame_needed = 0, uses_anonymous_args = 0
 1987              		@ link register save eliminated.
 1988              		.loc 1 1091 1 is_stmt 0 view .LVU594
 1989 0000 30B4     		push	{r4, r5}
 1990              	.LCFI22:
 1991              		.cfi_def_cfa_offset 8
 1992              		.cfi_offset 4, -8
 1993              		.cfi_offset 5, -4
1092:../../Drivers/STM32L5xx_HAL_Driver/Src/stm32l5xx_hal_gtzc.c ****   uint32_t reg_mpcbb;
 1994              		.loc 1 1092 3 is_stmt 1 view .LVU595
1093:../../Drivers/STM32L5xx_HAL_Driver/Src/stm32l5xx_hal_gtzc.c ****   uint32_t base_address;
 1995              		.loc 1 1093 3 view .LVU596
1094:../../Drivers/STM32L5xx_HAL_Driver/Src/stm32l5xx_hal_gtzc.c ****   uint32_t superblock_start, offset_bit_start;
 1996              		.loc 1 1094 3 view .LVU597
1095:../../Drivers/STM32L5xx_HAL_Driver/Src/stm32l5xx_hal_gtzc.c ****   uint32_t i;
 1997              		.loc 1 1095 3 view .LVU598
1096:../../Drivers/STM32L5xx_HAL_Driver/Src/stm32l5xx_hal_gtzc.c **** 
1097:../../Drivers/STM32L5xx_HAL_Driver/Src/stm32l5xx_hal_gtzc.c ****   /* firstly check that MemAddress is well 8KBytes aligned */
1098:../../Drivers/STM32L5xx_HAL_Driver/Src/stm32l5xx_hal_gtzc.c ****   if ((MemAddress % GTZC_MPCBB_SUPERBLOCK_SIZE) != 0U)
 1998              		.loc 1 1098 3 view .LVU599
 1999              		.loc 1 1098 19 is_stmt 0 view .LVU600
 2000 0002 C0F30C05 		ubfx	r5, r0, #0, #13
 2001              		.loc 1 1098 6 view .LVU601
 2002 0006 002D     		cmp	r5, #0
 2003 0008 4ED1     		bne	.L204
1099:../../Drivers/STM32L5xx_HAL_Driver/Src/stm32l5xx_hal_gtzc.c ****   {
1100:../../Drivers/STM32L5xx_HAL_Driver/Src/stm32l5xx_hal_gtzc.c ****     return HAL_ERROR;
1101:../../Drivers/STM32L5xx_HAL_Driver/Src/stm32l5xx_hal_gtzc.c ****   }
1102:../../Drivers/STM32L5xx_HAL_Driver/Src/stm32l5xx_hal_gtzc.c **** 
1103:../../Drivers/STM32L5xx_HAL_Driver/Src/stm32l5xx_hal_gtzc.c ****   /* check entry parameters */
1104:../../Drivers/STM32L5xx_HAL_Driver/Src/stm32l5xx_hal_gtzc.c ****   if ((IS_ADDRESS_IN(SRAM1, MemAddress))
 2004              		.loc 1 1104 3 is_stmt 1 view .LVU602
ARM GAS  /tmp/cczkRLel.s 			page 59


 2005              		.loc 1 1104 8 is_stmt 0 view .LVU603
 2006 000a 00F16043 		add	r3, r0, #-536870912
 2007              		.loc 1 1104 6 view .LVU604
 2008 000e B3F5403F 		cmp	r3, #196608
 2009 0012 04D3     		bcc	.L196
 2010              		.loc 1 1104 8 discriminator 1 view .LVU605
 2011 0014 00F15043 		add	r3, r0, #-805306368
 2012 0018 B3F5403F 		cmp	r3, #196608
 2013 001c 15D2     		bcs	.L197
 2014              	.L196:
1105:../../Drivers/STM32L5xx_HAL_Driver/Src/stm32l5xx_hal_gtzc.c ****       && (IS_ADDRESS_IN(SRAM1, (MemAddress
 2015              		.loc 1 1105 11 view .LVU606
 2016 001e 00EB4133 		add	r3, r0, r1, lsl #13
 2017 0022 03F16044 		add	r4, r3, #-536870912
 2018 0026 013C     		subs	r4, r4, #1
 2019              		.loc 1 1105 7 view .LVU607
 2020 0028 B4F5403F 		cmp	r4, #196608
 2021 002c 05D3     		bcc	.L198
 2022              		.loc 1 1105 11 discriminator 1 view .LVU608
 2023 002e 03F15043 		add	r3, r3, #-805306368
 2024 0032 013B     		subs	r3, r3, #1
 2025 0034 B3F5403F 		cmp	r3, #196608
 2026 0038 07D2     		bcs	.L197
 2027              	.L198:
1106:../../Drivers/STM32L5xx_HAL_Driver/Src/stm32l5xx_hal_gtzc.c ****                                 + (NbSuperBlocks * GTZC_MPCBB_SUPERBLOCK_SIZE)
1107:../../Drivers/STM32L5xx_HAL_Driver/Src/stm32l5xx_hal_gtzc.c ****                                 - 1U))))
1108:../../Drivers/STM32L5xx_HAL_Driver/Src/stm32l5xx_hal_gtzc.c ****   {
1109:../../Drivers/STM32L5xx_HAL_Driver/Src/stm32l5xx_hal_gtzc.c ****     base_address = GTZC_BASE_ADDRESS(SRAM1);
 2028              		.loc 1 1109 5 is_stmt 1 view .LVU609
 2029              	.LVL194:
1110:../../Drivers/STM32L5xx_HAL_Driver/Src/stm32l5xx_hal_gtzc.c ****     /* limitation: code not portable with memory > 256K */
1111:../../Drivers/STM32L5xx_HAL_Driver/Src/stm32l5xx_hal_gtzc.c ****     reg_mpcbb = GTZC_MPCBB1_S->LCKVTR1;
 2030              		.loc 1 1111 5 view .LVU610
 2031              		.loc 1 1111 15 is_stmt 0 view .LVU611
 2032 003a 1E4B     		ldr	r3, .L208
 2033 003c 1C69     		ldr	r4, [r3, #16]
 2034              	.LVL195:
1109:../../Drivers/STM32L5xx_HAL_Driver/Src/stm32l5xx_hal_gtzc.c ****     /* limitation: code not portable with memory > 256K */
 2035              		.loc 1 1109 18 view .LVU612
 2036 003e 4FF04053 		mov	r3, #805306368
 2037              	.LVL196:
 2038              	.L199:
1112:../../Drivers/STM32L5xx_HAL_Driver/Src/stm32l5xx_hal_gtzc.c ****   }
1113:../../Drivers/STM32L5xx_HAL_Driver/Src/stm32l5xx_hal_gtzc.c ****   else if ((IS_ADDRESS_IN(SRAM2, MemAddress))
1114:../../Drivers/STM32L5xx_HAL_Driver/Src/stm32l5xx_hal_gtzc.c ****            && (IS_ADDRESS_IN(SRAM2, (MemAddress
1115:../../Drivers/STM32L5xx_HAL_Driver/Src/stm32l5xx_hal_gtzc.c ****                                      + (NbSuperBlocks * GTZC_MPCBB_SUPERBLOCK_SIZE)
1116:../../Drivers/STM32L5xx_HAL_Driver/Src/stm32l5xx_hal_gtzc.c ****                                      - 1U))))
1117:../../Drivers/STM32L5xx_HAL_Driver/Src/stm32l5xx_hal_gtzc.c ****   {
1118:../../Drivers/STM32L5xx_HAL_Driver/Src/stm32l5xx_hal_gtzc.c ****     base_address = GTZC_BASE_ADDRESS(SRAM2);
1119:../../Drivers/STM32L5xx_HAL_Driver/Src/stm32l5xx_hal_gtzc.c ****     /* limitation: code not portable with memory > 256K */
1120:../../Drivers/STM32L5xx_HAL_Driver/Src/stm32l5xx_hal_gtzc.c ****     reg_mpcbb = GTZC_MPCBB2_S->LCKVTR1;
1121:../../Drivers/STM32L5xx_HAL_Driver/Src/stm32l5xx_hal_gtzc.c ****   }
1122:../../Drivers/STM32L5xx_HAL_Driver/Src/stm32l5xx_hal_gtzc.c ****   else
1123:../../Drivers/STM32L5xx_HAL_Driver/Src/stm32l5xx_hal_gtzc.c ****   {
1124:../../Drivers/STM32L5xx_HAL_Driver/Src/stm32l5xx_hal_gtzc.c ****     return HAL_ERROR;
1125:../../Drivers/STM32L5xx_HAL_Driver/Src/stm32l5xx_hal_gtzc.c ****   }
1126:../../Drivers/STM32L5xx_HAL_Driver/Src/stm32l5xx_hal_gtzc.c **** 
ARM GAS  /tmp/cczkRLel.s 			page 60


1127:../../Drivers/STM32L5xx_HAL_Driver/Src/stm32l5xx_hal_gtzc.c ****   /* get start coordinates of the configuration */
1128:../../Drivers/STM32L5xx_HAL_Driver/Src/stm32l5xx_hal_gtzc.c ****   superblock_start = (MemAddress - base_address) / GTZC_MPCBB_SUPERBLOCK_SIZE;
 2039              		.loc 1 1128 3 is_stmt 1 view .LVU613
 2040              		.loc 1 1128 34 is_stmt 0 view .LVU614
 2041 0042 C01A     		subs	r0, r0, r3
 2042              	.LVL197:
1129:../../Drivers/STM32L5xx_HAL_Driver/Src/stm32l5xx_hal_gtzc.c ****   offset_bit_start = superblock_start % 32U;
 2043              		.loc 1 1129 3 is_stmt 1 view .LVU615
 2044              		.loc 1 1129 20 is_stmt 0 view .LVU616
 2045 0044 C0F34430 		ubfx	r0, r0, #13, #5
 2046              	.LVL198:
1130:../../Drivers/STM32L5xx_HAL_Driver/Src/stm32l5xx_hal_gtzc.c **** 
1131:../../Drivers/STM32L5xx_HAL_Driver/Src/stm32l5xx_hal_gtzc.c ****   for (i = 0U; i < NbSuperBlocks; i++)
 2047              		.loc 1 1131 3 is_stmt 1 view .LVU617
 2048              		.loc 1 1131 3 is_stmt 0 view .LVU618
 2049 0048 29E0     		b	.L202
 2050              	.LVL199:
 2051              	.L197:
1113:../../Drivers/STM32L5xx_HAL_Driver/Src/stm32l5xx_hal_gtzc.c ****            && (IS_ADDRESS_IN(SRAM2, (MemAddress
 2052              		.loc 1 1113 8 is_stmt 1 view .LVU619
1113:../../Drivers/STM32L5xx_HAL_Driver/Src/stm32l5xx_hal_gtzc.c ****            && (IS_ADDRESS_IN(SRAM2, (MemAddress
 2053              		.loc 1 1113 13 is_stmt 0 view .LVU620
 2054 004a 00F15F43 		add	r3, r0, #-553648128
 2055 004e 03F57D03 		add	r3, r3, #16580608
1113:../../Drivers/STM32L5xx_HAL_Driver/Src/stm32l5xx_hal_gtzc.c ****            && (IS_ADDRESS_IN(SRAM2, (MemAddress
 2056              		.loc 1 1113 11 view .LVU621
 2057 0052 B3F5803F 		cmp	r3, #65536
 2058 0056 06D3     		bcc	.L200
1113:../../Drivers/STM32L5xx_HAL_Driver/Src/stm32l5xx_hal_gtzc.c ****            && (IS_ADDRESS_IN(SRAM2, (MemAddress
 2059              		.loc 1 1113 13 discriminator 1 view .LVU622
 2060 0058 00F14F43 		add	r3, r0, #-822083584
 2061 005c 03F57D03 		add	r3, r3, #16580608
 2062 0060 B3F5803F 		cmp	r3, #65536
 2063 0064 22D2     		bcs	.L205
 2064              	.L200:
1114:../../Drivers/STM32L5xx_HAL_Driver/Src/stm32l5xx_hal_gtzc.c ****                                      + (NbSuperBlocks * GTZC_MPCBB_SUPERBLOCK_SIZE)
 2065              		.loc 1 1114 16 view .LVU623
 2066 0066 00EB4134 		add	r4, r0, r1, lsl #13
 2067 006a 134B     		ldr	r3, .L208+4
 2068 006c 2344     		add	r3, r3, r4
1114:../../Drivers/STM32L5xx_HAL_Driver/Src/stm32l5xx_hal_gtzc.c ****                                      + (NbSuperBlocks * GTZC_MPCBB_SUPERBLOCK_SIZE)
 2069              		.loc 1 1114 12 view .LVU624
 2070 006e B3F5803F 		cmp	r3, #65536
 2071 0072 04D3     		bcc	.L201
1114:../../Drivers/STM32L5xx_HAL_Driver/Src/stm32l5xx_hal_gtzc.c ****                                      + (NbSuperBlocks * GTZC_MPCBB_SUPERBLOCK_SIZE)
 2072              		.loc 1 1114 16 discriminator 1 view .LVU625
 2073 0074 114B     		ldr	r3, .L208+8
 2074 0076 2344     		add	r3, r3, r4
 2075 0078 B3F5803F 		cmp	r3, #65536
 2076 007c 18D2     		bcs	.L206
 2077              	.L201:
1118:../../Drivers/STM32L5xx_HAL_Driver/Src/stm32l5xx_hal_gtzc.c ****     /* limitation: code not portable with memory > 256K */
 2078              		.loc 1 1118 5 is_stmt 1 view .LVU626
 2079              	.LVL200:
1120:../../Drivers/STM32L5xx_HAL_Driver/Src/stm32l5xx_hal_gtzc.c ****   }
 2080              		.loc 1 1120 5 view .LVU627
1120:../../Drivers/STM32L5xx_HAL_Driver/Src/stm32l5xx_hal_gtzc.c ****   }
ARM GAS  /tmp/cczkRLel.s 			page 61


 2081              		.loc 1 1120 15 is_stmt 0 view .LVU628
 2082 007e 104B     		ldr	r3, .L208+12
 2083 0080 1C69     		ldr	r4, [r3, #16]
 2084              	.LVL201:
1118:../../Drivers/STM32L5xx_HAL_Driver/Src/stm32l5xx_hal_gtzc.c ****     /* limitation: code not portable with memory > 256K */
 2085              		.loc 1 1118 18 view .LVU629
 2086 0082 104B     		ldr	r3, .L208+16
1120:../../Drivers/STM32L5xx_HAL_Driver/Src/stm32l5xx_hal_gtzc.c ****   }
 2087              		.loc 1 1120 15 view .LVU630
 2088 0084 DDE7     		b	.L199
 2089              	.LVL202:
 2090              	.L203:
1132:../../Drivers/STM32L5xx_HAL_Driver/Src/stm32l5xx_hal_gtzc.c ****   {
1133:../../Drivers/STM32L5xx_HAL_Driver/Src/stm32l5xx_hal_gtzc.c ****     pLockAttributes[i] = (reg_mpcbb & (1UL << (offset_bit_start % 32U)))
 2091              		.loc 1 1133 5 is_stmt 1 discriminator 3 view .LVU631
 2092              		.loc 1 1133 65 is_stmt 0 discriminator 3 view .LVU632
 2093 0086 00F01F0C 		and	ip, r0, #31
 2094              		.loc 1 1133 44 discriminator 3 view .LVU633
 2095 008a 0123     		movs	r3, #1
 2096 008c 03FA0CF3 		lsl	r3, r3, ip
 2097              		.loc 1 1133 37 discriminator 3 view .LVU634
 2098 0090 2340     		ands	r3, r3, r4
1134:../../Drivers/STM32L5xx_HAL_Driver/Src/stm32l5xx_hal_gtzc.c ****                          >> (offset_bit_start % 32U);
 2099              		.loc 1 1134 26 discriminator 3 view .LVU635
 2100 0092 23FA0CF3 		lsr	r3, r3, ip
1133:../../Drivers/STM32L5xx_HAL_Driver/Src/stm32l5xx_hal_gtzc.c ****                          >> (offset_bit_start % 32U);
 2101              		.loc 1 1133 24 discriminator 3 view .LVU636
 2102 0096 42F82530 		str	r3, [r2, r5, lsl #2]
1135:../../Drivers/STM32L5xx_HAL_Driver/Src/stm32l5xx_hal_gtzc.c ****     offset_bit_start++;
 2103              		.loc 1 1135 5 is_stmt 1 discriminator 3 view .LVU637
 2104              		.loc 1 1135 21 is_stmt 0 discriminator 3 view .LVU638
 2105 009a 0130     		adds	r0, r0, #1
 2106              	.LVL203:
1131:../../Drivers/STM32L5xx_HAL_Driver/Src/stm32l5xx_hal_gtzc.c ****   {
 2107              		.loc 1 1131 36 is_stmt 1 discriminator 3 view .LVU639
 2108 009c 0135     		adds	r5, r5, #1
 2109              	.LVL204:
 2110              	.L202:
1131:../../Drivers/STM32L5xx_HAL_Driver/Src/stm32l5xx_hal_gtzc.c ****   {
 2111              		.loc 1 1131 18 discriminator 1 view .LVU640
 2112 009e 8D42     		cmp	r5, r1
 2113 00a0 F1D3     		bcc	.L203
1136:../../Drivers/STM32L5xx_HAL_Driver/Src/stm32l5xx_hal_gtzc.c ****   }
1137:../../Drivers/STM32L5xx_HAL_Driver/Src/stm32l5xx_hal_gtzc.c **** 
1138:../../Drivers/STM32L5xx_HAL_Driver/Src/stm32l5xx_hal_gtzc.c ****   return HAL_OK;
 2114              		.loc 1 1138 10 is_stmt 0 view .LVU641
 2115 00a2 0020     		movs	r0, #0
 2116              	.LVL205:
 2117              	.L195:
1139:../../Drivers/STM32L5xx_HAL_Driver/Src/stm32l5xx_hal_gtzc.c **** }
 2118              		.loc 1 1139 1 view .LVU642
 2119 00a4 30BC     		pop	{r4, r5}
 2120              	.LCFI23:
 2121              		.cfi_remember_state
 2122              		.cfi_restore 5
 2123              		.cfi_restore 4
 2124              		.cfi_def_cfa_offset 0
ARM GAS  /tmp/cczkRLel.s 			page 62


 2125 00a6 7047     		bx	lr
 2126              	.LVL206:
 2127              	.L204:
 2128              	.LCFI24:
 2129              		.cfi_restore_state
1100:../../Drivers/STM32L5xx_HAL_Driver/Src/stm32l5xx_hal_gtzc.c ****   }
 2130              		.loc 1 1100 12 view .LVU643
 2131 00a8 0120     		movs	r0, #1
 2132              	.LVL207:
1100:../../Drivers/STM32L5xx_HAL_Driver/Src/stm32l5xx_hal_gtzc.c ****   }
 2133              		.loc 1 1100 12 view .LVU644
 2134 00aa FBE7     		b	.L195
 2135              	.LVL208:
 2136              	.L205:
1124:../../Drivers/STM32L5xx_HAL_Driver/Src/stm32l5xx_hal_gtzc.c ****   }
 2137              		.loc 1 1124 12 view .LVU645
 2138 00ac 0120     		movs	r0, #1
 2139              	.LVL209:
1124:../../Drivers/STM32L5xx_HAL_Driver/Src/stm32l5xx_hal_gtzc.c ****   }
 2140              		.loc 1 1124 12 view .LVU646
 2141 00ae F9E7     		b	.L195
 2142              	.LVL210:
 2143              	.L206:
1124:../../Drivers/STM32L5xx_HAL_Driver/Src/stm32l5xx_hal_gtzc.c ****   }
 2144              		.loc 1 1124 12 view .LVU647
 2145 00b0 0120     		movs	r0, #1
 2146              	.LVL211:
1124:../../Drivers/STM32L5xx_HAL_Driver/Src/stm32l5xx_hal_gtzc.c ****   }
 2147              		.loc 1 1124 12 view .LVU648
 2148 00b2 F7E7     		b	.L195
 2149              	.L209:
 2150              		.align	2
 2151              	.L208:
 2152 00b4 002C0350 		.word	1342385152
 2153 00b8 FFFFFCDF 		.word	-537067521
 2154 00bc FFFFFCCF 		.word	-805502977
 2155 00c0 00300350 		.word	1342386176
 2156 00c4 00000330 		.word	805502976
 2157              		.cfi_endproc
 2158              	.LFE213:
 2160              		.section	.text.HAL_GTZC_MPCBB_Lock,"ax",%progbits
 2161              		.align	1
 2162              		.global	HAL_GTZC_MPCBB_Lock
 2163              		.syntax unified
 2164              		.thumb
 2165              		.thumb_func
 2167              	HAL_GTZC_MPCBB_Lock:
 2168              	.LVL212:
 2169              	.LFB214:
1140:../../Drivers/STM32L5xx_HAL_Driver/Src/stm32l5xx_hal_gtzc.c **** 
1141:../../Drivers/STM32L5xx_HAL_Driver/Src/stm32l5xx_hal_gtzc.c **** /**
1142:../../Drivers/STM32L5xx_HAL_Driver/Src/stm32l5xx_hal_gtzc.c ****   * @brief  Lock a MPCBB configuration on the SRAM base address passed as parameter.
1143:../../Drivers/STM32L5xx_HAL_Driver/Src/stm32l5xx_hal_gtzc.c ****   * @param  MemBaseAddress MPCBB identifier.
1144:../../Drivers/STM32L5xx_HAL_Driver/Src/stm32l5xx_hal_gtzc.c ****   * @retval HAL status.
1145:../../Drivers/STM32L5xx_HAL_Driver/Src/stm32l5xx_hal_gtzc.c ****   */
1146:../../Drivers/STM32L5xx_HAL_Driver/Src/stm32l5xx_hal_gtzc.c **** HAL_StatusTypeDef HAL_GTZC_MPCBB_Lock(uint32_t MemBaseAddress)
1147:../../Drivers/STM32L5xx_HAL_Driver/Src/stm32l5xx_hal_gtzc.c **** {
ARM GAS  /tmp/cczkRLel.s 			page 63


 2170              		.loc 1 1147 1 is_stmt 1 view -0
 2171              		.cfi_startproc
 2172              		@ args = 0, pretend = 0, frame = 0
 2173              		@ frame_needed = 0, uses_anonymous_args = 0
 2174              		@ link register save eliminated.
1148:../../Drivers/STM32L5xx_HAL_Driver/Src/stm32l5xx_hal_gtzc.c ****   /* check entry parameters */
1149:../../Drivers/STM32L5xx_HAL_Driver/Src/stm32l5xx_hal_gtzc.c ****   if (IS_GTZC_BASE_ADDRESS(SRAM1, MemBaseAddress))
 2175              		.loc 1 1149 3 view .LVU650
 2176              		.loc 1 1149 6 is_stmt 0 view .LVU651
 2177 0000 B0F1005F 		cmp	r0, #536870912
 2178 0004 10D0     		beq	.L211
 2179              		.loc 1 1149 7 discriminator 1 view .LVU652
 2180 0006 B0F1405F 		cmp	r0, #805306368
 2181 000a 0DD0     		beq	.L211
1150:../../Drivers/STM32L5xx_HAL_Driver/Src/stm32l5xx_hal_gtzc.c ****   {
1151:../../Drivers/STM32L5xx_HAL_Driver/Src/stm32l5xx_hal_gtzc.c ****     SET_BIT(GTZC_MPCBB1_S->CR, GTZC_MPCBB_CR_LCK_Msk);
1152:../../Drivers/STM32L5xx_HAL_Driver/Src/stm32l5xx_hal_gtzc.c ****   }
1153:../../Drivers/STM32L5xx_HAL_Driver/Src/stm32l5xx_hal_gtzc.c ****   else if (IS_GTZC_BASE_ADDRESS(SRAM2, MemBaseAddress))
 2182              		.loc 1 1153 8 is_stmt 1 view .LVU653
 2183              		.loc 1 1153 11 is_stmt 0 view .LVU654
 2184 000c 0B4B     		ldr	r3, .L216
 2185 000e 9842     		cmp	r0, r3
 2186 0010 03D0     		beq	.L214
 2187              		.loc 1 1153 12 discriminator 1 view .LVU655
 2188 0012 03F18053 		add	r3, r3, #268435456
 2189 0016 9842     		cmp	r0, r3
 2190 0018 0DD1     		bne	.L215
 2191              	.L214:
1154:../../Drivers/STM32L5xx_HAL_Driver/Src/stm32l5xx_hal_gtzc.c ****   {
1155:../../Drivers/STM32L5xx_HAL_Driver/Src/stm32l5xx_hal_gtzc.c ****     SET_BIT(GTZC_MPCBB2_S->CR, GTZC_MPCBB_CR_LCK_Msk);
 2192              		.loc 1 1155 5 is_stmt 1 view .LVU656
 2193 001a 094A     		ldr	r2, .L216+4
 2194 001c 1368     		ldr	r3, [r2]
 2195 001e 43F00103 		orr	r3, r3, #1
 2196 0022 1360     		str	r3, [r2]
1156:../../Drivers/STM32L5xx_HAL_Driver/Src/stm32l5xx_hal_gtzc.c ****   }
1157:../../Drivers/STM32L5xx_HAL_Driver/Src/stm32l5xx_hal_gtzc.c ****   else
1158:../../Drivers/STM32L5xx_HAL_Driver/Src/stm32l5xx_hal_gtzc.c ****   {
1159:../../Drivers/STM32L5xx_HAL_Driver/Src/stm32l5xx_hal_gtzc.c ****     return HAL_ERROR;
1160:../../Drivers/STM32L5xx_HAL_Driver/Src/stm32l5xx_hal_gtzc.c ****   }
1161:../../Drivers/STM32L5xx_HAL_Driver/Src/stm32l5xx_hal_gtzc.c **** 
1162:../../Drivers/STM32L5xx_HAL_Driver/Src/stm32l5xx_hal_gtzc.c ****   return HAL_OK;
 2197              		.loc 1 1162 10 is_stmt 0 view .LVU657
 2198 0024 0020     		movs	r0, #0
 2199              	.LVL213:
1155:../../Drivers/STM32L5xx_HAL_Driver/Src/stm32l5xx_hal_gtzc.c ****   }
 2200              		.loc 1 1155 5 view .LVU658
 2201 0026 7047     		bx	lr
 2202              	.LVL214:
 2203              	.L211:
1151:../../Drivers/STM32L5xx_HAL_Driver/Src/stm32l5xx_hal_gtzc.c ****   }
 2204              		.loc 1 1151 5 is_stmt 1 view .LVU659
 2205 0028 064A     		ldr	r2, .L216+8
 2206 002a 1368     		ldr	r3, [r2]
 2207 002c 43F00103 		orr	r3, r3, #1
 2208 0030 1360     		str	r3, [r2]
 2209              		.loc 1 1162 10 is_stmt 0 view .LVU660
ARM GAS  /tmp/cczkRLel.s 			page 64


 2210 0032 0020     		movs	r0, #0
 2211              	.LVL215:
1151:../../Drivers/STM32L5xx_HAL_Driver/Src/stm32l5xx_hal_gtzc.c ****   }
 2212              		.loc 1 1151 5 view .LVU661
 2213 0034 7047     		bx	lr
 2214              	.LVL216:
 2215              	.L215:
1159:../../Drivers/STM32L5xx_HAL_Driver/Src/stm32l5xx_hal_gtzc.c ****   }
 2216              		.loc 1 1159 12 view .LVU662
 2217 0036 0120     		movs	r0, #1
 2218              	.LVL217:
1163:../../Drivers/STM32L5xx_HAL_Driver/Src/stm32l5xx_hal_gtzc.c **** }
 2219              		.loc 1 1163 1 view .LVU663
 2220 0038 7047     		bx	lr
 2221              	.L217:
 2222 003a 00BF     		.align	2
 2223              	.L216:
 2224 003c 00000320 		.word	537067520
 2225 0040 00300350 		.word	1342386176
 2226 0044 002C0350 		.word	1342385152
 2227              		.cfi_endproc
 2228              	.LFE214:
 2230              		.section	.text.HAL_GTZC_MPCBB_GetLock,"ax",%progbits
 2231              		.align	1
 2232              		.global	HAL_GTZC_MPCBB_GetLock
 2233              		.syntax unified
 2234              		.thumb
 2235              		.thumb_func
 2237              	HAL_GTZC_MPCBB_GetLock:
 2238              	.LVL218:
 2239              	.LFB215:
1164:../../Drivers/STM32L5xx_HAL_Driver/Src/stm32l5xx_hal_gtzc.c **** 
1165:../../Drivers/STM32L5xx_HAL_Driver/Src/stm32l5xx_hal_gtzc.c **** /**
1166:../../Drivers/STM32L5xx_HAL_Driver/Src/stm32l5xx_hal_gtzc.c ****   * @brief  Get MPCBB configuration lock state on the SRAM base address passed as parameter.
1167:../../Drivers/STM32L5xx_HAL_Driver/Src/stm32l5xx_hal_gtzc.c ****   * @param  MemBaseAddress MPCBB identifier.
1168:../../Drivers/STM32L5xx_HAL_Driver/Src/stm32l5xx_hal_gtzc.c ****   * @param  pLockState pointer to Lock State (GTZC_MCPBB_LOCK_OFF or GTZC_MCPBB_LOCK_ON).
1169:../../Drivers/STM32L5xx_HAL_Driver/Src/stm32l5xx_hal_gtzc.c ****   * @retval HAL status.
1170:../../Drivers/STM32L5xx_HAL_Driver/Src/stm32l5xx_hal_gtzc.c ****   */
1171:../../Drivers/STM32L5xx_HAL_Driver/Src/stm32l5xx_hal_gtzc.c **** HAL_StatusTypeDef HAL_GTZC_MPCBB_GetLock(uint32_t MemBaseAddress,
1172:../../Drivers/STM32L5xx_HAL_Driver/Src/stm32l5xx_hal_gtzc.c ****                                          uint32_t *pLockState)
1173:../../Drivers/STM32L5xx_HAL_Driver/Src/stm32l5xx_hal_gtzc.c **** {
 2240              		.loc 1 1173 1 is_stmt 1 view -0
 2241              		.cfi_startproc
 2242              		@ args = 0, pretend = 0, frame = 0
 2243              		@ frame_needed = 0, uses_anonymous_args = 0
 2244              		@ link register save eliminated.
1174:../../Drivers/STM32L5xx_HAL_Driver/Src/stm32l5xx_hal_gtzc.c ****   /* check entry parameters */
1175:../../Drivers/STM32L5xx_HAL_Driver/Src/stm32l5xx_hal_gtzc.c ****   if (IS_GTZC_BASE_ADDRESS(SRAM1, MemBaseAddress))
 2245              		.loc 1 1175 3 view .LVU665
 2246              		.loc 1 1175 6 is_stmt 0 view .LVU666
 2247 0000 B0F1005F 		cmp	r0, #536870912
 2248 0004 10D0     		beq	.L219
 2249              		.loc 1 1175 7 discriminator 1 view .LVU667
 2250 0006 B0F1405F 		cmp	r0, #805306368
 2251 000a 0DD0     		beq	.L219
1176:../../Drivers/STM32L5xx_HAL_Driver/Src/stm32l5xx_hal_gtzc.c ****   {
1177:../../Drivers/STM32L5xx_HAL_Driver/Src/stm32l5xx_hal_gtzc.c ****     *pLockState = READ_BIT(GTZC_MPCBB1_S->CR, GTZC_MPCBB_CR_LCK_Msk);
ARM GAS  /tmp/cczkRLel.s 			page 65


1178:../../Drivers/STM32L5xx_HAL_Driver/Src/stm32l5xx_hal_gtzc.c ****   }
1179:../../Drivers/STM32L5xx_HAL_Driver/Src/stm32l5xx_hal_gtzc.c ****   else if (IS_GTZC_BASE_ADDRESS(SRAM2, MemBaseAddress))
 2252              		.loc 1 1179 8 is_stmt 1 view .LVU668
 2253              		.loc 1 1179 11 is_stmt 0 view .LVU669
 2254 000c 0B4B     		ldr	r3, .L224
 2255 000e 9842     		cmp	r0, r3
 2256 0010 03D0     		beq	.L222
 2257              		.loc 1 1179 12 discriminator 1 view .LVU670
 2258 0012 03F18053 		add	r3, r3, #268435456
 2259 0016 9842     		cmp	r0, r3
 2260 0018 0DD1     		bne	.L223
 2261              	.L222:
1180:../../Drivers/STM32L5xx_HAL_Driver/Src/stm32l5xx_hal_gtzc.c ****   {
1181:../../Drivers/STM32L5xx_HAL_Driver/Src/stm32l5xx_hal_gtzc.c ****     *pLockState = READ_BIT(GTZC_MPCBB2_S->CR, GTZC_MPCBB_CR_LCK_Msk);
 2262              		.loc 1 1181 5 is_stmt 1 view .LVU671
 2263              		.loc 1 1181 19 is_stmt 0 view .LVU672
 2264 001a 094B     		ldr	r3, .L224+4
 2265 001c 1B68     		ldr	r3, [r3]
 2266 001e 03F00103 		and	r3, r3, #1
 2267              		.loc 1 1181 17 view .LVU673
 2268 0022 0B60     		str	r3, [r1]
1182:../../Drivers/STM32L5xx_HAL_Driver/Src/stm32l5xx_hal_gtzc.c ****   }
1183:../../Drivers/STM32L5xx_HAL_Driver/Src/stm32l5xx_hal_gtzc.c ****   else
1184:../../Drivers/STM32L5xx_HAL_Driver/Src/stm32l5xx_hal_gtzc.c ****   {
1185:../../Drivers/STM32L5xx_HAL_Driver/Src/stm32l5xx_hal_gtzc.c ****     return HAL_ERROR;
1186:../../Drivers/STM32L5xx_HAL_Driver/Src/stm32l5xx_hal_gtzc.c ****   }
1187:../../Drivers/STM32L5xx_HAL_Driver/Src/stm32l5xx_hal_gtzc.c **** 
1188:../../Drivers/STM32L5xx_HAL_Driver/Src/stm32l5xx_hal_gtzc.c ****   return HAL_OK;
 2269              		.loc 1 1188 10 view .LVU674
 2270 0024 0020     		movs	r0, #0
 2271              	.LVL219:
1181:../../Drivers/STM32L5xx_HAL_Driver/Src/stm32l5xx_hal_gtzc.c ****   }
 2272              		.loc 1 1181 17 view .LVU675
 2273 0026 7047     		bx	lr
 2274              	.LVL220:
 2275              	.L219:
1177:../../Drivers/STM32L5xx_HAL_Driver/Src/stm32l5xx_hal_gtzc.c ****   }
 2276              		.loc 1 1177 5 is_stmt 1 view .LVU676
1177:../../Drivers/STM32L5xx_HAL_Driver/Src/stm32l5xx_hal_gtzc.c ****   }
 2277              		.loc 1 1177 19 is_stmt 0 view .LVU677
 2278 0028 064B     		ldr	r3, .L224+8
 2279 002a 1B68     		ldr	r3, [r3]
 2280 002c 03F00103 		and	r3, r3, #1
1177:../../Drivers/STM32L5xx_HAL_Driver/Src/stm32l5xx_hal_gtzc.c ****   }
 2281              		.loc 1 1177 17 view .LVU678
 2282 0030 0B60     		str	r3, [r1]
 2283              		.loc 1 1188 10 view .LVU679
 2284 0032 0020     		movs	r0, #0
 2285              	.LVL221:
1177:../../Drivers/STM32L5xx_HAL_Driver/Src/stm32l5xx_hal_gtzc.c ****   }
 2286              		.loc 1 1177 17 view .LVU680
 2287 0034 7047     		bx	lr
 2288              	.LVL222:
 2289              	.L223:
1185:../../Drivers/STM32L5xx_HAL_Driver/Src/stm32l5xx_hal_gtzc.c ****   }
 2290              		.loc 1 1185 12 view .LVU681
 2291 0036 0120     		movs	r0, #1
ARM GAS  /tmp/cczkRLel.s 			page 66


 2292              	.LVL223:
1189:../../Drivers/STM32L5xx_HAL_Driver/Src/stm32l5xx_hal_gtzc.c **** }
 2293              		.loc 1 1189 1 view .LVU682
 2294 0038 7047     		bx	lr
 2295              	.L225:
 2296 003a 00BF     		.align	2
 2297              	.L224:
 2298 003c 00000320 		.word	537067520
 2299 0040 00300350 		.word	1342386176
 2300 0044 002C0350 		.word	1342385152
 2301              		.cfi_endproc
 2302              	.LFE215:
 2304              		.section	.text.HAL_GTZC_TZIC_DisableIT,"ax",%progbits
 2305              		.align	1
 2306              		.global	HAL_GTZC_TZIC_DisableIT
 2307              		.syntax unified
 2308              		.thumb
 2309              		.thumb_func
 2311              	HAL_GTZC_TZIC_DisableIT:
 2312              	.LVL224:
 2313              	.LFB216:
1190:../../Drivers/STM32L5xx_HAL_Driver/Src/stm32l5xx_hal_gtzc.c **** 
1191:../../Drivers/STM32L5xx_HAL_Driver/Src/stm32l5xx_hal_gtzc.c **** /**
1192:../../Drivers/STM32L5xx_HAL_Driver/Src/stm32l5xx_hal_gtzc.c ****   * @}
1193:../../Drivers/STM32L5xx_HAL_Driver/Src/stm32l5xx_hal_gtzc.c ****   */
1194:../../Drivers/STM32L5xx_HAL_Driver/Src/stm32l5xx_hal_gtzc.c **** 
1195:../../Drivers/STM32L5xx_HAL_Driver/Src/stm32l5xx_hal_gtzc.c **** /** @defgroup GTZC_Exported_Functions_Group5 TZIC Configuration and Control functions
1196:../../Drivers/STM32L5xx_HAL_Driver/Src/stm32l5xx_hal_gtzc.c ****   * @brief    TZIC Configuration and Control functions
1197:../../Drivers/STM32L5xx_HAL_Driver/Src/stm32l5xx_hal_gtzc.c ****   *
1198:../../Drivers/STM32L5xx_HAL_Driver/Src/stm32l5xx_hal_gtzc.c ****   @verbatim
1199:../../Drivers/STM32L5xx_HAL_Driver/Src/stm32l5xx_hal_gtzc.c ****   ==============================================================================
1200:../../Drivers/STM32L5xx_HAL_Driver/Src/stm32l5xx_hal_gtzc.c ****             ##### TZIC Configuration and Control functions #####
1201:../../Drivers/STM32L5xx_HAL_Driver/Src/stm32l5xx_hal_gtzc.c ****   ==============================================================================
1202:../../Drivers/STM32L5xx_HAL_Driver/Src/stm32l5xx_hal_gtzc.c ****   [..]
1203:../../Drivers/STM32L5xx_HAL_Driver/Src/stm32l5xx_hal_gtzc.c ****     This section provides functions allowing to configure and control TZIC
1204:../../Drivers/STM32L5xx_HAL_Driver/Src/stm32l5xx_hal_gtzc.c ****     TZIC is Trust Zone Interrupt Controller
1205:../../Drivers/STM32L5xx_HAL_Driver/Src/stm32l5xx_hal_gtzc.c **** @endverbatim
1206:../../Drivers/STM32L5xx_HAL_Driver/Src/stm32l5xx_hal_gtzc.c ****   * @{
1207:../../Drivers/STM32L5xx_HAL_Driver/Src/stm32l5xx_hal_gtzc.c ****   */
1208:../../Drivers/STM32L5xx_HAL_Driver/Src/stm32l5xx_hal_gtzc.c **** 
1209:../../Drivers/STM32L5xx_HAL_Driver/Src/stm32l5xx_hal_gtzc.c **** /**
1210:../../Drivers/STM32L5xx_HAL_Driver/Src/stm32l5xx_hal_gtzc.c ****   * @brief  Disable the interrupt associated to a single TZIC peripheral or on all peripherals.
1211:../../Drivers/STM32L5xx_HAL_Driver/Src/stm32l5xx_hal_gtzc.c ****   * @param  PeriphId Peripheral identifier.
1212:../../Drivers/STM32L5xx_HAL_Driver/Src/stm32l5xx_hal_gtzc.c ****   *         This parameter can be a value of @ref GTZC_TZSC_TZIC_PeriphId.
1213:../../Drivers/STM32L5xx_HAL_Driver/Src/stm32l5xx_hal_gtzc.c ****   *         Use GTZC_PERIPH_ALL to select all peripherals.
1214:../../Drivers/STM32L5xx_HAL_Driver/Src/stm32l5xx_hal_gtzc.c ****   * @retval HAL status.
1215:../../Drivers/STM32L5xx_HAL_Driver/Src/stm32l5xx_hal_gtzc.c ****   */
1216:../../Drivers/STM32L5xx_HAL_Driver/Src/stm32l5xx_hal_gtzc.c **** HAL_StatusTypeDef HAL_GTZC_TZIC_DisableIT(uint32_t PeriphId)
1217:../../Drivers/STM32L5xx_HAL_Driver/Src/stm32l5xx_hal_gtzc.c **** {
 2314              		.loc 1 1217 1 is_stmt 1 view -0
 2315              		.cfi_startproc
 2316              		@ args = 0, pretend = 0, frame = 0
 2317              		@ frame_needed = 0, uses_anonymous_args = 0
 2318              		@ link register save eliminated.
1218:../../Drivers/STM32L5xx_HAL_Driver/Src/stm32l5xx_hal_gtzc.c ****   uint32_t register_address;
 2319              		.loc 1 1218 3 view .LVU684
1219:../../Drivers/STM32L5xx_HAL_Driver/Src/stm32l5xx_hal_gtzc.c **** 
ARM GAS  /tmp/cczkRLel.s 			page 67


1220:../../Drivers/STM32L5xx_HAL_Driver/Src/stm32l5xx_hal_gtzc.c ****   /* check entry parameters */
1221:../../Drivers/STM32L5xx_HAL_Driver/Src/stm32l5xx_hal_gtzc.c ****   if ((HAL_GTZC_GET_ARRAY_INDEX(PeriphId) >= GTZC_TZIC_PERIPH_NUMBER)
 2320              		.loc 1 1221 3 view .LVU685
 2321              		.loc 1 1221 8 is_stmt 0 view .LVU686
 2322 0000 030F     		lsrs	r3, r0, #28
 2323 0002 00F01F01 		and	r1, r0, #31
 2324 0006 01EB4312 		add	r2, r1, r3, lsl #5
 2325              		.loc 1 1221 6 view .LVU687
 2326 000a 472A     		cmp	r2, #71
 2327 000c 18D8     		bhi	.L230
1222:../../Drivers/STM32L5xx_HAL_Driver/Src/stm32l5xx_hal_gtzc.c ****       || (((PeriphId & GTZC_PERIPH_ALL) != 0U) && (HAL_GTZC_GET_ARRAY_INDEX(PeriphId) != 0U)))
 2328              		.loc 1 1222 7 view .LVU688
 2329 000e 10F02000 		ands	r0, r0, #32
 2330              	.LVL225:
 2331              		.loc 1 1222 7 view .LVU689
 2332 0012 00D0     		beq	.L228
 2333              		.loc 1 1222 48 discriminator 1 view .LVU690
 2334 0014 B2B9     		cbnz	r2, .L231
 2335              	.L228:
1223:../../Drivers/STM32L5xx_HAL_Driver/Src/stm32l5xx_hal_gtzc.c ****   {
1224:../../Drivers/STM32L5xx_HAL_Driver/Src/stm32l5xx_hal_gtzc.c ****     return HAL_ERROR;
1225:../../Drivers/STM32L5xx_HAL_Driver/Src/stm32l5xx_hal_gtzc.c ****   }
1226:../../Drivers/STM32L5xx_HAL_Driver/Src/stm32l5xx_hal_gtzc.c **** 
1227:../../Drivers/STM32L5xx_HAL_Driver/Src/stm32l5xx_hal_gtzc.c ****   if ((PeriphId & GTZC_PERIPH_ALL) != 0U)
 2336              		.loc 1 1227 3 is_stmt 1 view .LVU691
 2337              		.loc 1 1227 6 is_stmt 0 view .LVU692
 2338 0016 28B1     		cbz	r0, .L229
1228:../../Drivers/STM32L5xx_HAL_Driver/Src/stm32l5xx_hal_gtzc.c ****   {
1229:../../Drivers/STM32L5xx_HAL_Driver/Src/stm32l5xx_hal_gtzc.c ****     /* same configuration is applied to all peripherals */
1230:../../Drivers/STM32L5xx_HAL_Driver/Src/stm32l5xx_hal_gtzc.c ****     WRITE_REG(GTZC_TZIC->IER1, 0U);
 2339              		.loc 1 1230 5 is_stmt 1 view .LVU693
 2340 0018 0B4B     		ldr	r3, .L232
 2341 001a 0020     		movs	r0, #0
 2342 001c 1860     		str	r0, [r3]
1231:../../Drivers/STM32L5xx_HAL_Driver/Src/stm32l5xx_hal_gtzc.c ****     WRITE_REG(GTZC_TZIC->IER2, 0U);
 2343              		.loc 1 1231 5 view .LVU694
 2344 001e 5860     		str	r0, [r3, #4]
1232:../../Drivers/STM32L5xx_HAL_Driver/Src/stm32l5xx_hal_gtzc.c ****     WRITE_REG(GTZC_TZIC->IER3, 0U);
 2345              		.loc 1 1232 5 view .LVU695
 2346 0020 9860     		str	r0, [r3, #8]
 2347 0022 7047     		bx	lr
 2348              	.L229:
1233:../../Drivers/STM32L5xx_HAL_Driver/Src/stm32l5xx_hal_gtzc.c ****   }
1234:../../Drivers/STM32L5xx_HAL_Driver/Src/stm32l5xx_hal_gtzc.c ****   else
1235:../../Drivers/STM32L5xx_HAL_Driver/Src/stm32l5xx_hal_gtzc.c ****   {
1236:../../Drivers/STM32L5xx_HAL_Driver/Src/stm32l5xx_hal_gtzc.c ****     /* common case where only one peripheral is configured */
1237:../../Drivers/STM32L5xx_HAL_Driver/Src/stm32l5xx_hal_gtzc.c ****     register_address = (uint32_t) &(GTZC_TZIC->IER1) + (4U * GTZC_GET_REG_INDEX(PeriphId));
 2349              		.loc 1 1237 5 view .LVU696
 2350              		.loc 1 1237 54 is_stmt 0 view .LVU697
 2351 0024 03F1A053 		add	r3, r3, #335544320
 2352 0028 03F54A43 		add	r3, r3, #51712
 2353              		.loc 1 1237 22 view .LVU698
 2354 002c 9B00     		lsls	r3, r3, #2
 2355              	.LVL226:
1238:../../Drivers/STM32L5xx_HAL_Driver/Src/stm32l5xx_hal_gtzc.c ****     CLEAR_BIT(*(__IO uint32_t *)register_address, 1UL << GTZC_GET_PERIPH_POS(PeriphId));
 2356              		.loc 1 1238 5 is_stmt 1 view .LVU699
 2357 002e 1A68     		ldr	r2, [r3]
ARM GAS  /tmp/cczkRLel.s 			page 68


 2358 0030 0120     		movs	r0, #1
 2359 0032 00FA01F1 		lsl	r1, r0, r1
 2360 0036 22EA0102 		bic	r2, r2, r1
 2361 003a 1A60     		str	r2, [r3]
1239:../../Drivers/STM32L5xx_HAL_Driver/Src/stm32l5xx_hal_gtzc.c ****   }
1240:../../Drivers/STM32L5xx_HAL_Driver/Src/stm32l5xx_hal_gtzc.c **** 
1241:../../Drivers/STM32L5xx_HAL_Driver/Src/stm32l5xx_hal_gtzc.c ****   return HAL_OK;
 2362              		.loc 1 1241 10 is_stmt 0 view .LVU700
 2363 003c 0020     		movs	r0, #0
 2364 003e 7047     		bx	lr
 2365              	.LVL227:
 2366              	.L230:
1224:../../Drivers/STM32L5xx_HAL_Driver/Src/stm32l5xx_hal_gtzc.c ****   }
 2367              		.loc 1 1224 12 view .LVU701
 2368 0040 0120     		movs	r0, #1
 2369              	.LVL228:
1224:../../Drivers/STM32L5xx_HAL_Driver/Src/stm32l5xx_hal_gtzc.c ****   }
 2370              		.loc 1 1224 12 view .LVU702
 2371 0042 7047     		bx	lr
 2372              	.L231:
 2373 0044 0120     		movs	r0, #1
1242:../../Drivers/STM32L5xx_HAL_Driver/Src/stm32l5xx_hal_gtzc.c **** }
 2374              		.loc 1 1242 1 view .LVU703
 2375 0046 7047     		bx	lr
 2376              	.L233:
