ARM GAS  /tmp/ccVsHJds.s 			page 1


   1              		.cpu cortex-m33
   2              		.arch armv8-m.main
   3              		.fpu fpv4-sp-d16
   4              		.arch_extension dsp
   5              		.eabi_attribute 27, 1
   6              		.eabi_attribute 28, 1
   7              		.eabi_attribute 20, 1
   8              		.eabi_attribute 21, 1
   9              		.eabi_attribute 23, 3
  10              		.eabi_attribute 24, 1
  11              		.eabi_attribute 25, 1
  12              		.eabi_attribute 26, 1
  13              		.eabi_attribute 30, 1
  14              		.eabi_attribute 34, 1
  15              		.eabi_attribute 18, 4
  16              		.file	"stm32l5xx_hal_flash_ramfunc.c"
  17              		.text
  18              	.Ltext0:
  19              		.cfi_sections	.debug_frame
  20              		.file 1 "../../Drivers/STM32L5xx_HAL_Driver/Src/stm32l5xx_hal_flash_ramfunc.c"
  21              		.section	.RamFunc,"ax",%progbits
  22              		.align	1
  23              		.global	HAL_FLASHEx_EnableRunPowerDown
  24              		.syntax unified
  25              		.thumb
  26              		.thumb_func
  28              	HAL_FLASHEx_EnableRunPowerDown:
  29              	.LFB202:
   1:../../Drivers/STM32L5xx_HAL_Driver/Src/stm32l5xx_hal_flash_ramfunc.c **** /**
   2:../../Drivers/STM32L5xx_HAL_Driver/Src/stm32l5xx_hal_flash_ramfunc.c ****   ******************************************************************************
   3:../../Drivers/STM32L5xx_HAL_Driver/Src/stm32l5xx_hal_flash_ramfunc.c ****   * @file    stm32l5xx_hal_flash_ramfunc.c
   4:../../Drivers/STM32L5xx_HAL_Driver/Src/stm32l5xx_hal_flash_ramfunc.c ****   * @author  MCD Application Team
   5:../../Drivers/STM32L5xx_HAL_Driver/Src/stm32l5xx_hal_flash_ramfunc.c ****   * @brief   FLASH RAMFUNC driver.
   6:../../Drivers/STM32L5xx_HAL_Driver/Src/stm32l5xx_hal_flash_ramfunc.c ****   *          This file provides a Flash firmware functions which should be
   7:../../Drivers/STM32L5xx_HAL_Driver/Src/stm32l5xx_hal_flash_ramfunc.c ****   *          executed from internal SRAM
   8:../../Drivers/STM32L5xx_HAL_Driver/Src/stm32l5xx_hal_flash_ramfunc.c ****   *            + Option Byte DBANK Programming
   9:../../Drivers/STM32L5xx_HAL_Driver/Src/stm32l5xx_hal_flash_ramfunc.c ****   *            + FLASH Power Down in Run mode
  10:../../Drivers/STM32L5xx_HAL_Driver/Src/stm32l5xx_hal_flash_ramfunc.c ****   *
  11:../../Drivers/STM32L5xx_HAL_Driver/Src/stm32l5xx_hal_flash_ramfunc.c ****   *  @verbatim
  12:../../Drivers/STM32L5xx_HAL_Driver/Src/stm32l5xx_hal_flash_ramfunc.c ****   ==============================================================================
  13:../../Drivers/STM32L5xx_HAL_Driver/Src/stm32l5xx_hal_flash_ramfunc.c ****                    ##### Flash RAM functions #####
  14:../../Drivers/STM32L5xx_HAL_Driver/Src/stm32l5xx_hal_flash_ramfunc.c ****   ==============================================================================
  15:../../Drivers/STM32L5xx_HAL_Driver/Src/stm32l5xx_hal_flash_ramfunc.c **** 
  16:../../Drivers/STM32L5xx_HAL_Driver/Src/stm32l5xx_hal_flash_ramfunc.c ****     *** ARM Compiler ***
  17:../../Drivers/STM32L5xx_HAL_Driver/Src/stm32l5xx_hal_flash_ramfunc.c ****     --------------------
  18:../../Drivers/STM32L5xx_HAL_Driver/Src/stm32l5xx_hal_flash_ramfunc.c ****     [..] RAM functions are defined using the toolchain options.
  19:../../Drivers/STM32L5xx_HAL_Driver/Src/stm32l5xx_hal_flash_ramfunc.c ****          Functions that are executed in RAM should reside in a separate
  20:../../Drivers/STM32L5xx_HAL_Driver/Src/stm32l5xx_hal_flash_ramfunc.c ****          source module. Using the 'Options for File' dialog you can simply change
  21:../../Drivers/STM32L5xx_HAL_Driver/Src/stm32l5xx_hal_flash_ramfunc.c ****          the 'Code / Const' area of a module to a memory space in physical RAM.
  22:../../Drivers/STM32L5xx_HAL_Driver/Src/stm32l5xx_hal_flash_ramfunc.c ****          Available memory areas are declared in the 'Target' tab of the
  23:../../Drivers/STM32L5xx_HAL_Driver/Src/stm32l5xx_hal_flash_ramfunc.c ****          Options for Target' dialog.
  24:../../Drivers/STM32L5xx_HAL_Driver/Src/stm32l5xx_hal_flash_ramfunc.c **** 
  25:../../Drivers/STM32L5xx_HAL_Driver/Src/stm32l5xx_hal_flash_ramfunc.c ****     *** ICCARM Compiler ***
  26:../../Drivers/STM32L5xx_HAL_Driver/Src/stm32l5xx_hal_flash_ramfunc.c ****     -----------------------
  27:../../Drivers/STM32L5xx_HAL_Driver/Src/stm32l5xx_hal_flash_ramfunc.c ****     [..] RAM functions are defined using a specific toolchain keyword "__ramfunc".
  28:../../Drivers/STM32L5xx_HAL_Driver/Src/stm32l5xx_hal_flash_ramfunc.c **** 
  29:../../Drivers/STM32L5xx_HAL_Driver/Src/stm32l5xx_hal_flash_ramfunc.c ****     *** GNU Compiler ***
ARM GAS  /tmp/ccVsHJds.s 			page 2


  30:../../Drivers/STM32L5xx_HAL_Driver/Src/stm32l5xx_hal_flash_ramfunc.c ****     --------------------
  31:../../Drivers/STM32L5xx_HAL_Driver/Src/stm32l5xx_hal_flash_ramfunc.c ****     [..] RAM functions are defined using a specific toolchain attribute
  32:../../Drivers/STM32L5xx_HAL_Driver/Src/stm32l5xx_hal_flash_ramfunc.c ****          "__attribute__((section(".RamFunc")))".
  33:../../Drivers/STM32L5xx_HAL_Driver/Src/stm32l5xx_hal_flash_ramfunc.c **** 
  34:../../Drivers/STM32L5xx_HAL_Driver/Src/stm32l5xx_hal_flash_ramfunc.c ****   @endverbatim
  35:../../Drivers/STM32L5xx_HAL_Driver/Src/stm32l5xx_hal_flash_ramfunc.c ****   ******************************************************************************
  36:../../Drivers/STM32L5xx_HAL_Driver/Src/stm32l5xx_hal_flash_ramfunc.c ****   * @attention
  37:../../Drivers/STM32L5xx_HAL_Driver/Src/stm32l5xx_hal_flash_ramfunc.c ****   *
  38:../../Drivers/STM32L5xx_HAL_Driver/Src/stm32l5xx_hal_flash_ramfunc.c ****   * Copyright (c) 2019 STMicroelectronics.
  39:../../Drivers/STM32L5xx_HAL_Driver/Src/stm32l5xx_hal_flash_ramfunc.c ****   * All rights reserved.
  40:../../Drivers/STM32L5xx_HAL_Driver/Src/stm32l5xx_hal_flash_ramfunc.c ****   *
  41:../../Drivers/STM32L5xx_HAL_Driver/Src/stm32l5xx_hal_flash_ramfunc.c ****   * This software is licensed under terms that can be found in the LICENSE file in
  42:../../Drivers/STM32L5xx_HAL_Driver/Src/stm32l5xx_hal_flash_ramfunc.c ****   * the root directory of this software component.
  43:../../Drivers/STM32L5xx_HAL_Driver/Src/stm32l5xx_hal_flash_ramfunc.c ****   * If no LICENSE file comes with this software, it is provided AS-IS.
  44:../../Drivers/STM32L5xx_HAL_Driver/Src/stm32l5xx_hal_flash_ramfunc.c ****   ******************************************************************************
  45:../../Drivers/STM32L5xx_HAL_Driver/Src/stm32l5xx_hal_flash_ramfunc.c ****   */
  46:../../Drivers/STM32L5xx_HAL_Driver/Src/stm32l5xx_hal_flash_ramfunc.c **** 
  47:../../Drivers/STM32L5xx_HAL_Driver/Src/stm32l5xx_hal_flash_ramfunc.c **** /* Includes ------------------------------------------------------------------*/
  48:../../Drivers/STM32L5xx_HAL_Driver/Src/stm32l5xx_hal_flash_ramfunc.c **** #include "stm32l5xx_hal.h"
  49:../../Drivers/STM32L5xx_HAL_Driver/Src/stm32l5xx_hal_flash_ramfunc.c **** 
  50:../../Drivers/STM32L5xx_HAL_Driver/Src/stm32l5xx_hal_flash_ramfunc.c **** /** @addtogroup STM32L5xx_HAL_Driver
  51:../../Drivers/STM32L5xx_HAL_Driver/Src/stm32l5xx_hal_flash_ramfunc.c ****   * @{
  52:../../Drivers/STM32L5xx_HAL_Driver/Src/stm32l5xx_hal_flash_ramfunc.c ****   */
  53:../../Drivers/STM32L5xx_HAL_Driver/Src/stm32l5xx_hal_flash_ramfunc.c **** 
  54:../../Drivers/STM32L5xx_HAL_Driver/Src/stm32l5xx_hal_flash_ramfunc.c **** /** @defgroup FLASH_RAMFUNC FLASH RAMFUNC
  55:../../Drivers/STM32L5xx_HAL_Driver/Src/stm32l5xx_hal_flash_ramfunc.c ****   * @brief FLASH functions executed from RAM
  56:../../Drivers/STM32L5xx_HAL_Driver/Src/stm32l5xx_hal_flash_ramfunc.c ****   * @{
  57:../../Drivers/STM32L5xx_HAL_Driver/Src/stm32l5xx_hal_flash_ramfunc.c ****   */
  58:../../Drivers/STM32L5xx_HAL_Driver/Src/stm32l5xx_hal_flash_ramfunc.c **** 
  59:../../Drivers/STM32L5xx_HAL_Driver/Src/stm32l5xx_hal_flash_ramfunc.c **** #ifdef HAL_FLASH_MODULE_ENABLED
  60:../../Drivers/STM32L5xx_HAL_Driver/Src/stm32l5xx_hal_flash_ramfunc.c **** 
  61:../../Drivers/STM32L5xx_HAL_Driver/Src/stm32l5xx_hal_flash_ramfunc.c **** /* Private typedef -----------------------------------------------------------*/
  62:../../Drivers/STM32L5xx_HAL_Driver/Src/stm32l5xx_hal_flash_ramfunc.c **** /* Private define ------------------------------------------------------------*/
  63:../../Drivers/STM32L5xx_HAL_Driver/Src/stm32l5xx_hal_flash_ramfunc.c **** /* Private macro -------------------------------------------------------------*/
  64:../../Drivers/STM32L5xx_HAL_Driver/Src/stm32l5xx_hal_flash_ramfunc.c **** /* Private variables ---------------------------------------------------------*/
  65:../../Drivers/STM32L5xx_HAL_Driver/Src/stm32l5xx_hal_flash_ramfunc.c **** /* Private function prototypes -----------------------------------------------*/
  66:../../Drivers/STM32L5xx_HAL_Driver/Src/stm32l5xx_hal_flash_ramfunc.c **** /* Exported functions --------------------------------------------------------*/
  67:../../Drivers/STM32L5xx_HAL_Driver/Src/stm32l5xx_hal_flash_ramfunc.c **** 
  68:../../Drivers/STM32L5xx_HAL_Driver/Src/stm32l5xx_hal_flash_ramfunc.c **** /** @defgroup FLASH_RAMFUNC_Exported_Functions FLASH in RAM function Exported Functions
  69:../../Drivers/STM32L5xx_HAL_Driver/Src/stm32l5xx_hal_flash_ramfunc.c ****   * @{
  70:../../Drivers/STM32L5xx_HAL_Driver/Src/stm32l5xx_hal_flash_ramfunc.c ****   */
  71:../../Drivers/STM32L5xx_HAL_Driver/Src/stm32l5xx_hal_flash_ramfunc.c **** 
  72:../../Drivers/STM32L5xx_HAL_Driver/Src/stm32l5xx_hal_flash_ramfunc.c **** /** @defgroup FLASH_RAMFUNC_Exported_Functions_Group1 RAM Execution functions
  73:../../Drivers/STM32L5xx_HAL_Driver/Src/stm32l5xx_hal_flash_ramfunc.c ****  *  @brief   RAM Execution functions
  74:../../Drivers/STM32L5xx_HAL_Driver/Src/stm32l5xx_hal_flash_ramfunc.c ****  *
  75:../../Drivers/STM32L5xx_HAL_Driver/Src/stm32l5xx_hal_flash_ramfunc.c **** @verbatim
  76:../../Drivers/STM32L5xx_HAL_Driver/Src/stm32l5xx_hal_flash_ramfunc.c ****  ===============================================================================
  77:../../Drivers/STM32L5xx_HAL_Driver/Src/stm32l5xx_hal_flash_ramfunc.c ****                       ##### RAM Execution functions #####
  78:../../Drivers/STM32L5xx_HAL_Driver/Src/stm32l5xx_hal_flash_ramfunc.c ****  ===============================================================================
  79:../../Drivers/STM32L5xx_HAL_Driver/Src/stm32l5xx_hal_flash_ramfunc.c ****     [..]
  80:../../Drivers/STM32L5xx_HAL_Driver/Src/stm32l5xx_hal_flash_ramfunc.c ****     This subsection provides a set of functions that should be executed from RAM.
  81:../../Drivers/STM32L5xx_HAL_Driver/Src/stm32l5xx_hal_flash_ramfunc.c **** 
  82:../../Drivers/STM32L5xx_HAL_Driver/Src/stm32l5xx_hal_flash_ramfunc.c **** @endverbatim
  83:../../Drivers/STM32L5xx_HAL_Driver/Src/stm32l5xx_hal_flash_ramfunc.c ****   * @{
  84:../../Drivers/STM32L5xx_HAL_Driver/Src/stm32l5xx_hal_flash_ramfunc.c ****   */
  85:../../Drivers/STM32L5xx_HAL_Driver/Src/stm32l5xx_hal_flash_ramfunc.c **** 
  86:../../Drivers/STM32L5xx_HAL_Driver/Src/stm32l5xx_hal_flash_ramfunc.c **** /**
ARM GAS  /tmp/ccVsHJds.s 			page 3


  87:../../Drivers/STM32L5xx_HAL_Driver/Src/stm32l5xx_hal_flash_ramfunc.c ****   * @brief  Enable the Power down in Run Mode
  88:../../Drivers/STM32L5xx_HAL_Driver/Src/stm32l5xx_hal_flash_ramfunc.c ****   * @note   This function should be called and executed from SRAM memory
  89:../../Drivers/STM32L5xx_HAL_Driver/Src/stm32l5xx_hal_flash_ramfunc.c ****   * @retval HAL status
  90:../../Drivers/STM32L5xx_HAL_Driver/Src/stm32l5xx_hal_flash_ramfunc.c ****   */
  91:../../Drivers/STM32L5xx_HAL_Driver/Src/stm32l5xx_hal_flash_ramfunc.c **** __RAM_FUNC HAL_StatusTypeDef HAL_FLASHEx_EnableRunPowerDown(void)
  92:../../Drivers/STM32L5xx_HAL_Driver/Src/stm32l5xx_hal_flash_ramfunc.c **** {
  30              		.loc 1 92 1 view -0
  31              		.cfi_startproc
  32              		@ args = 0, pretend = 0, frame = 0
  33              		@ frame_needed = 0, uses_anonymous_args = 0
  34              		@ link register save eliminated.
  93:../../Drivers/STM32L5xx_HAL_Driver/Src/stm32l5xx_hal_flash_ramfunc.c ****   /* Enable the Power Down in Run mode*/
  94:../../Drivers/STM32L5xx_HAL_Driver/Src/stm32l5xx_hal_flash_ramfunc.c ****   __HAL_FLASH_POWER_DOWN_ENABLE();
  35              		.loc 1 94 3 view .LVU1
  36              		.loc 1 94 3 view .LVU2
  37 0000 054B     		ldr	r3, .L2
  38 0002 064A     		ldr	r2, .L2+4
  39 0004 5A60     		str	r2, [r3, #4]
  40              		.loc 1 94 3 view .LVU3
  41 0006 064A     		ldr	r2, .L2+8
  42 0008 5A60     		str	r2, [r3, #4]
  43              		.loc 1 94 3 view .LVU4
  44 000a 1A68     		ldr	r2, [r3]
  45 000c 42F40052 		orr	r2, r2, #8192
  46 0010 1A60     		str	r2, [r3]
  47              		.loc 1 94 3 view .LVU5
  95:../../Drivers/STM32L5xx_HAL_Driver/Src/stm32l5xx_hal_flash_ramfunc.c **** 
  96:../../Drivers/STM32L5xx_HAL_Driver/Src/stm32l5xx_hal_flash_ramfunc.c ****   return HAL_OK;
  48              		.loc 1 96 3 view .LVU6
  97:../../Drivers/STM32L5xx_HAL_Driver/Src/stm32l5xx_hal_flash_ramfunc.c **** }
  49              		.loc 1 97 1 is_stmt 0 view .LVU7
  50 0012 0020     		movs	r0, #0
  51 0014 7047     		bx	lr
  52              	.L3:
  53 0016 00BF     		.align	2
  54              	.L2:
  55 0018 00200250 		.word	1342316544
  56 001c 37261504 		.word	68494903
  57 0020 FDFCFBFA 		.word	-84148995
  58              		.cfi_endproc
  59              	.LFE202:
  61              		.align	1
  62              		.global	HAL_FLASHEx_DisableRunPowerDown
  63              		.syntax unified
  64              		.thumb
  65              		.thumb_func
  67              	HAL_FLASHEx_DisableRunPowerDown:
  68              	.LFB203:
  98:../../Drivers/STM32L5xx_HAL_Driver/Src/stm32l5xx_hal_flash_ramfunc.c **** 
  99:../../Drivers/STM32L5xx_HAL_Driver/Src/stm32l5xx_hal_flash_ramfunc.c **** /**
 100:../../Drivers/STM32L5xx_HAL_Driver/Src/stm32l5xx_hal_flash_ramfunc.c ****   * @brief  Disable the Power down in Run Mode
 101:../../Drivers/STM32L5xx_HAL_Driver/Src/stm32l5xx_hal_flash_ramfunc.c ****   * @note   This function should be called and executed from SRAM memory
 102:../../Drivers/STM32L5xx_HAL_Driver/Src/stm32l5xx_hal_flash_ramfunc.c ****   * @retval HAL status
 103:../../Drivers/STM32L5xx_HAL_Driver/Src/stm32l5xx_hal_flash_ramfunc.c ****   */
 104:../../Drivers/STM32L5xx_HAL_Driver/Src/stm32l5xx_hal_flash_ramfunc.c **** __RAM_FUNC HAL_StatusTypeDef HAL_FLASHEx_DisableRunPowerDown(void)
 105:../../Drivers/STM32L5xx_HAL_Driver/Src/stm32l5xx_hal_flash_ramfunc.c **** {
  69              		.loc 1 105 1 is_stmt 1 view -0
ARM GAS  /tmp/ccVsHJds.s 			page 4


  70              		.cfi_startproc
  71              		@ args = 0, pretend = 0, frame = 0
  72              		@ frame_needed = 0, uses_anonymous_args = 0
  73              		@ link register save eliminated.
 106:../../Drivers/STM32L5xx_HAL_Driver/Src/stm32l5xx_hal_flash_ramfunc.c ****   /* Disable the Power Down in Run mode*/
 107:../../Drivers/STM32L5xx_HAL_Driver/Src/stm32l5xx_hal_flash_ramfunc.c ****   __HAL_FLASH_POWER_DOWN_DISABLE();
  74              		.loc 1 107 3 view .LVU9
  75              		.loc 1 107 3 view .LVU10
  76 0024 054B     		ldr	r3, .L5
  77 0026 064A     		ldr	r2, .L5+4
  78 0028 5A60     		str	r2, [r3, #4]
  79              		.loc 1 107 3 view .LVU11
  80 002a 064A     		ldr	r2, .L5+8
  81 002c 5A60     		str	r2, [r3, #4]
  82              		.loc 1 107 3 view .LVU12
  83 002e 1A68     		ldr	r2, [r3]
  84 0030 22F40052 		bic	r2, r2, #8192
  85 0034 1A60     		str	r2, [r3]
  86              		.loc 1 107 3 view .LVU13
 108:../../Drivers/STM32L5xx_HAL_Driver/Src/stm32l5xx_hal_flash_ramfunc.c **** 
 109:../../Drivers/STM32L5xx_HAL_Driver/Src/stm32l5xx_hal_flash_ramfunc.c ****   return HAL_OK;
  87              		.loc 1 109 3 view .LVU14
 110:../../Drivers/STM32L5xx_HAL_Driver/Src/stm32l5xx_hal_flash_ramfunc.c **** }
  88              		.loc 1 110 1 is_stmt 0 view .LVU15
  89 0036 0020     		movs	r0, #0
  90 0038 7047     		bx	lr
  91              	.L6:
  92 003a 00BF     		.align	2
  93              	.L5:
  94 003c 00200250 		.word	1342316544
  95 0040 37261504 		.word	68494903
  96 0044 FDFCFBFA 		.word	-84148995
  97              		.cfi_endproc
  98              	.LFE203:
 100              		.align	1
 101              		.global	HAL_FLASHEx_OB_DBankConfig
 102              		.syntax unified
 103              		.thumb
 104              		.thumb_func
 106              	HAL_FLASHEx_OB_DBankConfig:
 107              	.LVL0:
 108              	.LFB204:
 111:../../Drivers/STM32L5xx_HAL_Driver/Src/stm32l5xx_hal_flash_ramfunc.c **** 
 112:../../Drivers/STM32L5xx_HAL_Driver/Src/stm32l5xx_hal_flash_ramfunc.c **** /**
 113:../../Drivers/STM32L5xx_HAL_Driver/Src/stm32l5xx_hal_flash_ramfunc.c ****   * @brief  Program the FLASH DBANK User Option Byte.
 114:../../Drivers/STM32L5xx_HAL_Driver/Src/stm32l5xx_hal_flash_ramfunc.c ****   *
 115:../../Drivers/STM32L5xx_HAL_Driver/Src/stm32l5xx_hal_flash_ramfunc.c ****   * @note   To configure the user option bytes, the option lock bit OPTLOCK must
 116:../../Drivers/STM32L5xx_HAL_Driver/Src/stm32l5xx_hal_flash_ramfunc.c ****   *         be cleared with the call of the HAL_FLASH_OB_Unlock() function.
 117:../../Drivers/STM32L5xx_HAL_Driver/Src/stm32l5xx_hal_flash_ramfunc.c ****   * @note   To modify the DBANK option byte, all secure protection mechanism
 118:../../Drivers/STM32L5xx_HAL_Driver/Src/stm32l5xx_hal_flash_ramfunc.c ****   *         should be deactivated. It should be done before DBANK modification
 119:../../Drivers/STM32L5xx_HAL_Driver/Src/stm32l5xx_hal_flash_ramfunc.c ****   *         otherwise OPTWERR will be set. The secure areas should be reactived after
 120:../../Drivers/STM32L5xx_HAL_Driver/Src/stm32l5xx_hal_flash_ramfunc.c ****   *         the modifications
 121:../../Drivers/STM32L5xx_HAL_Driver/Src/stm32l5xx_hal_flash_ramfunc.c ****   *
 122:../../Drivers/STM32L5xx_HAL_Driver/Src/stm32l5xx_hal_flash_ramfunc.c ****   * @param  DBankConfig: The FLASH DBANK User Option Byte value.
 123:../../Drivers/STM32L5xx_HAL_Driver/Src/stm32l5xx_hal_flash_ramfunc.c ****   *          This parameter  can be one of the following values:
 124:../../Drivers/STM32L5xx_HAL_Driver/Src/stm32l5xx_hal_flash_ramfunc.c ****   *            @arg OB_DBANK_128_BITS: Single-bank with 128-bits data
 125:../../Drivers/STM32L5xx_HAL_Driver/Src/stm32l5xx_hal_flash_ramfunc.c ****   *            @arg OB_DBANK_64_BITS: Dual-bank with 64-bits data
ARM GAS  /tmp/ccVsHJds.s 			page 5


 126:../../Drivers/STM32L5xx_HAL_Driver/Src/stm32l5xx_hal_flash_ramfunc.c ****   *
 127:../../Drivers/STM32L5xx_HAL_Driver/Src/stm32l5xx_hal_flash_ramfunc.c ****   * @retval HAL status
 128:../../Drivers/STM32L5xx_HAL_Driver/Src/stm32l5xx_hal_flash_ramfunc.c ****   */
 129:../../Drivers/STM32L5xx_HAL_Driver/Src/stm32l5xx_hal_flash_ramfunc.c **** __RAM_FUNC HAL_StatusTypeDef HAL_FLASHEx_OB_DBankConfig(uint32_t DBankConfig)
 130:../../Drivers/STM32L5xx_HAL_Driver/Src/stm32l5xx_hal_flash_ramfunc.c **** {
 109              		.loc 1 130 1 is_stmt 1 view -0
 110              		.cfi_startproc
 111              		@ args = 0, pretend = 0, frame = 0
 112              		@ frame_needed = 0, uses_anonymous_args = 0
 113              		@ link register save eliminated.
 131:../../Drivers/STM32L5xx_HAL_Driver/Src/stm32l5xx_hal_flash_ramfunc.c ****   uint32_t count, reg;
 114              		.loc 1 131 3 view .LVU17
 132:../../Drivers/STM32L5xx_HAL_Driver/Src/stm32l5xx_hal_flash_ramfunc.c ****   HAL_StatusTypeDef status = HAL_ERROR;
 115              		.loc 1 132 3 view .LVU18
 133:../../Drivers/STM32L5xx_HAL_Driver/Src/stm32l5xx_hal_flash_ramfunc.c **** 
 134:../../Drivers/STM32L5xx_HAL_Driver/Src/stm32l5xx_hal_flash_ramfunc.c ****   /* Process Locked */
 135:../../Drivers/STM32L5xx_HAL_Driver/Src/stm32l5xx_hal_flash_ramfunc.c ****   __HAL_LOCK(&pFlash);
 116              		.loc 1 135 3 view .LVU19
 117              		.loc 1 135 3 view .LVU20
 118 0048 6A4B     		ldr	r3, .L27
 119 004a 1B78     		ldrb	r3, [r3]	@ zero_extendqisi2
 120 004c 012B     		cmp	r3, #1
 121 004e 00F0CB80 		beq	.L24
 122              		.loc 1 135 3 discriminator 2 view .LVU21
 123 0052 684B     		ldr	r3, .L27
 124 0054 0122     		movs	r2, #1
 125 0056 1A70     		strb	r2, [r3]
 126              		.loc 1 135 3 discriminator 2 view .LVU22
 136:../../Drivers/STM32L5xx_HAL_Driver/Src/stm32l5xx_hal_flash_ramfunc.c **** 
 137:../../Drivers/STM32L5xx_HAL_Driver/Src/stm32l5xx_hal_flash_ramfunc.c **** #if defined (__ARM_FEATURE_CMSE) && (__ARM_FEATURE_CMSE == 3U)
 138:../../Drivers/STM32L5xx_HAL_Driver/Src/stm32l5xx_hal_flash_ramfunc.c ****   /* Check if the Watermark-based secure area of 1st bank is deactivated */
 139:../../Drivers/STM32L5xx_HAL_Driver/Src/stm32l5xx_hal_flash_ramfunc.c ****   reg = FLASH->SECWM1R1;
 127              		.loc 1 139 3 discriminator 2 view .LVU23
 128              		.loc 1 139 7 is_stmt 0 discriminator 2 view .LVU24
 129 0058 674B     		ldr	r3, .L27+4
 130 005a 1B6D     		ldr	r3, [r3, #80]
 131              	.LVL1:
 140:../../Drivers/STM32L5xx_HAL_Driver/Src/stm32l5xx_hal_flash_ramfunc.c ****   if ((reg & FLASH_SECWM1R1_SECWM1_PSTRT) > ((reg & FLASH_SECWM1R1_SECWM1_PEND) >> FLASH_SECWM1R1_S
 132              		.loc 1 140 3 is_stmt 1 discriminator 2 view .LVU25
 133              		.loc 1 140 12 is_stmt 0 discriminator 2 view .LVU26
 134 005c 03F07F02 		and	r2, r3, #127
 135              		.loc 1 140 81 discriminator 2 view .LVU27
 136 0060 C3F30643 		ubfx	r3, r3, #16, #7
 137              	.LVL2:
 138              		.loc 1 140 6 discriminator 2 view .LVU28
 139 0064 9A42     		cmp	r2, r3
 140 0066 40F2C180 		bls	.L25
 141:../../Drivers/STM32L5xx_HAL_Driver/Src/stm32l5xx_hal_flash_ramfunc.c ****   {
 142:../../Drivers/STM32L5xx_HAL_Driver/Src/stm32l5xx_hal_flash_ramfunc.c ****     /* Check if the Watermark-based secure area of 2nd bank is deactivated */
 143:../../Drivers/STM32L5xx_HAL_Driver/Src/stm32l5xx_hal_flash_ramfunc.c ****     reg = FLASH->SECWM2R1;
 141              		.loc 1 143 5 is_stmt 1 view .LVU29
 142              		.loc 1 143 9 is_stmt 0 view .LVU30
 143 006a 634B     		ldr	r3, .L27+4
 144 006c 1B6E     		ldr	r3, [r3, #96]
 145              	.LVL3:
 144:../../Drivers/STM32L5xx_HAL_Driver/Src/stm32l5xx_hal_flash_ramfunc.c ****     if ((reg & FLASH_SECWM2R1_SECWM2_PSTRT) > ((reg & FLASH_SECWM2R1_SECWM2_PEND) >> FLASH_SECWM2R1
 146              		.loc 1 144 5 is_stmt 1 view .LVU31
ARM GAS  /tmp/ccVsHJds.s 			page 6


 147              		.loc 1 144 14 is_stmt 0 view .LVU32
 148 006e 03F07F02 		and	r2, r3, #127
 149              		.loc 1 144 83 view .LVU33
 150 0072 C3F30643 		ubfx	r3, r3, #16, #7
 151              	.LVL4:
 152              		.loc 1 144 8 view .LVU34
 153 0076 9A42     		cmp	r2, r3
 154 0078 40F2BA80 		bls	.L26
 145:../../Drivers/STM32L5xx_HAL_Driver/Src/stm32l5xx_hal_flash_ramfunc.c ****     {
 146:../../Drivers/STM32L5xx_HAL_Driver/Src/stm32l5xx_hal_flash_ramfunc.c **** #endif
 147:../../Drivers/STM32L5xx_HAL_Driver/Src/stm32l5xx_hal_flash_ramfunc.c ****       /* Disable WRP zone 1 of 1st bank if needed */
 148:../../Drivers/STM32L5xx_HAL_Driver/Src/stm32l5xx_hal_flash_ramfunc.c ****       reg = FLASH->WRP1AR;
 155              		.loc 1 148 7 is_stmt 1 view .LVU35
 156              		.loc 1 148 11 is_stmt 0 view .LVU36
 157 007c 5E4B     		ldr	r3, .L27+4
 158 007e 9B6D     		ldr	r3, [r3, #88]
 159              	.LVL5:
 149:../../Drivers/STM32L5xx_HAL_Driver/Src/stm32l5xx_hal_flash_ramfunc.c ****       if ((reg & FLASH_WRP1AR_WRP1A_PSTRT) <= ((reg & FLASH_WRP1AR_WRP1A_PEND) >> FLASH_WRP1AR_WRP1
 160              		.loc 1 149 7 is_stmt 1 view .LVU37
 161              		.loc 1 149 16 is_stmt 0 view .LVU38
 162 0080 03F07F02 		and	r2, r3, #127
 163              		.loc 1 149 80 view .LVU39
 164 0084 C3F30643 		ubfx	r3, r3, #16, #7
 165              	.LVL6:
 166              		.loc 1 149 10 view .LVU40
 167 0088 9A42     		cmp	r2, r3
 168 008a 06D8     		bhi	.L9
 150:../../Drivers/STM32L5xx_HAL_Driver/Src/stm32l5xx_hal_flash_ramfunc.c ****       {
 151:../../Drivers/STM32L5xx_HAL_Driver/Src/stm32l5xx_hal_flash_ramfunc.c ****         MODIFY_REG(FLASH->WRP1AR, (FLASH_WRP1AR_WRP1A_PSTRT | FLASH_WRP1AR_WRP1A_PEND), FLASH_WRP1A
 169              		.loc 1 151 9 is_stmt 1 view .LVU41
 170 008c 5A4A     		ldr	r2, .L27+4
 171 008e 936D     		ldr	r3, [r2, #88]
 172 0090 23F07F13 		bic	r3, r3, #8323199
 173 0094 43F07F03 		orr	r3, r3, #127
 174 0098 9365     		str	r3, [r2, #88]
 175              	.L9:
 152:../../Drivers/STM32L5xx_HAL_Driver/Src/stm32l5xx_hal_flash_ramfunc.c ****       }
 153:../../Drivers/STM32L5xx_HAL_Driver/Src/stm32l5xx_hal_flash_ramfunc.c **** 
 154:../../Drivers/STM32L5xx_HAL_Driver/Src/stm32l5xx_hal_flash_ramfunc.c ****       /* Disable WRP zone 1 of 2nd bank if needed */
 155:../../Drivers/STM32L5xx_HAL_Driver/Src/stm32l5xx_hal_flash_ramfunc.c ****       reg = FLASH->WRP1BR;
 176              		.loc 1 155 7 view .LVU42
 177              		.loc 1 155 11 is_stmt 0 view .LVU43
 178 009a 574B     		ldr	r3, .L27+4
 179 009c DB6D     		ldr	r3, [r3, #92]
 180              	.LVL7:
 156:../../Drivers/STM32L5xx_HAL_Driver/Src/stm32l5xx_hal_flash_ramfunc.c ****       if ((reg & FLASH_WRP1BR_WRP1B_PSTRT) <= ((reg & FLASH_WRP1BR_WRP1B_PEND) >> FLASH_WRP1BR_WRP1
 181              		.loc 1 156 7 is_stmt 1 view .LVU44
 182              		.loc 1 156 16 is_stmt 0 view .LVU45
 183 009e 03F07F02 		and	r2, r3, #127
 184              		.loc 1 156 80 view .LVU46
 185 00a2 C3F30643 		ubfx	r3, r3, #16, #7
 186              	.LVL8:
 187              		.loc 1 156 10 view .LVU47
 188 00a6 9A42     		cmp	r2, r3
 189 00a8 06D8     		bhi	.L10
 157:../../Drivers/STM32L5xx_HAL_Driver/Src/stm32l5xx_hal_flash_ramfunc.c ****       {
 158:../../Drivers/STM32L5xx_HAL_Driver/Src/stm32l5xx_hal_flash_ramfunc.c ****         MODIFY_REG(FLASH->WRP1BR, (FLASH_WRP1BR_WRP1B_PSTRT | FLASH_WRP1BR_WRP1B_PEND), FLASH_WRP1B
ARM GAS  /tmp/ccVsHJds.s 			page 7


 190              		.loc 1 158 9 is_stmt 1 view .LVU48
 191 00aa 534A     		ldr	r2, .L27+4
 192 00ac D36D     		ldr	r3, [r2, #92]
 193 00ae 23F07F13 		bic	r3, r3, #8323199
 194 00b2 43F07F03 		orr	r3, r3, #127
 195 00b6 D365     		str	r3, [r2, #92]
 196              	.L10:
 159:../../Drivers/STM32L5xx_HAL_Driver/Src/stm32l5xx_hal_flash_ramfunc.c ****       }
 160:../../Drivers/STM32L5xx_HAL_Driver/Src/stm32l5xx_hal_flash_ramfunc.c **** 
 161:../../Drivers/STM32L5xx_HAL_Driver/Src/stm32l5xx_hal_flash_ramfunc.c ****       /* Disable WRP zone 2 of 1st bank if needed */
 162:../../Drivers/STM32L5xx_HAL_Driver/Src/stm32l5xx_hal_flash_ramfunc.c ****       reg = FLASH->WRP2AR;
 197              		.loc 1 162 7 view .LVU49
 198              		.loc 1 162 11 is_stmt 0 view .LVU50
 199 00b8 4F4B     		ldr	r3, .L27+4
 200 00ba 9B6E     		ldr	r3, [r3, #104]
 201              	.LVL9:
 163:../../Drivers/STM32L5xx_HAL_Driver/Src/stm32l5xx_hal_flash_ramfunc.c ****       if ((reg & FLASH_WRP2AR_WRP2A_PSTRT) <= ((reg & FLASH_WRP2AR_WRP2A_PEND) >> FLASH_WRP2AR_WRP2
 202              		.loc 1 163 7 is_stmt 1 view .LVU51
 203              		.loc 1 163 16 is_stmt 0 view .LVU52
 204 00bc 03F07F02 		and	r2, r3, #127
 205              		.loc 1 163 80 view .LVU53
 206 00c0 C3F30643 		ubfx	r3, r3, #16, #7
 207              	.LVL10:
 208              		.loc 1 163 10 view .LVU54
 209 00c4 9A42     		cmp	r2, r3
 210 00c6 06D8     		bhi	.L11
 164:../../Drivers/STM32L5xx_HAL_Driver/Src/stm32l5xx_hal_flash_ramfunc.c ****       {
 165:../../Drivers/STM32L5xx_HAL_Driver/Src/stm32l5xx_hal_flash_ramfunc.c ****         MODIFY_REG(FLASH->WRP2AR, (FLASH_WRP2AR_WRP2A_PSTRT | FLASH_WRP2AR_WRP2A_PEND), FLASH_WRP2A
 211              		.loc 1 165 9 is_stmt 1 view .LVU55
 212 00c8 4B4A     		ldr	r2, .L27+4
 213 00ca 936E     		ldr	r3, [r2, #104]
 214 00cc 23F07F13 		bic	r3, r3, #8323199
 215 00d0 43F07F03 		orr	r3, r3, #127
 216 00d4 9366     		str	r3, [r2, #104]
 217              	.L11:
 166:../../Drivers/STM32L5xx_HAL_Driver/Src/stm32l5xx_hal_flash_ramfunc.c ****       }
 167:../../Drivers/STM32L5xx_HAL_Driver/Src/stm32l5xx_hal_flash_ramfunc.c **** 
 168:../../Drivers/STM32L5xx_HAL_Driver/Src/stm32l5xx_hal_flash_ramfunc.c ****       /* Disable WRP zone 2 of 2nd bank if needed */
 169:../../Drivers/STM32L5xx_HAL_Driver/Src/stm32l5xx_hal_flash_ramfunc.c ****       reg = FLASH->WRP2BR;
 218              		.loc 1 169 7 view .LVU56
 219              		.loc 1 169 11 is_stmt 0 view .LVU57
 220 00d6 484B     		ldr	r3, .L27+4
 221 00d8 DB6E     		ldr	r3, [r3, #108]
 222              	.LVL11:
 170:../../Drivers/STM32L5xx_HAL_Driver/Src/stm32l5xx_hal_flash_ramfunc.c ****       if ((reg & FLASH_WRP2BR_WRP2B_PSTRT) <= ((reg & FLASH_WRP2BR_WRP2B_PEND) >> FLASH_WRP2BR_WRP2
 223              		.loc 1 170 7 is_stmt 1 view .LVU58
 224              		.loc 1 170 16 is_stmt 0 view .LVU59
 225 00da 03F07F02 		and	r2, r3, #127
 226              		.loc 1 170 80 view .LVU60
 227 00de C3F30643 		ubfx	r3, r3, #16, #7
 228              	.LVL12:
 229              		.loc 1 170 10 view .LVU61
 230 00e2 9A42     		cmp	r2, r3
 231 00e4 06D8     		bhi	.L12
 171:../../Drivers/STM32L5xx_HAL_Driver/Src/stm32l5xx_hal_flash_ramfunc.c ****       {
 172:../../Drivers/STM32L5xx_HAL_Driver/Src/stm32l5xx_hal_flash_ramfunc.c ****         MODIFY_REG(FLASH->WRP2BR, (FLASH_WRP2BR_WRP2B_PSTRT | FLASH_WRP2BR_WRP2B_PEND), FLASH_WRP2B
 232              		.loc 1 172 9 is_stmt 1 view .LVU62
ARM GAS  /tmp/ccVsHJds.s 			page 8


 233 00e6 444A     		ldr	r2, .L27+4
 234 00e8 D36E     		ldr	r3, [r2, #108]
 235 00ea 23F07F13 		bic	r3, r3, #8323199
 236 00ee 43F07F03 		orr	r3, r3, #127
 237 00f2 D366     		str	r3, [r2, #108]
 238              	.L12:
 173:../../Drivers/STM32L5xx_HAL_Driver/Src/stm32l5xx_hal_flash_ramfunc.c ****       }
 174:../../Drivers/STM32L5xx_HAL_Driver/Src/stm32l5xx_hal_flash_ramfunc.c **** 
 175:../../Drivers/STM32L5xx_HAL_Driver/Src/stm32l5xx_hal_flash_ramfunc.c **** #if defined (__ARM_FEATURE_CMSE) && (__ARM_FEATURE_CMSE == 3U)
 176:../../Drivers/STM32L5xx_HAL_Driver/Src/stm32l5xx_hal_flash_ramfunc.c ****       /* Disable the Block-based secure area of 1st bank if needed */
 177:../../Drivers/STM32L5xx_HAL_Driver/Src/stm32l5xx_hal_flash_ramfunc.c ****       if (FLASH->SECBB1R1 != 0u)
 239              		.loc 1 177 7 view .LVU63
 240              		.loc 1 177 16 is_stmt 0 view .LVU64
 241 00f4 404B     		ldr	r3, .L27+4
 242 00f6 D3F88030 		ldr	r3, [r3, #128]
 243              		.loc 1 177 10 view .LVU65
 244 00fa 1BB1     		cbz	r3, .L13
 178:../../Drivers/STM32L5xx_HAL_Driver/Src/stm32l5xx_hal_flash_ramfunc.c ****       {
 179:../../Drivers/STM32L5xx_HAL_Driver/Src/stm32l5xx_hal_flash_ramfunc.c ****         FLASH->SECBB1R1 = 0u;
 245              		.loc 1 179 9 is_stmt 1 view .LVU66
 246              		.loc 1 179 25 is_stmt 0 view .LVU67
 247 00fc 3E4B     		ldr	r3, .L27+4
 248 00fe 0022     		movs	r2, #0
 249 0100 C3F88020 		str	r2, [r3, #128]
 250              	.L13:
 180:../../Drivers/STM32L5xx_HAL_Driver/Src/stm32l5xx_hal_flash_ramfunc.c ****       }
 181:../../Drivers/STM32L5xx_HAL_Driver/Src/stm32l5xx_hal_flash_ramfunc.c **** 
 182:../../Drivers/STM32L5xx_HAL_Driver/Src/stm32l5xx_hal_flash_ramfunc.c ****       if (FLASH->SECBB1R2 != 0u)
 251              		.loc 1 182 7 is_stmt 1 view .LVU68
 252              		.loc 1 182 16 is_stmt 0 view .LVU69
 253 0104 3C4B     		ldr	r3, .L27+4
 254 0106 D3F88430 		ldr	r3, [r3, #132]
 255              		.loc 1 182 10 view .LVU70
 256 010a 1BB1     		cbz	r3, .L14
 183:../../Drivers/STM32L5xx_HAL_Driver/Src/stm32l5xx_hal_flash_ramfunc.c ****       {
 184:../../Drivers/STM32L5xx_HAL_Driver/Src/stm32l5xx_hal_flash_ramfunc.c ****         FLASH->SECBB1R2 = 0u;
 257              		.loc 1 184 9 is_stmt 1 view .LVU71
 258              		.loc 1 184 25 is_stmt 0 view .LVU72
 259 010c 3A4B     		ldr	r3, .L27+4
 260 010e 0022     		movs	r2, #0
 261 0110 C3F88420 		str	r2, [r3, #132]
 262              	.L14:
 185:../../Drivers/STM32L5xx_HAL_Driver/Src/stm32l5xx_hal_flash_ramfunc.c ****       }
 186:../../Drivers/STM32L5xx_HAL_Driver/Src/stm32l5xx_hal_flash_ramfunc.c **** 
 187:../../Drivers/STM32L5xx_HAL_Driver/Src/stm32l5xx_hal_flash_ramfunc.c ****       if (FLASH->SECBB1R3 != 0u)
 263              		.loc 1 187 7 is_stmt 1 view .LVU73
 264              		.loc 1 187 16 is_stmt 0 view .LVU74
 265 0114 384B     		ldr	r3, .L27+4
 266 0116 D3F88830 		ldr	r3, [r3, #136]
 267              		.loc 1 187 10 view .LVU75
 268 011a 1BB1     		cbz	r3, .L15
 188:../../Drivers/STM32L5xx_HAL_Driver/Src/stm32l5xx_hal_flash_ramfunc.c ****       {
 189:../../Drivers/STM32L5xx_HAL_Driver/Src/stm32l5xx_hal_flash_ramfunc.c ****         FLASH->SECBB1R3 = 0u;
 269              		.loc 1 189 9 is_stmt 1 view .LVU76
 270              		.loc 1 189 25 is_stmt 0 view .LVU77
 271 011c 364B     		ldr	r3, .L27+4
 272 011e 0022     		movs	r2, #0
ARM GAS  /tmp/ccVsHJds.s 			page 9


 273 0120 C3F88820 		str	r2, [r3, #136]
 274              	.L15:
 190:../../Drivers/STM32L5xx_HAL_Driver/Src/stm32l5xx_hal_flash_ramfunc.c ****       }
 191:../../Drivers/STM32L5xx_HAL_Driver/Src/stm32l5xx_hal_flash_ramfunc.c **** 
 192:../../Drivers/STM32L5xx_HAL_Driver/Src/stm32l5xx_hal_flash_ramfunc.c ****       if (FLASH->SECBB1R4 != 0u)
 275              		.loc 1 192 7 is_stmt 1 view .LVU78
 276              		.loc 1 192 16 is_stmt 0 view .LVU79
 277 0124 344B     		ldr	r3, .L27+4
 278 0126 D3F88C30 		ldr	r3, [r3, #140]
 279              		.loc 1 192 10 view .LVU80
 280 012a 1BB1     		cbz	r3, .L16
 193:../../Drivers/STM32L5xx_HAL_Driver/Src/stm32l5xx_hal_flash_ramfunc.c ****       {
 194:../../Drivers/STM32L5xx_HAL_Driver/Src/stm32l5xx_hal_flash_ramfunc.c ****         FLASH->SECBB1R4 = 0u;
 281              		.loc 1 194 9 is_stmt 1 view .LVU81
 282              		.loc 1 194 25 is_stmt 0 view .LVU82
 283 012c 324B     		ldr	r3, .L27+4
 284 012e 0022     		movs	r2, #0
 285 0130 C3F88C20 		str	r2, [r3, #140]
 286              	.L16:
 195:../../Drivers/STM32L5xx_HAL_Driver/Src/stm32l5xx_hal_flash_ramfunc.c ****       }
 196:../../Drivers/STM32L5xx_HAL_Driver/Src/stm32l5xx_hal_flash_ramfunc.c **** 
 197:../../Drivers/STM32L5xx_HAL_Driver/Src/stm32l5xx_hal_flash_ramfunc.c ****       /* Disable the Block-based secure area of 2nd bank if needed */
 198:../../Drivers/STM32L5xx_HAL_Driver/Src/stm32l5xx_hal_flash_ramfunc.c ****       if (FLASH->SECBB2R1 != 0u)
 287              		.loc 1 198 7 is_stmt 1 view .LVU83
 288              		.loc 1 198 16 is_stmt 0 view .LVU84
 289 0134 304B     		ldr	r3, .L27+4
 290 0136 D3F8A030 		ldr	r3, [r3, #160]
 291              		.loc 1 198 10 view .LVU85
 292 013a 1BB1     		cbz	r3, .L17
 199:../../Drivers/STM32L5xx_HAL_Driver/Src/stm32l5xx_hal_flash_ramfunc.c ****       {
 200:../../Drivers/STM32L5xx_HAL_Driver/Src/stm32l5xx_hal_flash_ramfunc.c ****         FLASH->SECBB2R1 = 0u;
 293              		.loc 1 200 9 is_stmt 1 view .LVU86
 294              		.loc 1 200 25 is_stmt 0 view .LVU87
 295 013c 2E4B     		ldr	r3, .L27+4
 296 013e 0022     		movs	r2, #0
 297 0140 C3F8A020 		str	r2, [r3, #160]
 298              	.L17:
 201:../../Drivers/STM32L5xx_HAL_Driver/Src/stm32l5xx_hal_flash_ramfunc.c ****       }
 202:../../Drivers/STM32L5xx_HAL_Driver/Src/stm32l5xx_hal_flash_ramfunc.c **** 
 203:../../Drivers/STM32L5xx_HAL_Driver/Src/stm32l5xx_hal_flash_ramfunc.c ****       if (FLASH->SECBB2R2 != 0u)
 299              		.loc 1 203 7 is_stmt 1 view .LVU88
 300              		.loc 1 203 16 is_stmt 0 view .LVU89
 301 0144 2C4B     		ldr	r3, .L27+4
 302 0146 D3F8A430 		ldr	r3, [r3, #164]
 303              		.loc 1 203 10 view .LVU90
 304 014a 1BB1     		cbz	r3, .L18
 204:../../Drivers/STM32L5xx_HAL_Driver/Src/stm32l5xx_hal_flash_ramfunc.c ****       {
 205:../../Drivers/STM32L5xx_HAL_Driver/Src/stm32l5xx_hal_flash_ramfunc.c ****         FLASH->SECBB2R2 = 0u;
 305              		.loc 1 205 9 is_stmt 1 view .LVU91
 306              		.loc 1 205 25 is_stmt 0 view .LVU92
 307 014c 2A4B     		ldr	r3, .L27+4
 308 014e 0022     		movs	r2, #0
 309 0150 C3F8A420 		str	r2, [r3, #164]
 310              	.L18:
 206:../../Drivers/STM32L5xx_HAL_Driver/Src/stm32l5xx_hal_flash_ramfunc.c ****       }
 207:../../Drivers/STM32L5xx_HAL_Driver/Src/stm32l5xx_hal_flash_ramfunc.c **** 
 208:../../Drivers/STM32L5xx_HAL_Driver/Src/stm32l5xx_hal_flash_ramfunc.c ****       if (FLASH->SECBB2R3 != 0u)
ARM GAS  /tmp/ccVsHJds.s 			page 10


 311              		.loc 1 208 7 is_stmt 1 view .LVU93
 312              		.loc 1 208 16 is_stmt 0 view .LVU94
 313 0154 284B     		ldr	r3, .L27+4
 314 0156 D3F8A830 		ldr	r3, [r3, #168]
 315              		.loc 1 208 10 view .LVU95
 316 015a 1BB1     		cbz	r3, .L19
 209:../../Drivers/STM32L5xx_HAL_Driver/Src/stm32l5xx_hal_flash_ramfunc.c ****       {
 210:../../Drivers/STM32L5xx_HAL_Driver/Src/stm32l5xx_hal_flash_ramfunc.c ****         FLASH->SECBB2R3 = 0u;
 317              		.loc 1 210 9 is_stmt 1 view .LVU96
 318              		.loc 1 210 25 is_stmt 0 view .LVU97
 319 015c 264B     		ldr	r3, .L27+4
 320 015e 0022     		movs	r2, #0
 321 0160 C3F8A820 		str	r2, [r3, #168]
 322              	.L19:
 211:../../Drivers/STM32L5xx_HAL_Driver/Src/stm32l5xx_hal_flash_ramfunc.c ****       }
 212:../../Drivers/STM32L5xx_HAL_Driver/Src/stm32l5xx_hal_flash_ramfunc.c **** 
 213:../../Drivers/STM32L5xx_HAL_Driver/Src/stm32l5xx_hal_flash_ramfunc.c ****       if (FLASH->SECBB2R4 != 0u)
 323              		.loc 1 213 7 is_stmt 1 view .LVU98
 324              		.loc 1 213 16 is_stmt 0 view .LVU99
 325 0164 244B     		ldr	r3, .L27+4
 326 0166 D3F8AC30 		ldr	r3, [r3, #172]
 327              		.loc 1 213 10 view .LVU100
 328 016a 1BB1     		cbz	r3, .L20
 214:../../Drivers/STM32L5xx_HAL_Driver/Src/stm32l5xx_hal_flash_ramfunc.c ****       {
 215:../../Drivers/STM32L5xx_HAL_Driver/Src/stm32l5xx_hal_flash_ramfunc.c ****         FLASH->SECBB2R4 = 0u;
 329              		.loc 1 215 9 is_stmt 1 view .LVU101
 330              		.loc 1 215 25 is_stmt 0 view .LVU102
 331 016c 224B     		ldr	r3, .L27+4
 332 016e 0022     		movs	r2, #0
 333 0170 C3F8AC20 		str	r2, [r3, #172]
 334              	.L20:
 216:../../Drivers/STM32L5xx_HAL_Driver/Src/stm32l5xx_hal_flash_ramfunc.c ****       }
 217:../../Drivers/STM32L5xx_HAL_Driver/Src/stm32l5xx_hal_flash_ramfunc.c **** #endif
 218:../../Drivers/STM32L5xx_HAL_Driver/Src/stm32l5xx_hal_flash_ramfunc.c **** 
 219:../../Drivers/STM32L5xx_HAL_Driver/Src/stm32l5xx_hal_flash_ramfunc.c ****       /* Modify the DBANK user option byte */
 220:../../Drivers/STM32L5xx_HAL_Driver/Src/stm32l5xx_hal_flash_ramfunc.c ****       MODIFY_REG(FLASH->OPTR, FLASH_OPTR_DBANK, DBankConfig);
 335              		.loc 1 220 7 is_stmt 1 view .LVU103
 336 0174 204A     		ldr	r2, .L27+4
 337 0176 136C     		ldr	r3, [r2, #64]
 338 0178 23F48003 		bic	r3, r3, #4194304
 339 017c 0343     		orrs	r3, r3, r0
 340 017e 1364     		str	r3, [r2, #64]
 221:../../Drivers/STM32L5xx_HAL_Driver/Src/stm32l5xx_hal_flash_ramfunc.c **** 
 222:../../Drivers/STM32L5xx_HAL_Driver/Src/stm32l5xx_hal_flash_ramfunc.c ****       /* Set OPTSTRT Bit */
 223:../../Drivers/STM32L5xx_HAL_Driver/Src/stm32l5xx_hal_flash_ramfunc.c ****       SET_BIT(FLASH->NSCR, FLASH_NSCR_OPTSTRT);
 341              		.loc 1 223 7 view .LVU104
 342 0180 936A     		ldr	r3, [r2, #40]
 343 0182 43F40033 		orr	r3, r3, #131072
 344 0186 9362     		str	r3, [r2, #40]
 224:../../Drivers/STM32L5xx_HAL_Driver/Src/stm32l5xx_hal_flash_ramfunc.c **** 
 225:../../Drivers/STM32L5xx_HAL_Driver/Src/stm32l5xx_hal_flash_ramfunc.c ****       /* Wait for last operation to be completed */
 226:../../Drivers/STM32L5xx_HAL_Driver/Src/stm32l5xx_hal_flash_ramfunc.c ****       /* 8 is the number of required instruction cycles for the below loop statement (timeout expre
 227:../../Drivers/STM32L5xx_HAL_Driver/Src/stm32l5xx_hal_flash_ramfunc.c ****       count = FLASH_TIMEOUT_VALUE * (SystemCoreClock / 8U / 1000U);
 345              		.loc 1 227 7 view .LVU105
 346              		.loc 1 227 59 is_stmt 0 view .LVU106
 347 0188 1C4B     		ldr	r3, .L27+8
 348 018a 1B68     		ldr	r3, [r3]
ARM GAS  /tmp/ccVsHJds.s 			page 11


 349 018c 1C4A     		ldr	r2, .L27+12
 350 018e A2FB0323 		umull	r2, r3, r2, r3
 351 0192 5B0A     		lsrs	r3, r3, #9
 352              		.loc 1 227 13 view .LVU107
 353 0194 4FF47A72 		mov	r2, #1000
 354 0198 02FB03F3 		mul	r3, r2, r3
 355              	.LVL13:
 356              	.L22:
 228:../../Drivers/STM32L5xx_HAL_Driver/Src/stm32l5xx_hal_flash_ramfunc.c ****       do
 357              		.loc 1 228 7 is_stmt 1 view .LVU108
 229:../../Drivers/STM32L5xx_HAL_Driver/Src/stm32l5xx_hal_flash_ramfunc.c ****       {
 230:../../Drivers/STM32L5xx_HAL_Driver/Src/stm32l5xx_hal_flash_ramfunc.c ****         if (count == 0U)
 358              		.loc 1 230 9 view .LVU109
 359              		.loc 1 230 12 is_stmt 0 view .LVU110
 360 019c 2BB1     		cbz	r3, .L21
 231:../../Drivers/STM32L5xx_HAL_Driver/Src/stm32l5xx_hal_flash_ramfunc.c ****         {
 232:../../Drivers/STM32L5xx_HAL_Driver/Src/stm32l5xx_hal_flash_ramfunc.c ****           break;
 233:../../Drivers/STM32L5xx_HAL_Driver/Src/stm32l5xx_hal_flash_ramfunc.c ****         }
 234:../../Drivers/STM32L5xx_HAL_Driver/Src/stm32l5xx_hal_flash_ramfunc.c ****         count--;
 361              		.loc 1 234 9 is_stmt 1 view .LVU111
 362              		.loc 1 234 14 is_stmt 0 view .LVU112
 363 019e 013B     		subs	r3, r3, #1
 364              	.LVL14:
 235:../../Drivers/STM32L5xx_HAL_Driver/Src/stm32l5xx_hal_flash_ramfunc.c ****       } while (__HAL_FLASH_GET_FLAG(FLASH_FLAG_BSY) != 0U);
 365              		.loc 1 235 53 is_stmt 1 view .LVU113
 366              		.loc 1 235 16 is_stmt 0 view .LVU114
 367 01a0 154A     		ldr	r2, .L27+4
 368 01a2 526A     		ldr	r2, [r2, #36]
 369              		.loc 1 235 53 view .LVU115
 370 01a4 12F4803F 		tst	r2, #65536
 371 01a8 F8D1     		bne	.L22
 372              	.L21:
 236:../../Drivers/STM32L5xx_HAL_Driver/Src/stm32l5xx_hal_flash_ramfunc.c **** 
 237:../../Drivers/STM32L5xx_HAL_Driver/Src/stm32l5xx_hal_flash_ramfunc.c ****       /* If the option byte program operation is completed, disable the OPTSTRT Bit */
 238:../../Drivers/STM32L5xx_HAL_Driver/Src/stm32l5xx_hal_flash_ramfunc.c ****       CLEAR_BIT(FLASH->NSCR, FLASH_NSCR_OPTSTRT);
 373              		.loc 1 238 7 is_stmt 1 view .LVU116
 374 01aa 134B     		ldr	r3, .L27+4
 375              	.LVL15:
 376              		.loc 1 238 7 is_stmt 0 view .LVU117
 377 01ac 9A6A     		ldr	r2, [r3, #40]
 378 01ae 22F40032 		bic	r2, r2, #131072
 379 01b2 9A62     		str	r2, [r3, #40]
 239:../../Drivers/STM32L5xx_HAL_Driver/Src/stm32l5xx_hal_flash_ramfunc.c **** 
 240:../../Drivers/STM32L5xx_HAL_Driver/Src/stm32l5xx_hal_flash_ramfunc.c ****       /* Process Unlocked */
 241:../../Drivers/STM32L5xx_HAL_Driver/Src/stm32l5xx_hal_flash_ramfunc.c ****       __HAL_UNLOCK(&pFlash);
 380              		.loc 1 241 7 is_stmt 1 view .LVU118
 381              		.loc 1 241 7 view .LVU119
 382 01b4 0F4A     		ldr	r2, .L27
 383 01b6 0021     		movs	r1, #0
 384 01b8 1170     		strb	r1, [r2]
 385              		.loc 1 241 7 view .LVU120
 242:../../Drivers/STM32L5xx_HAL_Driver/Src/stm32l5xx_hal_flash_ramfunc.c **** 
 243:../../Drivers/STM32L5xx_HAL_Driver/Src/stm32l5xx_hal_flash_ramfunc.c ****       if (__HAL_FLASH_GET_FLAG(FLASH_FLAG_OPTWERR) == 0U)
 386              		.loc 1 243 7 view .LVU121
 387              		.loc 1 243 11 is_stmt 0 view .LVU122
 388 01ba 1B6A     		ldr	r3, [r3, #32]
 389              		.loc 1 243 10 view .LVU123
ARM GAS  /tmp/ccVsHJds.s 			page 12


 390 01bc 13F4005F 		tst	r3, #8192
 391 01c0 06D1     		bne	.L23
 244:../../Drivers/STM32L5xx_HAL_Driver/Src/stm32l5xx_hal_flash_ramfunc.c ****       {
 245:../../Drivers/STM32L5xx_HAL_Driver/Src/stm32l5xx_hal_flash_ramfunc.c ****         /* Set the bit to force the option byte reloading */
 246:../../Drivers/STM32L5xx_HAL_Driver/Src/stm32l5xx_hal_flash_ramfunc.c ****         SET_BIT(FLASH->NSCR, FLASH_NSCR_OBL_LAUNCH);
 392              		.loc 1 246 9 is_stmt 1 view .LVU124
 393 01c2 0D4A     		ldr	r2, .L27+4
 394 01c4 936A     		ldr	r3, [r2, #40]
 395 01c6 43F00063 		orr	r3, r3, #134217728
 396 01ca 9362     		str	r3, [r2, #40]
 247:../../Drivers/STM32L5xx_HAL_Driver/Src/stm32l5xx_hal_flash_ramfunc.c ****       }
 248:../../Drivers/STM32L5xx_HAL_Driver/Src/stm32l5xx_hal_flash_ramfunc.c ****       else
 249:../../Drivers/STM32L5xx_HAL_Driver/Src/stm32l5xx_hal_flash_ramfunc.c ****       {
 250:../../Drivers/STM32L5xx_HAL_Driver/Src/stm32l5xx_hal_flash_ramfunc.c ****         __HAL_FLASH_CLEAR_FLAG(FLASH_FLAG_OPTWERR);
 251:../../Drivers/STM32L5xx_HAL_Driver/Src/stm32l5xx_hal_flash_ramfunc.c ****         pFlash.ErrorCode |= FLASH_FLAG_OPTWERR;        
 252:../../Drivers/STM32L5xx_HAL_Driver/Src/stm32l5xx_hal_flash_ramfunc.c ****       }
 253:../../Drivers/STM32L5xx_HAL_Driver/Src/stm32l5xx_hal_flash_ramfunc.c **** #if defined (__ARM_FEATURE_CMSE) && (__ARM_FEATURE_CMSE == 3U)
 254:../../Drivers/STM32L5xx_HAL_Driver/Src/stm32l5xx_hal_flash_ramfunc.c ****     }
 255:../../Drivers/STM32L5xx_HAL_Driver/Src/stm32l5xx_hal_flash_ramfunc.c ****   }
 256:../../Drivers/STM32L5xx_HAL_Driver/Src/stm32l5xx_hal_flash_ramfunc.c **** #endif
 257:../../Drivers/STM32L5xx_HAL_Driver/Src/stm32l5xx_hal_flash_ramfunc.c ****   return status;
 397              		.loc 1 257 10 is_stmt 0 view .LVU125
 398 01cc 0120     		movs	r0, #1
 399              	.LVL16:
 400              		.loc 1 257 10 view .LVU126
 401 01ce 7047     		bx	lr
 402              	.LVL17:
 403              	.L23:
 250:../../Drivers/STM32L5xx_HAL_Driver/Src/stm32l5xx_hal_flash_ramfunc.c ****         pFlash.ErrorCode |= FLASH_FLAG_OPTWERR;        
 404              		.loc 1 250 9 is_stmt 1 discriminator 4 view .LVU127
 250:../../Drivers/STM32L5xx_HAL_Driver/Src/stm32l5xx_hal_flash_ramfunc.c ****         pFlash.ErrorCode |= FLASH_FLAG_OPTWERR;        
 405              		.loc 1 250 9 discriminator 4 view .LVU128
 250:../../Drivers/STM32L5xx_HAL_Driver/Src/stm32l5xx_hal_flash_ramfunc.c ****         pFlash.ErrorCode |= FLASH_FLAG_OPTWERR;        
 406              		.loc 1 250 9 discriminator 4 view .LVU129
 250:../../Drivers/STM32L5xx_HAL_Driver/Src/stm32l5xx_hal_flash_ramfunc.c ****         pFlash.ErrorCode |= FLASH_FLAG_OPTWERR;        
 407              		.loc 1 250 9 discriminator 4 view .LVU130
 408 01d0 094A     		ldr	r2, .L27+4
 409 01d2 136A     		ldr	r3, [r2, #32]
 410 01d4 43F40053 		orr	r3, r3, #8192
 411 01d8 1362     		str	r3, [r2, #32]
 250:../../Drivers/STM32L5xx_HAL_Driver/Src/stm32l5xx_hal_flash_ramfunc.c ****         pFlash.ErrorCode |= FLASH_FLAG_OPTWERR;        
 412              		.loc 1 250 9 discriminator 4 view .LVU131
 250:../../Drivers/STM32L5xx_HAL_Driver/Src/stm32l5xx_hal_flash_ramfunc.c ****         pFlash.ErrorCode |= FLASH_FLAG_OPTWERR;        
 413              		.loc 1 250 9 discriminator 4 view .LVU132
 251:../../Drivers/STM32L5xx_HAL_Driver/Src/stm32l5xx_hal_flash_ramfunc.c ****       }
 414              		.loc 1 251 9 discriminator 4 view .LVU133
 251:../../Drivers/STM32L5xx_HAL_Driver/Src/stm32l5xx_hal_flash_ramfunc.c ****       }
 415              		.loc 1 251 15 is_stmt 0 discriminator 4 view .LVU134
 416 01da 064A     		ldr	r2, .L27
 417 01dc 5368     		ldr	r3, [r2, #4]
 251:../../Drivers/STM32L5xx_HAL_Driver/Src/stm32l5xx_hal_flash_ramfunc.c ****       }
 418              		.loc 1 251 26 discriminator 4 view .LVU135
 419 01de 43F40053 		orr	r3, r3, #8192
 420 01e2 5360     		str	r3, [r2, #4]
 421              		.loc 1 257 10 discriminator 4 view .LVU136
 422 01e4 0120     		movs	r0, #1
 423              	.LVL18:
ARM GAS  /tmp/ccVsHJds.s 			page 13


 424              		.loc 1 257 10 discriminator 4 view .LVU137
 425 01e6 7047     		bx	lr
 426              	.LVL19:
 427              	.L24:
 135:../../Drivers/STM32L5xx_HAL_Driver/Src/stm32l5xx_hal_flash_ramfunc.c **** 
 428              		.loc 1 135 3 view .LVU138
 429 01e8 0220     		movs	r0, #2
 430              	.LVL20:
 135:../../Drivers/STM32L5xx_HAL_Driver/Src/stm32l5xx_hal_flash_ramfunc.c **** 
 431              		.loc 1 135 3 view .LVU139
 432 01ea 7047     		bx	lr
 433              	.LVL21:
 434              	.L25:
 435              		.loc 1 257 10 view .LVU140
 436 01ec 0120     		movs	r0, #1
 437              	.LVL22:
 438              		.loc 1 257 10 view .LVU141
 439 01ee 7047     		bx	lr
 440              	.LVL23:
 441              	.L26:
 442              		.loc 1 257 10 view .LVU142
 443 01f0 0120     		movs	r0, #1
 444              	.LVL24:
 258:../../Drivers/STM32L5xx_HAL_Driver/Src/stm32l5xx_hal_flash_ramfunc.c **** }
 445              		.loc 1 258 1 view .LVU143
 446 01f2 7047     		bx	lr
 447              	.L28:
 448              		.align	2
 449              	.L27:
 450 01f4 00000000 		.word	pFlash
 451 01f8 00200250 		.word	1342316544
 452 01fc 00000000 		.word	SystemCoreClock
 453 0200 D34D6210 		.word	274877907
 454              		.cfi_endproc
 455              	.LFE204:
 457              		.text
 458              	.Letext0:
 459              		.file 2 "../../Drivers/CMSIS/Device/ST/STM32L5xx/Include/stm32l562xx.h"
 460              		.file 3 "/usr/lib/gcc/arm-none-eabi/12.2.1/include/stdint.h"
 461              		.file 4 "../../Drivers/STM32L5xx_HAL_Driver/Inc/stm32l5xx_hal_def.h"
 462              		.file 5 "../../Drivers/STM32L5xx_HAL_Driver/Inc/stm32l5xx_hal_flash.h"
 463              		.file 6 "../../Drivers/CMSIS/Device/ST/STM32L5xx/Include/system_stm32l5xx.h"
ARM GAS  /tmp/ccVsHJds.s 			page 14

